Archive member included to satisfy reference by file (symbol)

C:\PROGRA~2\VT3_8920\VT3\RESOUR~1\targets\CANVIEW4\lib\vt3_runtime\libvt3_runtime.a(VT3_Main.o)
                              c:/program files (x86)/gnu tools arm embedded/5.2 2015q4/bin/../lib/gcc/arm-none-eabi/5.2.1/../../../../arm-none-eabi/lib/armv7e-m/fpu/crt0.o (main)
C:\PROGRA~2\VT3_8920\VT3\RESOUR~1\targets\CANVIEW4\lib\vt3_runtime\libvt3_runtime.a(VT3_Runtime.o)
                              vt3_code/vt3_disp.c.o (vt3_draw_indicator_PhysicalKey)
C:\PROGRA~2\VT3_8920\VT3\RESOUR~1\targets\CANVIEW4\lib\vt3_runtime\libvt3_runtime.a(VT3_Cycle100.o)
                              C:\PROGRA~2\VT3_8920\VT3\RESOUR~1\targets\CANVIEW4\lib\vt3_runtime\libvt3_runtime.a(VT3_Main.o) (Ciclo100Init)
C:\PROGRA~2\VT3_8920\VT3\RESOUR~1\targets\CANVIEW4\lib\vt3_runtime\libvt3_runtime.a(VT3_Cycle20.o)
                              C:\PROGRA~2\VT3_8920\VT3\RESOUR~1\targets\CANVIEW4\lib\vt3_runtime\libvt3_runtime.a(VT3_Main.o) (Ciclo20Init)
C:\PROGRA~2\VT3_8920\VT3\RESOUR~1\targets\CANVIEW4\lib\vt3_common\libvt3_common.a(IEC_Lib.o)
                              C:\PROGRA~2\VT3_8920\VT3\RESOUR~1\targets\CANVIEW4\lib\vt3_runtime\libvt3_runtime.a(VT3_Main.o) (vt3_fix_string_sizes)
C:\PROGRA~2\VT3_8920\VT3\RESOUR~1\targets\CANVIEW4\lib\vt3_common\libvt3_common.a(VT3_CAN_debug.o)
                              C:\PROGRA~2\VT3_8920\VT3\RESOUR~1\targets\CANVIEW4\lib\vt3_runtime\libvt3_runtime.a(VT3_Cycle20.o) (CAN_debug_init)
C:\PROGRA~2\VT3_8920\VT3\RESOUR~1\targets\CANVIEW4\lib\vt3_common\libvt3_common.a(VT3_Draw.o)
                              vt3_code/vt3_disp.c.o (vt3_draw_indicator_MultiBitmap)
C:\PROGRA~2\VT3_8920\VT3\RESOUR~1\targets\CANVIEW4\lib\vt3_common\libvt3_common.a(VT3_Runtime_Common.o)
                              C:\PROGRA~2\VT3_8920\VT3\RESOUR~1\targets\CANVIEW4\lib\vt3_common\libvt3_common.a(VT3_Draw.o) (vt3_schedule)
C:\PROGRA~2\VT3_8920\VT3\RESOUR~1\targets\CANVIEW4\lib\vt3_common\libvt3_common.a(VT3_elog.o)
                              C:\PROGRA~2\VT3_8920\VT3\RESOUR~1\targets\CANVIEW4\lib\vt3_common\libvt3_common.a(VT3_Draw.o) (ALM_Fmi_To_IDS_index)
C:\PROGRA~2\VT3_8920\VT3\RESOUR~1\targets\CANVIEW4\lib\lld\libCANView4.a(startup_stm32f429xx.o)
                              (Reset_Handler)
C:\PROGRA~2\VT3_8920\VT3\RESOUR~1\targets\CANVIEW4\lib\lld\libCANView4.a(stm32f4xx_it.o)
                              C:\PROGRA~2\VT3_8920\VT3\RESOUR~1\targets\CANVIEW4\lib\lld\libCANView4.a(startup_stm32f429xx.o) (DMA2_Stream3_IRQHandler)
C:\PROGRA~2\VT3_8920\VT3\RESOUR~1\targets\CANVIEW4\lib\lld\libCANView4.a(usbh_conf.o)
                              C:\PROGRA~2\VT3_8920\VT3\RESOUR~1\targets\CANVIEW4\lib\lld\libCANView4.a(stm32f4xx_it.o) (hhcd_USB_OTG_HS)
C:\PROGRA~2\VT3_8920\VT3\RESOUR~1\targets\CANVIEW4\lib\lld\libCANView4.a(system_stm32f4xx.o)
                              C:\PROGRA~2\VT3_8920\VT3\RESOUR~1\targets\CANVIEW4\lib\lld\libCANView4.a(startup_stm32f429xx.o) (SystemInit)
C:\PROGRA~2\VT3_8920\VT3\RESOUR~1\targets\CANVIEW4\lib\lld\libCANView4.a(stm32f4xx_hal.o)
                              C:\PROGRA~2\VT3_8920\VT3\RESOUR~1\targets\CANVIEW4\lib\lld\libCANView4.a(stm32f4xx_it.o) (HAL_IncTick)
C:\PROGRA~2\VT3_8920\VT3\RESOUR~1\targets\CANVIEW4\lib\lld\libCANView4.a(stm32f4xx_hal_cortex.o)
                              C:\PROGRA~2\VT3_8920\VT3\RESOUR~1\targets\CANVIEW4\lib\lld\libCANView4.a(stm32f4xx_hal.o) (HAL_NVIC_SetPriorityGrouping)
C:\PROGRA~2\VT3_8920\VT3\RESOUR~1\targets\CANVIEW4\lib\lld\libCANView4.a(stm32f4xx_hal_dcmi.o)
                              C:\PROGRA~2\VT3_8920\VT3\RESOUR~1\targets\CANVIEW4\lib\lld\libCANView4.a(stm32f4xx_it.o) (HAL_DCMI_IRQHandler)
C:\PROGRA~2\VT3_8920\VT3\RESOUR~1\targets\CANVIEW4\lib\lld\libCANView4.a(stm32f4xx_hal_dma.o)
                              C:\PROGRA~2\VT3_8920\VT3\RESOUR~1\targets\CANVIEW4\lib\lld\libCANView4.a(stm32f4xx_hal_dcmi.o) (HAL_DMA_Start_IT)
C:\PROGRA~2\VT3_8920\VT3\RESOUR~1\targets\CANVIEW4\lib\lld\libCANView4.a(stm32f4xx_hal_dma_ex.o)
                              C:\PROGRA~2\VT3_8920\VT3\RESOUR~1\targets\CANVIEW4\lib\lld\libCANView4.a(stm32f4xx_hal_dcmi.o) (HAL_DMAEx_MultiBufferStart_IT)
C:\PROGRA~2\VT3_8920\VT3\RESOUR~1\targets\CANVIEW4\lib\lld\libCANView4.a(stm32f4xx_hal_gpio.o)
                              C:\PROGRA~2\VT3_8920\VT3\RESOUR~1\targets\CANVIEW4\lib\lld\libCANView4.a(usbh_conf.o) (HAL_GPIO_Init)
C:\PROGRA~2\VT3_8920\VT3\RESOUR~1\targets\CANVIEW4\lib\lld\libCANView4.a(stm32f4xx_hal_hcd.o)
                              C:\PROGRA~2\VT3_8920\VT3\RESOUR~1\targets\CANVIEW4\lib\lld\libCANView4.a(usbh_conf.o) (HAL_HCD_Init)
C:\PROGRA~2\VT3_8920\VT3\RESOUR~1\targets\CANVIEW4\lib\lld\libCANView4.a(stm32f4xx_hal_rcc.o)
                              C:\PROGRA~2\VT3_8920\VT3\RESOUR~1\targets\CANVIEW4\lib\lld\libCANView4.a(stm32f4xx_hal.o) (HAL_RCC_GetHCLKFreq)
C:\PROGRA~2\VT3_8920\VT3\RESOUR~1\targets\CANVIEW4\lib\lld\libCANView4.a(stm32f4xx_hal_tim.o)
                              C:\PROGRA~2\VT3_8920\VT3\RESOUR~1\targets\CANVIEW4\lib\lld\libCANView4.a(stm32f4xx_it.o) (HAL_TIM_IRQHandler)
C:\PROGRA~2\VT3_8920\VT3\RESOUR~1\targets\CANVIEW4\lib\lld\libCANView4.a(stm32f4xx_hal_tim_ex.o)
                              C:\PROGRA~2\VT3_8920\VT3\RESOUR~1\targets\CANVIEW4\lib\lld\libCANView4.a(stm32f4xx_hal_tim.o) (TIMEx_DMACommutationCplt)
C:\PROGRA~2\VT3_8920\VT3\RESOUR~1\targets\CANVIEW4\lib\lld\libCANView4.a(stm32f4xx_hal_uart.o)
                              C:\PROGRA~2\VT3_8920\VT3\RESOUR~1\targets\CANVIEW4\lib\lld\libCANView4.a(stm32f4xx_it.o) (HAL_UART_IRQHandler)
C:\PROGRA~2\VT3_8920\VT3\RESOUR~1\targets\CANVIEW4\lib\lld\libCANView4.a(stm32f4xx_ll_usb.o)
                              C:\PROGRA~2\VT3_8920\VT3\RESOUR~1\targets\CANVIEW4\lib\lld\libCANView4.a(stm32f4xx_hal_hcd.o) (USB_CoreInit)
C:\PROGRA~2\VT3_8920\VT3\RESOUR~1\targets\CANVIEW4\lib\lld\libCANView4.a(CRC16.o)
                              C:\PROGRA~2\VT3_8920\VT3\RESOUR~1\targets\CANVIEW4\lib\vt3_common\libvt3_common.a(VT3_CAN_debug.o) (CRC16_EncodeBuffer)
C:\PROGRA~2\VT3_8920\VT3\RESOUR~1\targets\CANVIEW4\lib\lld\libCANView4.a(Camera.o)
                              C:\PROGRA~2\VT3_8920\VT3\RESOUR~1\targets\CANVIEW4\lib\vt3_runtime\libvt3_runtime.a(VT3_Runtime.o) (Init_Camera_Acquisition)
C:\PROGRA~2\VT3_8920\VT3\RESOUR~1\targets\CANVIEW4\lib\lld\libCANView4.a(CANView4_Event_Log.o)
                              C:\PROGRA~2\VT3_8920\VT3\RESOUR~1\targets\CANVIEW4\lib\vt3_common\libvt3_common.a(VT3_Draw.o) (EL_crc16)
C:\PROGRA~2\VT3_8920\VT3\RESOUR~1\targets\CANVIEW4\lib\lld\libCANView4.a(CANView4_HW_lib.o)
                              C:\PROGRA~2\VT3_8920\VT3\RESOUR~1\targets\CANVIEW4\lib\lld\libCANView4.a(stm32f4xx_it.o) (hdcmi)
C:\PROGRA~2\VT3_8920\VT3\RESOUR~1\targets\CANVIEW4\lib\lld\libCANView4.a(CANView4_Mem_EEPROM.o)
                              C:\PROGRA~2\VT3_8920\VT3\RESOUR~1\targets\CANVIEW4\lib\vt3_runtime\libvt3_runtime.a(VT3_Runtime.o) (EEPROM_Read_Status)
C:\PROGRA~2\VT3_8920\VT3\RESOUR~1\targets\CANVIEW4\lib\lld\libCANView4.a(CANView4_Mem_EXT_FLASH.o)
                              C:\PROGRA~2\VT3_8920\VT3\RESOUR~1\targets\CANVIEW4\lib\lld\libCANView4.a(Camera.o) (Check_ExtFlash_Transfer)
C:\PROGRA~2\VT3_8920\VT3\RESOUR~1\targets\CANVIEW4\lib\lld\libCANView4.a(CANView4_Node.o)
                              C:\PROGRA~2\VT3_8920\VT3\RESOUR~1\targets\CANVIEW4\lib\lld\libCANView4.a(CANView4_HW_lib.o) (g_SysMirror)
C:\PROGRA~2\VT3_8920\VT3\RESOUR~1\targets\CANVIEW4\lib\lld\libCANView4.a(CANView4_STM_periphs_lib.o)
                              C:\PROGRA~2\VT3_8920\VT3\RESOUR~1\targets\CANVIEW4\lib\lld\libCANView4.a(CANView4_HW_lib.o) (htim1)
C:\PROGRA~2\VT3_8920\VT3\RESOUR~1\targets\CANVIEW4\lib\lld\libCANView4.a(CANView4_Task_Manager.o)
                              C:\PROGRA~2\VT3_8920\VT3\RESOUR~1\targets\CANVIEW4\lib\lld\libCANView4.a(CANView4_HW_lib.o) (TasksStack)
C:\PROGRA~2\VT3_8920\VT3\RESOUR~1\targets\CANVIEW4\lib\lld\libCANView4.a(KWP2000_Light.o)
                              C:\PROGRA~2\VT3_8920\VT3\RESOUR~1\targets\CANVIEW4\lib\lld\libCANView4.a(CANView4_HW_lib.o) (Lib_KWP2000Init)
C:\PROGRA~2\VT3_8920\VT3\RESOUR~1\targets\CANVIEW4\lib\lld\libCANView4.a(Virtual_TIMs.o)
                              C:\PROGRA~2\VT3_8920\VT3\RESOUR~1\targets\CANVIEW4\lib\lld\libCANView4.a(CANView4_HW_lib.o) (Virtual_TIMs_Init)
C:\PROGRA~2\VT3_8920\VT3\RESOUR~1\targets\CANVIEW4\lib\lld\libCANView4.a(Display_Utilities.o)
                              C:\PROGRA~2\VT3_8920\VT3\RESOUR~1\targets\CANVIEW4\lib\vt3_runtime\libvt3_runtime.a(VT3_Cycle100.o) (CANView4_Display_Init)
C:\PROGRA~2\VT3_8920\VT3\RESOUR~1\targets\CANVIEW4\lib\lld\libCANView4.a(Display_lib.o)
                              C:\PROGRA~2\VT3_8920\VT3\RESOUR~1\targets\CANVIEW4\lib\lld\libCANView4.a(Display_Utilities.o) (CANView4_LCD_LayerDefaultInit)
C:\PROGRA~2\VT3_8920\VT3\RESOUR~1\targets\CANVIEW4\lib\lld\libCANView4.a(eeprom.o)
                              C:\PROGRA~2\VT3_8920\VT3\RESOUR~1\targets\CANVIEW4\lib\lld\libCANView4.a(CANView4_Mem_EEPROM.o) (EEPROM_GetStatus)
C:\PROGRA~2\VT3_8920\VT3\RESOUR~1\targets\CANVIEW4\lib\lld\libCANView4.a(Spansion_128Mb.o)
                              C:\PROGRA~2\VT3_8920\VT3\RESOUR~1\targets\CANVIEW4\lib\lld\libCANView4.a(CANView4_HW_lib.o) (SpansionInit)
C:\PROGRA~2\VT3_8920\VT3\RESOUR~1\targets\CANVIEW4\lib\lld\libCANView4.a(CAN.o)
                              C:\PROGRA~2\VT3_8920\VT3\RESOUR~1\targets\CANVIEW4\lib\lld\libCANView4.a(CANView4_HW_lib.o) (CANSetBootloader)
C:\PROGRA~2\VT3_8920\VT3\RESOUR~1\targets\CANVIEW4\lib\lld\libCANView4.a(Generic_IO.o)
                              C:\PROGRA~2\VT3_8920\VT3\RESOUR~1\targets\CANVIEW4\lib\lld\libCANView4.a(CANView4_HW_lib.o) (Input_State)
C:\PROGRA~2\VT3_8920\VT3\RESOUR~1\targets\CANVIEW4\lib\lld\libCANView4.a(RS232.o)
                              __OBJE~1/vt3_POU__initCOM.c.o (Lib_UARTInit)
C:\PROGRA~2\VT3_8920\VT3\RESOUR~1\targets\CANVIEW4\lib\lld\libCANView4.a(MD5.o)
                              C:\PROGRA~2\VT3_8920\VT3\RESOUR~1\targets\CANVIEW4\lib\lld\libCANView4.a(Spansion_128Mb.o) (MD5Init)
C:\PROGRA~2\VT3_8920\VT3\RESOUR~1\targets\CANVIEW4\lib\lld\libCANView4.a(RTC.o)
                              C:\PROGRA~2\VT3_8920\VT3\RESOUR~1\targets\CANVIEW4\lib\lld\libCANView4.a(CANView4_HW_lib.o) (RTC_init)
C:\PROGRA~2\VT3_8920\VT3\RESOUR~1\targets\CANVIEW4\lib\lld\libCANView4.a(CANView4_Mem_RTC.o)
                              C:\PROGRA~2\VT3_8920\VT3\RESOUR~1\targets\CANVIEW4\lib\vt3_runtime\libvt3_runtime.a(VT3_Runtime.o) (RTC_Read_Status)
C:\PROGRA~2\VT3_8920\VT3\RESOUR~1\targets\CANVIEW4\lib\lld\libCANView4.a(TVP5150.o)
                              C:\PROGRA~2\VT3_8920\VT3\RESOUR~1\targets\CANVIEW4\lib\vt3_runtime\libvt3_runtime.a(VT3_Runtime.o) (TVP5150_Enable)
C:\PROGRA~2\VT3_8920\VT3\RESOUR~1\targets\CANVIEW4\lib\lld\libCANView4.a(USB_Utilities.o)
                              C:\PROGRA~2\VT3_8920\VT3\RESOUR~1\targets\CANVIEW4\lib\lld\libCANView4.a(CANView4_HW_lib.o) (init_USB)
C:\PROGRA~2\VT3_8920\VT3\RESOUR~1\targets\CANVIEW4\lib\lld\libCANView4.a(Utilities.o)
                              C:\PROGRA~2\VT3_8920\VT3\RESOUR~1\targets\CANVIEW4\lib\lld\libCANView4.a(CANView4_Event_Log.o) (SwapWord)
C:\PROGRA~2\VT3_8920\VT3\RESOUR~1\targets\CANVIEW4\lib\lld\libCANView4.a(ff.o)
                              C:\PROGRA~2\VT3_8920\VT3\RESOUR~1\targets\CANVIEW4\lib\lld\libCANView4.a(USB_Utilities.o) (f_mount)
C:\PROGRA~2\VT3_8920\VT3\RESOUR~1\targets\CANVIEW4\lib\lld\libCANView4.a(cmsis_os.o)
                              C:\PROGRA~2\VT3_8920\VT3\RESOUR~1\targets\CANVIEW4\lib\lld\libCANView4.a(CANView4_Task_Manager.o) (osKernelStart)
C:\PROGRA~2\VT3_8920\VT3\RESOUR~1\targets\CANVIEW4\lib\lld\libCANView4.a(heap_4.o)
                              C:\PROGRA~2\VT3_8920\VT3\RESOUR~1\targets\CANVIEW4\lib\lld\libCANView4.a(CANView4_HW_lib.o) (pvPortMalloc)
C:\PROGRA~2\VT3_8920\VT3\RESOUR~1\targets\CANVIEW4\lib\lld\libCANView4.a(port.o)
                              C:\PROGRA~2\VT3_8920\VT3\RESOUR~1\targets\CANVIEW4\lib\lld\libCANView4.a(cmsis_os.o) (vPortEnterCritical)
C:\PROGRA~2\VT3_8920\VT3\RESOUR~1\targets\CANVIEW4\lib\lld\libCANView4.a(queue.o)
                              C:\PROGRA~2\VT3_8920\VT3\RESOUR~1\targets\CANVIEW4\lib\lld\libCANView4.a(cmsis_os.o) (xQueueGenericCreate)
C:\PROGRA~2\VT3_8920\VT3\RESOUR~1\targets\CANVIEW4\lib\lld\libCANView4.a(tasks.o)
                              C:\PROGRA~2\VT3_8920\VT3\RESOUR~1\targets\CANVIEW4\lib\lld\libCANView4.a(port.o) (pxCurrentTCB)
C:\PROGRA~2\VT3_8920\VT3\RESOUR~1\targets\CANVIEW4\lib\lld\libCANView4.a(usbh_core.o)
                              C:\PROGRA~2\VT3_8920\VT3\RESOUR~1\targets\CANVIEW4\lib\lld\libCANView4.a(usbh_conf.o) (USBH_LL_SetTimer)
C:\PROGRA~2\VT3_8920\VT3\RESOUR~1\targets\CANVIEW4\lib\lld\libCANView4.a(usbh_ctlreq.o)
                              C:\PROGRA~2\VT3_8920\VT3\RESOUR~1\targets\CANVIEW4\lib\lld\libCANView4.a(usbh_core.o) (USBH_Get_DevDesc)
C:\PROGRA~2\VT3_8920\VT3\RESOUR~1\targets\CANVIEW4\lib\lld\libCANView4.a(usbh_ioreq.o)
                              C:\PROGRA~2\VT3_8920\VT3\RESOUR~1\targets\CANVIEW4\lib\lld\libCANView4.a(usbh_ctlreq.o) (USBH_CtlSendSetup)
C:\PROGRA~2\VT3_8920\VT3\RESOUR~1\targets\CANVIEW4\lib\lld\libCANView4.a(usbh_pipes.o)
                              C:\PROGRA~2\VT3_8920\VT3\RESOUR~1\targets\CANVIEW4\lib\lld\libCANView4.a(usbh_core.o) (USBH_OpenPipe)
C:\PROGRA~2\VT3_8920\VT3\RESOUR~1\targets\CANVIEW4\lib\lld\libCANView4.a(fatfs.o)
                              C:\PROGRA~2\VT3_8920\VT3\RESOUR~1\targets\CANVIEW4\lib\lld\libCANView4.a(USB_Utilities.o) (USBH_Path)
C:\PROGRA~2\VT3_8920\VT3\RESOUR~1\targets\CANVIEW4\lib\lld\libCANView4.a(stm32f4xx_hal_msp.o)
                              C:\PROGRA~2\VT3_8920\VT3\RESOUR~1\targets\CANVIEW4\lib\lld\libCANView4.a(stm32f4xx_it.o) (hdma_spi5_rx)
C:\PROGRA~2\VT3_8920\VT3\RESOUR~1\targets\CANVIEW4\lib\lld\libCANView4.a(usb_host.o)
                              C:\PROGRA~2\VT3_8920\VT3\RESOUR~1\targets\CANVIEW4\lib\lld\libCANView4.a(USB_Utilities.o) (Appli_state)
C:\PROGRA~2\VT3_8920\VT3\RESOUR~1\targets\CANVIEW4\lib\lld\libCANView4.a(stm32f4xx_hal_adc.o)
                              C:\PROGRA~2\VT3_8920\VT3\RESOUR~1\targets\CANVIEW4\lib\lld\libCANView4.a(CANView4_STM_periphs_lib.o) (HAL_ADC_Init)
C:\PROGRA~2\VT3_8920\VT3\RESOUR~1\targets\CANVIEW4\lib\lld\libCANView4.a(stm32f4xx_hal_adc_ex.o)
                              C:\PROGRA~2\VT3_8920\VT3\RESOUR~1\targets\CANVIEW4\lib\lld\libCANView4.a(stm32f4xx_hal_adc.o) (HAL_ADCEx_InjectedConvCpltCallback)
C:\PROGRA~2\VT3_8920\VT3\RESOUR~1\targets\CANVIEW4\lib\lld\libCANView4.a(stm32f4xx_hal_can.o)
                              C:\PROGRA~2\VT3_8920\VT3\RESOUR~1\targets\CANVIEW4\lib\lld\libCANView4.a(CAN.o) (HAL_CAN_Init)
C:\PROGRA~2\VT3_8920\VT3\RESOUR~1\targets\CANVIEW4\lib\lld\libCANView4.a(stm32f4xx_hal_dma2d.o)
                              C:\PROGRA~2\VT3_8920\VT3\RESOUR~1\targets\CANVIEW4\lib\lld\libCANView4.a(CANView4_STM_periphs_lib.o) (HAL_DMA2D_Init)
C:\PROGRA~2\VT3_8920\VT3\RESOUR~1\targets\CANVIEW4\lib\lld\libCANView4.a(stm32f4xx_hal_flash.o)
                              C:\PROGRA~2\VT3_8920\VT3\RESOUR~1\targets\CANVIEW4\lib\lld\libCANView4.a(eeprom.o) (HAL_FLASH_Program)
C:\PROGRA~2\VT3_8920\VT3\RESOUR~1\targets\CANVIEW4\lib\lld\libCANView4.a(stm32f4xx_hal_flash_ex.o)
                              C:\PROGRA~2\VT3_8920\VT3\RESOUR~1\targets\CANVIEW4\lib\lld\libCANView4.a(eeprom.o) (HAL_FLASHEx_Erase)
C:\PROGRA~2\VT3_8920\VT3\RESOUR~1\targets\CANVIEW4\lib\lld\libCANView4.a(stm32f4xx_hal_i2c.o)
                              C:\PROGRA~2\VT3_8920\VT3\RESOUR~1\targets\CANVIEW4\lib\lld\libCANView4.a(CANView4_STM_periphs_lib.o) (HAL_I2C_Init)
C:\PROGRA~2\VT3_8920\VT3\RESOUR~1\targets\CANVIEW4\lib\lld\libCANView4.a(stm32f4xx_hal_ltdc.o)
                              C:\PROGRA~2\VT3_8920\VT3\RESOUR~1\targets\CANVIEW4\lib\lld\libCANView4.a(CANView4_STM_periphs_lib.o) (HAL_LTDC_Init)
C:\PROGRA~2\VT3_8920\VT3\RESOUR~1\targets\CANVIEW4\lib\lld\libCANView4.a(stm32f4xx_hal_pwr.o)
                              C:\PROGRA~2\VT3_8920\VT3\RESOUR~1\targets\CANVIEW4\lib\lld\libCANView4.a(CANView4_STM_periphs_lib.o) (HAL_PWR_EnableBkUpAccess)
C:\PROGRA~2\VT3_8920\VT3\RESOUR~1\targets\CANVIEW4\lib\lld\libCANView4.a(stm32f4xx_hal_pwr_ex.o)
                              C:\PROGRA~2\VT3_8920\VT3\RESOUR~1\targets\CANVIEW4\lib\lld\libCANView4.a(CANView4_STM_periphs_lib.o) (HAL_PWREx_EnableBkUpReg)
C:\PROGRA~2\VT3_8920\VT3\RESOUR~1\targets\CANVIEW4\lib\lld\libCANView4.a(stm32f4xx_hal_rcc_ex.o)
                              C:\PROGRA~2\VT3_8920\VT3\RESOUR~1\targets\CANVIEW4\lib\lld\libCANView4.a(CANView4_STM_periphs_lib.o) (HAL_RCCEx_PeriphCLKConfig)
C:\PROGRA~2\VT3_8920\VT3\RESOUR~1\targets\CANVIEW4\lib\lld\libCANView4.a(stm32f4xx_hal_rtc.o)
                              C:\PROGRA~2\VT3_8920\VT3\RESOUR~1\targets\CANVIEW4\lib\lld\libCANView4.a(RTC.o) (HAL_RTC_Init)
C:\PROGRA~2\VT3_8920\VT3\RESOUR~1\targets\CANVIEW4\lib\lld\libCANView4.a(stm32f4xx_hal_rtc_ex.o)
                              C:\PROGRA~2\VT3_8920\VT3\RESOUR~1\targets\CANVIEW4\lib\lld\libCANView4.a(CANView4_HW_lib.o) (HAL_RTCEx_BKUPWrite)
C:\PROGRA~2\VT3_8920\VT3\RESOUR~1\targets\CANVIEW4\lib\lld\libCANView4.a(stm32f4xx_hal_sdram.o)
                              C:\PROGRA~2\VT3_8920\VT3\RESOUR~1\targets\CANVIEW4\lib\lld\libCANView4.a(CANView4_STM_periphs_lib.o) (HAL_SDRAM_Init)
C:\PROGRA~2\VT3_8920\VT3\RESOUR~1\targets\CANVIEW4\lib\lld\libCANView4.a(stm32f4xx_hal_spi.o)
                              C:\PROGRA~2\VT3_8920\VT3\RESOUR~1\targets\CANVIEW4\lib\lld\libCANView4.a(CANView4_STM_periphs_lib.o) (HAL_SPI_Init)
C:\PROGRA~2\VT3_8920\VT3\RESOUR~1\targets\CANVIEW4\lib\lld\libCANView4.a(stm32f4xx_ll_fmc.o)
                              C:\PROGRA~2\VT3_8920\VT3\RESOUR~1\targets\CANVIEW4\lib\lld\libCANView4.a(stm32f4xx_hal_sdram.o) (FMC_SDRAM_Init)
C:\PROGRA~2\VT3_8920\VT3\RESOUR~1\targets\CANVIEW4\lib\lld\libCANView4.a(CRC32.o)
                              C:\PROGRA~2\VT3_8920\VT3\RESOUR~1\targets\CANVIEW4\lib\lld\libCANView4.a(eeprom.o) (CRC32_Update)
C:\PROGRA~2\VT3_8920\VT3\RESOUR~1\targets\CANVIEW4\lib\lld\libCANView4.a(ccsbcs.o)
                              C:\PROGRA~2\VT3_8920\VT3\RESOUR~1\targets\CANVIEW4\lib\lld\libCANView4.a(ff.o) (ff_convert)
C:\PROGRA~2\VT3_8920\VT3\RESOUR~1\targets\CANVIEW4\lib\lld\libCANView4.a(diskio.o)
                              C:\PROGRA~2\VT3_8920\VT3\RESOUR~1\targets\CANVIEW4\lib\lld\libCANView4.a(ff.o) (disk_status)
C:\PROGRA~2\VT3_8920\VT3\RESOUR~1\targets\CANVIEW4\lib\lld\libCANView4.a(ff_gen_drv.o)
                              C:\PROGRA~2\VT3_8920\VT3\RESOUR~1\targets\CANVIEW4\lib\lld\libCANView4.a(diskio.o) (disk)
C:\PROGRA~2\VT3_8920\VT3\RESOUR~1\targets\CANVIEW4\lib\lld\libCANView4.a(usbh_diskio.o)
                              C:\PROGRA~2\VT3_8920\VT3\RESOUR~1\targets\CANVIEW4\lib\lld\libCANView4.a(fatfs.o) (USBH_Driver)
C:\PROGRA~2\VT3_8920\VT3\RESOUR~1\targets\CANVIEW4\lib\lld\libCANView4.a(list.o)
                              C:\PROGRA~2\VT3_8920\VT3\RESOUR~1\targets\CANVIEW4\lib\lld\libCANView4.a(queue.o) (vListInitialise)
C:\PROGRA~2\VT3_8920\VT3\RESOUR~1\targets\CANVIEW4\lib\lld\libCANView4.a(usbh_msc.o)
                              C:\PROGRA~2\VT3_8920\VT3\RESOUR~1\targets\CANVIEW4\lib\lld\libCANView4.a(usb_host.o) (USBH_msc)
C:\PROGRA~2\VT3_8920\VT3\RESOUR~1\targets\CANVIEW4\lib\lld\libCANView4.a(usbh_msc_bot.o)
                              C:\PROGRA~2\VT3_8920\VT3\RESOUR~1\targets\CANVIEW4\lib\lld\libCANView4.a(usbh_msc.o) (USBH_MSC_BOT_REQ_GetMaxLUN)
C:\PROGRA~2\VT3_8920\VT3\RESOUR~1\targets\CANVIEW4\lib\lld\libCANView4.a(usbh_msc_scsi.o)
                              C:\PROGRA~2\VT3_8920\VT3\RESOUR~1\targets\CANVIEW4\lib\lld\libCANView4.a(usbh_msc.o) (USBH_MSC_SCSI_TestUnitReady)
c:/program files (x86)/gnu tools arm embedded/5.2 2015q4/bin/../lib/gcc/arm-none-eabi/5.2.1/../../../../arm-none-eabi/lib/armv7e-m/fpu\libm.a(lib_a-s_cos.o)
                              C:\PROGRA~2\VT3_8920\VT3\RESOUR~1\targets\CANVIEW4\lib\vt3_common\libvt3_common.a(VT3_Draw.o) (cos)
c:/program files (x86)/gnu tools arm embedded/5.2 2015q4/bin/../lib/gcc/arm-none-eabi/5.2.1/../../../../arm-none-eabi/lib/armv7e-m/fpu\libm.a(lib_a-s_sin.o)
                              C:\PROGRA~2\VT3_8920\VT3\RESOUR~1\targets\CANVIEW4\lib\vt3_common\libvt3_common.a(VT3_Draw.o) (sin)
c:/program files (x86)/gnu tools arm embedded/5.2 2015q4/bin/../lib/gcc/arm-none-eabi/5.2.1/../../../../arm-none-eabi/lib/armv7e-m/fpu\libm.a(lib_a-sf_tan.o)
                              C:\PROGRA~2\VT3_8920\VT3\RESOUR~1\targets\CANVIEW4\lib\vt3_common\libvt3_common.a(IEC_Lib.o) (tanf)
c:/program files (x86)/gnu tools arm embedded/5.2 2015q4/bin/../lib/gcc/arm-none-eabi/5.2.1/../../../../arm-none-eabi/lib/armv7e-m/fpu\libm.a(lib_a-w_acos.o)
                              C:\PROGRA~2\VT3_8920\VT3\RESOUR~1\targets\CANVIEW4\lib\vt3_common\libvt3_common.a(IEC_Lib.o) (acos)
c:/program files (x86)/gnu tools arm embedded/5.2 2015q4/bin/../lib/gcc/arm-none-eabi/5.2.1/../../../../arm-none-eabi/lib/armv7e-m/fpu\libm.a(lib_a-w_asin.o)
                              C:\PROGRA~2\VT3_8920\VT3\RESOUR~1\targets\CANVIEW4\lib\vt3_common\libvt3_common.a(IEC_Lib.o) (asin)
c:/program files (x86)/gnu tools arm embedded/5.2 2015q4/bin/../lib/gcc/arm-none-eabi/5.2.1/../../../../arm-none-eabi/lib/armv7e-m/fpu\libm.a(lib_a-w_pow.o)
                              C:\PROGRA~2\VT3_8920\VT3\RESOUR~1\targets\CANVIEW4\lib\vt3_common\libvt3_common.a(VT3_Draw.o) (pow)
c:/program files (x86)/gnu tools arm embedded/5.2 2015q4/bin/../lib/gcc/arm-none-eabi/5.2.1/../../../../arm-none-eabi/lib/armv7e-m/fpu\libm.a(lib_a-wf_exp.o)
                              C:\PROGRA~2\VT3_8920\VT3\RESOUR~1\targets\CANVIEW4\lib\vt3_common\libvt3_common.a(IEC_Lib.o) (expf)
c:/program files (x86)/gnu tools arm embedded/5.2 2015q4/bin/../lib/gcc/arm-none-eabi/5.2.1/../../../../arm-none-eabi/lib/armv7e-m/fpu\libm.a(lib_a-wf_log.o)
                              C:\PROGRA~2\VT3_8920\VT3\RESOUR~1\targets\CANVIEW4\lib\vt3_common\libvt3_common.a(IEC_Lib.o) (logf)
c:/program files (x86)/gnu tools arm embedded/5.2 2015q4/bin/../lib/gcc/arm-none-eabi/5.2.1/../../../../arm-none-eabi/lib/armv7e-m/fpu\libm.a(lib_a-wf_log10.o)
                              C:\PROGRA~2\VT3_8920\VT3\RESOUR~1\targets\CANVIEW4\lib\vt3_common\libvt3_common.a(IEC_Lib.o) (log10f)
c:/program files (x86)/gnu tools arm embedded/5.2 2015q4/bin/../lib/gcc/arm-none-eabi/5.2.1/../../../../arm-none-eabi/lib/armv7e-m/fpu\libm.a(lib_a-wf_pow.o)
                              C:\PROGRA~2\VT3_8920\VT3\RESOUR~1\targets\CANVIEW4\lib\vt3_common\libvt3_common.a(IEC_Lib.o) (powf)
c:/program files (x86)/gnu tools arm embedded/5.2 2015q4/bin/../lib/gcc/arm-none-eabi/5.2.1/../../../../arm-none-eabi/lib/armv7e-m/fpu\libm.a(lib_a-wf_sqrt.o)
                              C:\PROGRA~2\VT3_8920\VT3\RESOUR~1\targets\CANVIEW4\lib\vt3_common\libvt3_common.a(IEC_Lib.o) (sqrtf)
c:/program files (x86)/gnu tools arm embedded/5.2 2015q4/bin/../lib/gcc/arm-none-eabi/5.2.1/../../../../arm-none-eabi/lib/armv7e-m/fpu\libm.a(lib_a-e_acos.o)
                              c:/program files (x86)/gnu tools arm embedded/5.2 2015q4/bin/../lib/gcc/arm-none-eabi/5.2.1/../../../../arm-none-eabi/lib/armv7e-m/fpu\libm.a(lib_a-w_acos.o) (__ieee754_acos)
c:/program files (x86)/gnu tools arm embedded/5.2 2015q4/bin/../lib/gcc/arm-none-eabi/5.2.1/../../../../arm-none-eabi/lib/armv7e-m/fpu\libm.a(lib_a-e_asin.o)
                              c:/program files (x86)/gnu tools arm embedded/5.2 2015q4/bin/../lib/gcc/arm-none-eabi/5.2.1/../../../../arm-none-eabi/lib/armv7e-m/fpu\libm.a(lib_a-w_asin.o) (__ieee754_asin)
c:/program files (x86)/gnu tools arm embedded/5.2 2015q4/bin/../lib/gcc/arm-none-eabi/5.2.1/../../../../arm-none-eabi/lib/armv7e-m/fpu\libm.a(lib_a-e_pow.o)
                              c:/program files (x86)/gnu tools arm embedded/5.2 2015q4/bin/../lib/gcc/arm-none-eabi/5.2.1/../../../../arm-none-eabi/lib/armv7e-m/fpu\libm.a(lib_a-w_pow.o) (__ieee754_pow)
c:/program files (x86)/gnu tools arm embedded/5.2 2015q4/bin/../lib/gcc/arm-none-eabi/5.2.1/../../../../arm-none-eabi/lib/armv7e-m/fpu\libm.a(lib_a-e_rem_pio2.o)
                              c:/program files (x86)/gnu tools arm embedded/5.2 2015q4/bin/../lib/gcc/arm-none-eabi/5.2.1/../../../../arm-none-eabi/lib/armv7e-m/fpu\libm.a(lib_a-s_cos.o) (__ieee754_rem_pio2)
c:/program files (x86)/gnu tools arm embedded/5.2 2015q4/bin/../lib/gcc/arm-none-eabi/5.2.1/../../../../arm-none-eabi/lib/armv7e-m/fpu\libm.a(lib_a-e_sqrt.o)
                              c:/program files (x86)/gnu tools arm embedded/5.2 2015q4/bin/../lib/gcc/arm-none-eabi/5.2.1/../../../../arm-none-eabi/lib/armv7e-m/fpu\libm.a(lib_a-e_acos.o) (__ieee754_sqrt)
c:/program files (x86)/gnu tools arm embedded/5.2 2015q4/bin/../lib/gcc/arm-none-eabi/5.2.1/../../../../arm-none-eabi/lib/armv7e-m/fpu\libm.a(lib_a-ef_exp.o)
                              c:/program files (x86)/gnu tools arm embedded/5.2 2015q4/bin/../lib/gcc/arm-none-eabi/5.2.1/../../../../arm-none-eabi/lib/armv7e-m/fpu\libm.a(lib_a-wf_exp.o) (__ieee754_expf)
c:/program files (x86)/gnu tools arm embedded/5.2 2015q4/bin/../lib/gcc/arm-none-eabi/5.2.1/../../../../arm-none-eabi/lib/armv7e-m/fpu\libm.a(lib_a-ef_log.o)
                              c:/program files (x86)/gnu tools arm embedded/5.2 2015q4/bin/../lib/gcc/arm-none-eabi/5.2.1/../../../../arm-none-eabi/lib/armv7e-m/fpu\libm.a(lib_a-wf_log.o) (__ieee754_logf)
c:/program files (x86)/gnu tools arm embedded/5.2 2015q4/bin/../lib/gcc/arm-none-eabi/5.2.1/../../../../arm-none-eabi/lib/armv7e-m/fpu\libm.a(lib_a-ef_log10.o)
                              c:/program files (x86)/gnu tools arm embedded/5.2 2015q4/bin/../lib/gcc/arm-none-eabi/5.2.1/../../../../arm-none-eabi/lib/armv7e-m/fpu\libm.a(lib_a-wf_log10.o) (__ieee754_log10f)
c:/program files (x86)/gnu tools arm embedded/5.2 2015q4/bin/../lib/gcc/arm-none-eabi/5.2.1/../../../../arm-none-eabi/lib/armv7e-m/fpu\libm.a(lib_a-ef_pow.o)
                              c:/program files (x86)/gnu tools arm embedded/5.2 2015q4/bin/../lib/gcc/arm-none-eabi/5.2.1/../../../../arm-none-eabi/lib/armv7e-m/fpu\libm.a(lib_a-wf_pow.o) (__ieee754_powf)
c:/program files (x86)/gnu tools arm embedded/5.2 2015q4/bin/../lib/gcc/arm-none-eabi/5.2.1/../../../../arm-none-eabi/lib/armv7e-m/fpu\libm.a(lib_a-ef_rem_pio2.o)
                              c:/program files (x86)/gnu tools arm embedded/5.2 2015q4/bin/../lib/gcc/arm-none-eabi/5.2.1/../../../../arm-none-eabi/lib/armv7e-m/fpu\libm.a(lib_a-sf_tan.o) (__ieee754_rem_pio2f)
c:/program files (x86)/gnu tools arm embedded/5.2 2015q4/bin/../lib/gcc/arm-none-eabi/5.2.1/../../../../arm-none-eabi/lib/armv7e-m/fpu\libm.a(lib_a-ef_sqrt.o)
                              c:/program files (x86)/gnu tools arm embedded/5.2 2015q4/bin/../lib/gcc/arm-none-eabi/5.2.1/../../../../arm-none-eabi/lib/armv7e-m/fpu\libm.a(lib_a-wf_sqrt.o) (__ieee754_sqrtf)
c:/program files (x86)/gnu tools arm embedded/5.2 2015q4/bin/../lib/gcc/arm-none-eabi/5.2.1/../../../../arm-none-eabi/lib/armv7e-m/fpu\libm.a(lib_a-k_cos.o)
                              c:/program files (x86)/gnu tools arm embedded/5.2 2015q4/bin/../lib/gcc/arm-none-eabi/5.2.1/../../../../arm-none-eabi/lib/armv7e-m/fpu\libm.a(lib_a-s_cos.o) (__kernel_cos)
c:/program files (x86)/gnu tools arm embedded/5.2 2015q4/bin/../lib/gcc/arm-none-eabi/5.2.1/../../../../arm-none-eabi/lib/armv7e-m/fpu\libm.a(lib_a-k_rem_pio2.o)
                              c:/program files (x86)/gnu tools arm embedded/5.2 2015q4/bin/../lib/gcc/arm-none-eabi/5.2.1/../../../../arm-none-eabi/lib/armv7e-m/fpu\libm.a(lib_a-e_rem_pio2.o) (__kernel_rem_pio2)
c:/program files (x86)/gnu tools arm embedded/5.2 2015q4/bin/../lib/gcc/arm-none-eabi/5.2.1/../../../../arm-none-eabi/lib/armv7e-m/fpu\libm.a(lib_a-k_sin.o)
                              c:/program files (x86)/gnu tools arm embedded/5.2 2015q4/bin/../lib/gcc/arm-none-eabi/5.2.1/../../../../arm-none-eabi/lib/armv7e-m/fpu\libm.a(lib_a-s_cos.o) (__kernel_sin)
c:/program files (x86)/gnu tools arm embedded/5.2 2015q4/bin/../lib/gcc/arm-none-eabi/5.2.1/../../../../arm-none-eabi/lib/armv7e-m/fpu\libm.a(lib_a-kf_rem_pio2.o)
                              c:/program files (x86)/gnu tools arm embedded/5.2 2015q4/bin/../lib/gcc/arm-none-eabi/5.2.1/../../../../arm-none-eabi/lib/armv7e-m/fpu\libm.a(lib_a-ef_rem_pio2.o) (__kernel_rem_pio2f)
c:/program files (x86)/gnu tools arm embedded/5.2 2015q4/bin/../lib/gcc/arm-none-eabi/5.2.1/../../../../arm-none-eabi/lib/armv7e-m/fpu\libm.a(lib_a-kf_tan.o)
                              c:/program files (x86)/gnu tools arm embedded/5.2 2015q4/bin/../lib/gcc/arm-none-eabi/5.2.1/../../../../arm-none-eabi/lib/armv7e-m/fpu\libm.a(lib_a-sf_tan.o) (__kernel_tanf)
c:/program files (x86)/gnu tools arm embedded/5.2 2015q4/bin/../lib/gcc/arm-none-eabi/5.2.1/../../../../arm-none-eabi/lib/armv7e-m/fpu\libm.a(lib_a-s_fabs.o)
                              c:/program files (x86)/gnu tools arm embedded/5.2 2015q4/bin/../lib/gcc/arm-none-eabi/5.2.1/../../../../arm-none-eabi/lib/armv7e-m/fpu\libm.a(lib_a-w_acos.o) (fabs)
c:/program files (x86)/gnu tools arm embedded/5.2 2015q4/bin/../lib/gcc/arm-none-eabi/5.2.1/../../../../arm-none-eabi/lib/armv7e-m/fpu\libm.a(lib_a-s_finite.o)
                              c:/program files (x86)/gnu tools arm embedded/5.2 2015q4/bin/../lib/gcc/arm-none-eabi/5.2.1/../../../../arm-none-eabi/lib/armv7e-m/fpu\libm.a(lib_a-w_pow.o) (finite)
c:/program files (x86)/gnu tools arm embedded/5.2 2015q4/bin/../lib/gcc/arm-none-eabi/5.2.1/../../../../arm-none-eabi/lib/armv7e-m/fpu\libm.a(lib_a-s_floor.o)
                              c:/program files (x86)/gnu tools arm embedded/5.2 2015q4/bin/../lib/gcc/arm-none-eabi/5.2.1/../../../../arm-none-eabi/lib/armv7e-m/fpu\libm.a(lib_a-k_rem_pio2.o) (floor)
c:/program files (x86)/gnu tools arm embedded/5.2 2015q4/bin/../lib/gcc/arm-none-eabi/5.2.1/../../../../arm-none-eabi/lib/armv7e-m/fpu\libm.a(lib_a-s_fpclassify.o)
                              c:/program files (x86)/gnu tools arm embedded/5.2 2015q4/bin/../lib/gcc/arm-none-eabi/5.2.1/../../../../arm-none-eabi/lib/armv7e-m/fpu\libm.a(lib_a-w_acos.o) (__fpclassifyd)
c:/program files (x86)/gnu tools arm embedded/5.2 2015q4/bin/../lib/gcc/arm-none-eabi/5.2.1/../../../../arm-none-eabi/lib/armv7e-m/fpu\libm.a(lib_a-s_lib_ver.o)
                              c:/program files (x86)/gnu tools arm embedded/5.2 2015q4/bin/../lib/gcc/arm-none-eabi/5.2.1/../../../../arm-none-eabi/lib/armv7e-m/fpu\libm.a(lib_a-w_acos.o) (__fdlib_version)
c:/program files (x86)/gnu tools arm embedded/5.2 2015q4/bin/../lib/gcc/arm-none-eabi/5.2.1/../../../../arm-none-eabi/lib/armv7e-m/fpu\libm.a(lib_a-s_matherr.o)
                              c:/program files (x86)/gnu tools arm embedded/5.2 2015q4/bin/../lib/gcc/arm-none-eabi/5.2.1/../../../../arm-none-eabi/lib/armv7e-m/fpu\libm.a(lib_a-w_acos.o) (matherr)
c:/program files (x86)/gnu tools arm embedded/5.2 2015q4/bin/../lib/gcc/arm-none-eabi/5.2.1/../../../../arm-none-eabi/lib/armv7e-m/fpu\libm.a(lib_a-s_nan.o)
                              c:/program files (x86)/gnu tools arm embedded/5.2 2015q4/bin/../lib/gcc/arm-none-eabi/5.2.1/../../../../arm-none-eabi/lib/armv7e-m/fpu\libm.a(lib_a-w_acos.o) (nan)
c:/program files (x86)/gnu tools arm embedded/5.2 2015q4/bin/../lib/gcc/arm-none-eabi/5.2.1/../../../../arm-none-eabi/lib/armv7e-m/fpu\libm.a(lib_a-s_rint.o)
                              c:/program files (x86)/gnu tools arm embedded/5.2 2015q4/bin/../lib/gcc/arm-none-eabi/5.2.1/../../../../arm-none-eabi/lib/armv7e-m/fpu\libm.a(lib_a-w_pow.o) (rint)
c:/program files (x86)/gnu tools arm embedded/5.2 2015q4/bin/../lib/gcc/arm-none-eabi/5.2.1/../../../../arm-none-eabi/lib/armv7e-m/fpu\libm.a(lib_a-s_scalbn.o)
                              c:/program files (x86)/gnu tools arm embedded/5.2 2015q4/bin/../lib/gcc/arm-none-eabi/5.2.1/../../../../arm-none-eabi/lib/armv7e-m/fpu\libm.a(lib_a-e_pow.o) (scalbn)
c:/program files (x86)/gnu tools arm embedded/5.2 2015q4/bin/../lib/gcc/arm-none-eabi/5.2.1/../../../../arm-none-eabi/lib/armv7e-m/fpu\libm.a(lib_a-sf_fabs.o)
                              c:/program files (x86)/gnu tools arm embedded/5.2 2015q4/bin/../lib/gcc/arm-none-eabi/5.2.1/../../../../arm-none-eabi/lib/armv7e-m/fpu\libm.a(lib_a-ef_pow.o) (fabsf)
c:/program files (x86)/gnu tools arm embedded/5.2 2015q4/bin/../lib/gcc/arm-none-eabi/5.2.1/../../../../arm-none-eabi/lib/armv7e-m/fpu\libm.a(lib_a-sf_finite.o)
                              c:/program files (x86)/gnu tools arm embedded/5.2 2015q4/bin/../lib/gcc/arm-none-eabi/5.2.1/../../../../arm-none-eabi/lib/armv7e-m/fpu\libm.a(lib_a-wf_exp.o) (finitef)
c:/program files (x86)/gnu tools arm embedded/5.2 2015q4/bin/../lib/gcc/arm-none-eabi/5.2.1/../../../../arm-none-eabi/lib/armv7e-m/fpu\libm.a(lib_a-sf_floor.o)
                              c:/program files (x86)/gnu tools arm embedded/5.2 2015q4/bin/../lib/gcc/arm-none-eabi/5.2.1/../../../../arm-none-eabi/lib/armv7e-m/fpu\libm.a(lib_a-kf_rem_pio2.o) (floorf)
c:/program files (x86)/gnu tools arm embedded/5.2 2015q4/bin/../lib/gcc/arm-none-eabi/5.2.1/../../../../arm-none-eabi/lib/armv7e-m/fpu\libm.a(lib_a-sf_fpclassify.o)
                              c:/program files (x86)/gnu tools arm embedded/5.2 2015q4/bin/../lib/gcc/arm-none-eabi/5.2.1/../../../../arm-none-eabi/lib/armv7e-m/fpu\libm.a(lib_a-wf_log.o) (__fpclassifyf)
c:/program files (x86)/gnu tools arm embedded/5.2 2015q4/bin/../lib/gcc/arm-none-eabi/5.2.1/../../../../arm-none-eabi/lib/armv7e-m/fpu\libm.a(lib_a-sf_nan.o)
                              c:/program files (x86)/gnu tools arm embedded/5.2 2015q4/bin/../lib/gcc/arm-none-eabi/5.2.1/../../../../arm-none-eabi/lib/armv7e-m/fpu\libm.a(lib_a-ef_pow.o) (nanf)
c:/program files (x86)/gnu tools arm embedded/5.2 2015q4/bin/../lib/gcc/arm-none-eabi/5.2.1/../../../../arm-none-eabi/lib/armv7e-m/fpu\libm.a(lib_a-sf_scalbn.o)
                              c:/program files (x86)/gnu tools arm embedded/5.2 2015q4/bin/../lib/gcc/arm-none-eabi/5.2.1/../../../../arm-none-eabi/lib/armv7e-m/fpu\libm.a(lib_a-ef_pow.o) (scalbnf)
c:/program files (x86)/gnu tools arm embedded/5.2 2015q4/bin/../lib/gcc/arm-none-eabi/5.2.1/../../../../arm-none-eabi/lib/armv7e-m/fpu\libm.a(lib_a-s_copysign.o)
                              c:/program files (x86)/gnu tools arm embedded/5.2 2015q4/bin/../lib/gcc/arm-none-eabi/5.2.1/../../../../arm-none-eabi/lib/armv7e-m/fpu\libm.a(lib_a-s_scalbn.o) (copysign)
c:/program files (x86)/gnu tools arm embedded/5.2 2015q4/bin/../lib/gcc/arm-none-eabi/5.2.1/../../../../arm-none-eabi/lib/armv7e-m/fpu\libm.a(lib_a-sf_copysign.o)
                              c:/program files (x86)/gnu tools arm embedded/5.2 2015q4/bin/../lib/gcc/arm-none-eabi/5.2.1/../../../../arm-none-eabi/lib/armv7e-m/fpu\libm.a(lib_a-sf_scalbn.o) (copysignf)
c:/program files (x86)/gnu tools arm embedded/5.2 2015q4/bin/../lib/gcc/arm-none-eabi/5.2.1/armv7e-m/fpu\libgcc.a(_arm_addsubdf3.o)
                              c:/program files (x86)/gnu tools arm embedded/5.2 2015q4/bin/../lib/gcc/arm-none-eabi/5.2.1/../../../../arm-none-eabi/lib/armv7e-m/fpu\libm.a(lib_a-s_cos.o) (__aeabi_dsub)
c:/program files (x86)/gnu tools arm embedded/5.2 2015q4/bin/../lib/gcc/arm-none-eabi/5.2.1/armv7e-m/fpu\libgcc.a(_arm_muldivdf3.o)
                              c:/program files (x86)/gnu tools arm embedded/5.2 2015q4/bin/../lib/gcc/arm-none-eabi/5.2.1/../../../../arm-none-eabi/lib/armv7e-m/fpu\libm.a(lib_a-w_pow.o) (__aeabi_dmul)
c:/program files (x86)/gnu tools arm embedded/5.2 2015q4/bin/../lib/gcc/arm-none-eabi/5.2.1/armv7e-m/fpu\libgcc.a(_arm_cmpdf2.o)
                              c:/program files (x86)/gnu tools arm embedded/5.2 2015q4/bin/../lib/gcc/arm-none-eabi/5.2.1/../../../../arm-none-eabi/lib/armv7e-m/fpu\libm.a(lib_a-w_pow.o) (__aeabi_dcmpeq)
c:/program files (x86)/gnu tools arm embedded/5.2 2015q4/bin/../lib/gcc/arm-none-eabi/5.2.1/armv7e-m/fpu\libgcc.a(_arm_fixdfsi.o)
                              c:/program files (x86)/gnu tools arm embedded/5.2 2015q4/bin/../lib/gcc/arm-none-eabi/5.2.1/../../../../arm-none-eabi/lib/armv7e-m/fpu\libm.a(lib_a-e_rem_pio2.o) (__aeabi_d2iz)
c:/program files (x86)/gnu tools arm embedded/5.2 2015q4/bin/../lib/gcc/arm-none-eabi/5.2.1/armv7e-m/fpu\libgcc.a(_arm_truncdfsf2.o)
                              C:\PROGRA~2\VT3_8920\VT3\RESOUR~1\targets\CANVIEW4\lib\vt3_common\libvt3_common.a(IEC_Lib.o) (__aeabi_d2f)
c:/program files (x86)/gnu tools arm embedded/5.2 2015q4/bin/../lib/gcc/arm-none-eabi/5.2.1/../../../../arm-none-eabi/lib/armv7e-m/fpu\libc.a(lib_a-atof.o)
                              C:\PROGRA~2\VT3_8920\VT3\RESOUR~1\targets\CANVIEW4\lib\vt3_common\libvt3_common.a(IEC_Lib.o) (atof)
c:/program files (x86)/gnu tools arm embedded/5.2 2015q4/bin/../lib/gcc/arm-none-eabi/5.2.1/../../../../arm-none-eabi/lib/armv7e-m/fpu\libc.a(lib_a-atoi.o)
                              C:\PROGRA~2\VT3_8920\VT3\RESOUR~1\targets\CANVIEW4\lib\vt3_common\libvt3_common.a(IEC_Lib.o) (atoi)
c:/program files (x86)/gnu tools arm embedded/5.2 2015q4/bin/../lib/gcc/arm-none-eabi/5.2.1/../../../../arm-none-eabi/lib/armv7e-m/fpu\libc.a(lib_a-atol.o)
                              C:\PROGRA~2\VT3_8920\VT3\RESOUR~1\targets\CANVIEW4\lib\vt3_common\libvt3_common.a(IEC_Lib.o) (atol)
c:/program files (x86)/gnu tools arm embedded/5.2 2015q4/bin/../lib/gcc/arm-none-eabi/5.2.1/../../../../arm-none-eabi/lib/armv7e-m/fpu\libc.a(lib_a-bsearch.o)
                              C:\PROGRA~2\VT3_8920\VT3\RESOUR~1\targets\CANVIEW4\lib\vt3_common\libvt3_common.a(VT3_Draw.o) (bsearch)
c:/program files (x86)/gnu tools arm embedded/5.2 2015q4/bin/../lib/gcc/arm-none-eabi/5.2.1/../../../../arm-none-eabi/lib/armv7e-m/fpu\libc.a(lib_a-errno.o)
                              C:\PROGRA~2\VT3_8920\VT3\RESOUR~1\targets\CANVIEW4\lib\\lld\sysmem.o (__errno)
c:/program files (x86)/gnu tools arm embedded/5.2 2015q4/bin/../lib/gcc/arm-none-eabi/5.2.1/../../../../arm-none-eabi/lib/armv7e-m/fpu\libc.a(lib_a-exit.o)
                              c:/program files (x86)/gnu tools arm embedded/5.2 2015q4/bin/../lib/gcc/arm-none-eabi/5.2.1/../../../../arm-none-eabi/lib/armv7e-m/fpu/crt0.o (exit)
c:/program files (x86)/gnu tools arm embedded/5.2 2015q4/bin/../lib/gcc/arm-none-eabi/5.2.1/../../../../arm-none-eabi/lib/armv7e-m/fpu\libc.a(lib_a-fclose.o)
                              C:\PROGRA~2\VT3_8920\VT3\RESOUR~1\targets\CANVIEW4\lib\lld\libCANView4.a(MD5.o) (fclose)
c:/program files (x86)/gnu tools arm embedded/5.2 2015q4/bin/../lib/gcc/arm-none-eabi/5.2.1/../../../../arm-none-eabi/lib/armv7e-m/fpu\libc.a(lib_a-fflush.o)
                              c:/program files (x86)/gnu tools arm embedded/5.2 2015q4/bin/../lib/gcc/arm-none-eabi/5.2.1/../../../../arm-none-eabi/lib/armv7e-m/fpu\libc.a(lib_a-fclose.o) (__sflush_r)
c:/program files (x86)/gnu tools arm embedded/5.2 2015q4/bin/../lib/gcc/arm-none-eabi/5.2.1/../../../../arm-none-eabi/lib/armv7e-m/fpu\libc.a(lib_a-findfp.o)
                              c:/program files (x86)/gnu tools arm embedded/5.2 2015q4/bin/../lib/gcc/arm-none-eabi/5.2.1/../../../../arm-none-eabi/lib/armv7e-m/fpu\libc.a(lib_a-fclose.o) (__sinit)
c:/program files (x86)/gnu tools arm embedded/5.2 2015q4/bin/../lib/gcc/arm-none-eabi/5.2.1/../../../../arm-none-eabi/lib/armv7e-m/fpu\libc.a(lib_a-fopen.o)
                              C:\PROGRA~2\VT3_8920\VT3\RESOUR~1\targets\CANVIEW4\lib\lld\libCANView4.a(MD5.o) (fopen)
c:/program files (x86)/gnu tools arm embedded/5.2 2015q4/bin/../lib/gcc/arm-none-eabi/5.2.1/../../../../arm-none-eabi/lib/armv7e-m/fpu\libc.a(lib_a-fread.o)
                              C:\PROGRA~2\VT3_8920\VT3\RESOUR~1\targets\CANVIEW4\lib\lld\libCANView4.a(MD5.o) (fread)
c:/program files (x86)/gnu tools arm embedded/5.2 2015q4/bin/../lib/gcc/arm-none-eabi/5.2.1/../../../../arm-none-eabi/lib/armv7e-m/fpu\libc.a(lib_a-freer.o)
                              c:/program files (x86)/gnu tools arm embedded/5.2 2015q4/bin/../lib/gcc/arm-none-eabi/5.2.1/../../../../arm-none-eabi/lib/armv7e-m/fpu\libc.a(lib_a-fclose.o) (_free_r)
c:/program files (x86)/gnu tools arm embedded/5.2 2015q4/bin/../lib/gcc/arm-none-eabi/5.2.1/../../../../arm-none-eabi/lib/armv7e-m/fpu\libc.a(lib_a-fseek.o)
                              c:/program files (x86)/gnu tools arm embedded/5.2 2015q4/bin/../lib/gcc/arm-none-eabi/5.2.1/../../../../arm-none-eabi/lib/armv7e-m/fpu\libc.a(lib_a-fopen.o) (_fseek_r)
c:/program files (x86)/gnu tools arm embedded/5.2 2015q4/bin/../lib/gcc/arm-none-eabi/5.2.1/../../../../arm-none-eabi/lib/armv7e-m/fpu\libc.a(lib_a-fseeko.o)
                              c:/program files (x86)/gnu tools arm embedded/5.2 2015q4/bin/../lib/gcc/arm-none-eabi/5.2.1/../../../../arm-none-eabi/lib/armv7e-m/fpu\libc.a(lib_a-fseek.o) (_fseeko_r)
c:/program files (x86)/gnu tools arm embedded/5.2 2015q4/bin/../lib/gcc/arm-none-eabi/5.2.1/../../../../arm-none-eabi/lib/armv7e-m/fpu\libc.a(lib_a-fstatr.o)
                              c:/program files (x86)/gnu tools arm embedded/5.2 2015q4/bin/../lib/gcc/arm-none-eabi/5.2.1/../../../../arm-none-eabi/lib/armv7e-m/fpu\libc.a(lib_a-fseeko.o) (_fstat_r)
c:/program files (x86)/gnu tools arm embedded/5.2 2015q4/bin/../lib/gcc/arm-none-eabi/5.2.1/../../../../arm-none-eabi/lib/armv7e-m/fpu\libc.a(lib_a-fwalk.o)
                              c:/program files (x86)/gnu tools arm embedded/5.2 2015q4/bin/../lib/gcc/arm-none-eabi/5.2.1/../../../../arm-none-eabi/lib/armv7e-m/fpu\libc.a(lib_a-findfp.o) (_fwalk)
c:/program files (x86)/gnu tools arm embedded/5.2 2015q4/bin/../lib/gcc/arm-none-eabi/5.2.1/../../../../arm-none-eabi/lib/armv7e-m/fpu\libc.a(lib_a-impure.o)
                              c:/program files (x86)/gnu tools arm embedded/5.2 2015q4/bin/../lib/gcc/arm-none-eabi/5.2.1/../../../../arm-none-eabi/lib/armv7e-m/fpu\libc.a(lib_a-exit.o) (_global_impure_ptr)
c:/program files (x86)/gnu tools arm embedded/5.2 2015q4/bin/../lib/gcc/arm-none-eabi/5.2.1/../../../../arm-none-eabi/lib/armv7e-m/fpu\libc.a(lib_a-init.o)
                              c:/program files (x86)/gnu tools arm embedded/5.2 2015q4/bin/../lib/gcc/arm-none-eabi/5.2.1/../../../../arm-none-eabi/lib/armv7e-m/fpu/crt0.o (__libc_init_array)
c:/program files (x86)/gnu tools arm embedded/5.2 2015q4/bin/../lib/gcc/arm-none-eabi/5.2.1/../../../../arm-none-eabi/lib/armv7e-m/fpu\libc.a(lib_a-isalnum.o)
                              C:\PROGRA~2\VT3_8920\VT3\RESOUR~1\targets\CANVIEW4\lib\vt3_common\libvt3_common.a(VT3_Draw.o) (isalnum)
c:/program files (x86)/gnu tools arm embedded/5.2 2015q4/bin/../lib/gcc/arm-none-eabi/5.2.1/../../../../arm-none-eabi/lib/armv7e-m/fpu\libc.a(lib_a-isalpha.o)
                              C:\PROGRA~2\VT3_8920\VT3\RESOUR~1\targets\CANVIEW4\lib\vt3_common\libvt3_common.a(VT3_Draw.o) (isalpha)
c:/program files (x86)/gnu tools arm embedded/5.2 2015q4/bin/../lib/gcc/arm-none-eabi/5.2.1/../../../../arm-none-eabi/lib/armv7e-m/fpu\libc.a(lib_a-islower.o)
                              C:\PROGRA~2\VT3_8920\VT3\RESOUR~1\targets\CANVIEW4\lib\vt3_common\libvt3_common.a(VT3_Draw.o) (islower)
c:/program files (x86)/gnu tools arm embedded/5.2 2015q4/bin/../lib/gcc/arm-none-eabi/5.2.1/../../../../arm-none-eabi/lib/armv7e-m/fpu\libc.a(lib_a-isspace.o)
                              C:\PROGRA~2\VT3_8920\VT3\RESOUR~1\targets\CANVIEW4\lib\vt3_common\libvt3_common.a(VT3_Draw.o) (isspace)
c:/program files (x86)/gnu tools arm embedded/5.2 2015q4/bin/../lib/gcc/arm-none-eabi/5.2.1/../../../../arm-none-eabi/lib/armv7e-m/fpu\libc.a(lib_a-isupper.o)
                              C:\PROGRA~2\VT3_8920\VT3\RESOUR~1\targets\CANVIEW4\lib\vt3_common\libvt3_common.a(VT3_Draw.o) (isupper)
c:/program files (x86)/gnu tools arm embedded/5.2 2015q4/bin/../lib/gcc/arm-none-eabi/5.2.1/../../../../arm-none-eabi/lib/armv7e-m/fpu\libc.a(lib_a-isxdigit.o)
                              C:\PROGRA~2\VT3_8920\VT3\RESOUR~1\targets\CANVIEW4\lib\vt3_common\libvt3_common.a(VT3_Draw.o) (isxdigit)
c:/program files (x86)/gnu tools arm embedded/5.2 2015q4/bin/../lib/gcc/arm-none-eabi/5.2.1/../../../../arm-none-eabi/lib/armv7e-m/fpu\libc.a(lib_a-makebuf.o)
                              c:/program files (x86)/gnu tools arm embedded/5.2 2015q4/bin/../lib/gcc/arm-none-eabi/5.2.1/../../../../arm-none-eabi/lib/armv7e-m/fpu\libc.a(lib_a-fseeko.o) (__smakebuf_r)
c:/program files (x86)/gnu tools arm embedded/5.2 2015q4/bin/../lib/gcc/arm-none-eabi/5.2.1/../../../../arm-none-eabi/lib/armv7e-m/fpu\libc.a(lib_a-malloc.o)
                              C:\PROGRA~2\VT3_8920\VT3\RESOUR~1\targets\CANVIEW4\lib\lld\libCANView4.a(Virtual_TIMs.o) (malloc)
c:/program files (x86)/gnu tools arm embedded/5.2 2015q4/bin/../lib/gcc/arm-none-eabi/5.2.1/../../../../arm-none-eabi/lib/armv7e-m/fpu\libc.a(lib_a-mallocr.o)
                              c:/program files (x86)/gnu tools arm embedded/5.2 2015q4/bin/../lib/gcc/arm-none-eabi/5.2.1/../../../../arm-none-eabi/lib/armv7e-m/fpu\libc.a(lib_a-findfp.o) (_malloc_r)
c:/program files (x86)/gnu tools arm embedded/5.2 2015q4/bin/../lib/gcc/arm-none-eabi/5.2.1/../../../../arm-none-eabi/lib/armv7e-m/fpu\libc.a(lib_a-memcmp.o)
                              C:\PROGRA~2\VT3_8920\VT3\RESOUR~1\targets\CANVIEW4\lib\vt3_common\libvt3_common.a(IEC_Lib.o) (memcmp)
c:/program files (x86)/gnu tools arm embedded/5.2 2015q4/bin/../lib/gcc/arm-none-eabi/5.2.1/../../../../arm-none-eabi/lib/armv7e-m/fpu\libc.a(lib_a-memcpy.o)
                              C:\PROGRA~2\VT3_8920\VT3\RESOUR~1\targets\CANVIEW4\lib\vt3_runtime\libvt3_runtime.a(VT3_Main.o) (memcpy)
c:/program files (x86)/gnu tools arm embedded/5.2 2015q4/bin/../lib/gcc/arm-none-eabi/5.2.1/../../../../arm-none-eabi/lib/armv7e-m/fpu\libc.a(lib_a-memset.o)
                              c:/program files (x86)/gnu tools arm embedded/5.2 2015q4/bin/../lib/gcc/arm-none-eabi/5.2.1/../../../../arm-none-eabi/lib/armv7e-m/fpu/crt0.o (memset)
c:/program files (x86)/gnu tools arm embedded/5.2 2015q4/bin/../lib/gcc/arm-none-eabi/5.2.1/../../../../arm-none-eabi/lib/armv7e-m/fpu\libc.a(lib_a-mlock.o)
                              c:/program files (x86)/gnu tools arm embedded/5.2 2015q4/bin/../lib/gcc/arm-none-eabi/5.2.1/../../../../arm-none-eabi/lib/armv7e-m/fpu\libc.a(lib_a-freer.o) (__malloc_lock)
c:/program files (x86)/gnu tools arm embedded/5.2 2015q4/bin/../lib/gcc/arm-none-eabi/5.2.1/../../../../arm-none-eabi/lib/armv7e-m/fpu\libc.a(lib_a-openr.o)
                              c:/program files (x86)/gnu tools arm embedded/5.2 2015q4/bin/../lib/gcc/arm-none-eabi/5.2.1/../../../../arm-none-eabi/lib/armv7e-m/fpu\libc.a(lib_a-fopen.o) (_open_r)
c:/program files (x86)/gnu tools arm embedded/5.2 2015q4/bin/../lib/gcc/arm-none-eabi/5.2.1/../../../../arm-none-eabi/lib/armv7e-m/fpu\libc.a(lib_a-printf.o)
                              C:\PROGRA~2\VT3_8920\VT3\RESOUR~1\targets\CANVIEW4\lib\lld\libCANView4.a(MD5.o) (printf)
c:/program files (x86)/gnu tools arm embedded/5.2 2015q4/bin/../lib/gcc/arm-none-eabi/5.2.1/../../../../arm-none-eabi/lib/armv7e-m/fpu\libc.a(lib_a-rand.o)
                              C:\PROGRA~2\VT3_8920\VT3\RESOUR~1\targets\CANVIEW4\lib\vt3_common\libvt3_common.a(VT3_CAN_debug.o) (rand)
c:/program files (x86)/gnu tools arm embedded/5.2 2015q4/bin/../lib/gcc/arm-none-eabi/5.2.1/../../../../arm-none-eabi/lib/armv7e-m/fpu\libc.a(lib_a-reent.o)
                              c:/program files (x86)/gnu tools arm embedded/5.2 2015q4/bin/../lib/gcc/arm-none-eabi/5.2.1/../../../../arm-none-eabi/lib/armv7e-m/fpu\libc.a(lib_a-fstatr.o) (errno)
c:/program files (x86)/gnu tools arm embedded/5.2 2015q4/bin/../lib/gcc/arm-none-eabi/5.2.1/../../../../arm-none-eabi/lib/armv7e-m/fpu\libc.a(lib_a-refill.o)
                              c:/program files (x86)/gnu tools arm embedded/5.2 2015q4/bin/../lib/gcc/arm-none-eabi/5.2.1/../../../../arm-none-eabi/lib/armv7e-m/fpu\libc.a(lib_a-fread.o) (__srefill_r)
c:/program files (x86)/gnu tools arm embedded/5.2 2015q4/bin/../lib/gcc/arm-none-eabi/5.2.1/../../../../arm-none-eabi/lib/armv7e-m/fpu\libc.a(lib_a-sbrkr.o)
                              c:/program files (x86)/gnu tools arm embedded/5.2 2015q4/bin/../lib/gcc/arm-none-eabi/5.2.1/../../../../arm-none-eabi/lib/armv7e-m/fpu\libc.a(lib_a-freer.o) (_sbrk_r)
c:/program files (x86)/gnu tools arm embedded/5.2 2015q4/bin/../lib/gcc/arm-none-eabi/5.2.1/../../../../arm-none-eabi/lib/armv7e-m/fpu\libc.a(lib_a-sprintf.o)
                              C:\PROGRA~2\VT3_8920\VT3\RESOUR~1\targets\CANVIEW4\lib\vt3_common\libvt3_common.a(IEC_Lib.o) (sprintf)
c:/program files (x86)/gnu tools arm embedded/5.2 2015q4/bin/../lib/gcc/arm-none-eabi/5.2.1/../../../../arm-none-eabi/lib/armv7e-m/fpu\libc.a(lib_a-stdio.o)
                              c:/program files (x86)/gnu tools arm embedded/5.2 2015q4/bin/../lib/gcc/arm-none-eabi/5.2.1/../../../../arm-none-eabi/lib/armv7e-m/fpu\libc.a(lib_a-findfp.o) (__sread)
c:/program files (x86)/gnu tools arm embedded/5.2 2015q4/bin/../lib/gcc/arm-none-eabi/5.2.1/../../../../arm-none-eabi/lib/armv7e-m/fpu\libc.a(lib_a-strcat.o)
                              C:\PROGRA~2\VT3_8920\VT3\RESOUR~1\targets\CANVIEW4\lib\vt3_common\libvt3_common.a(VT3_Draw.o) (strcat)
c:/program files (x86)/gnu tools arm embedded/5.2 2015q4/bin/../lib/gcc/arm-none-eabi/5.2.1/../../../../arm-none-eabi/lib/armv7e-m/fpu\libc.a(lib_a-strchr.o)
                              C:\PROGRA~2\VT3_8920\VT3\RESOUR~1\targets\CANVIEW4\lib\vt3_common\libvt3_common.a(VT3_Draw.o) (strchr)
c:/program files (x86)/gnu tools arm embedded/5.2 2015q4/bin/../lib/gcc/arm-none-eabi/5.2.1/../../../../arm-none-eabi/lib/armv7e-m/fpu\libc.a(lib_a-strcmp.o)
                              C:\PROGRA~2\VT3_8920\VT3\RESOUR~1\targets\CANVIEW4\lib\vt3_common\libvt3_common.a(VT3_Draw.o) (strcmp)
c:/program files (x86)/gnu tools arm embedded/5.2 2015q4/bin/../lib/gcc/arm-none-eabi/5.2.1/../../../../arm-none-eabi/lib/armv7e-m/fpu\libc.a(lib_a-strcpy.o)
                              C:\PROGRA~2\VT3_8920\VT3\RESOUR~1\targets\CANVIEW4\lib\vt3_common\libvt3_common.a(VT3_Draw.o) (strcpy)
c:/program files (x86)/gnu tools arm embedded/5.2 2015q4/bin/../lib/gcc/arm-none-eabi/5.2.1/../../../../arm-none-eabi/lib/armv7e-m/fpu\libc.a(lib_a-strlcat.o)
                              C:\PROGRA~2\VT3_8920\VT3\RESOUR~1\targets\CANVIEW4\lib\vt3_common\libvt3_common.a(VT3_Draw.o) (strlcat)
c:/program files (x86)/gnu tools arm embedded/5.2 2015q4/bin/../lib/gcc/arm-none-eabi/5.2.1/../../../../arm-none-eabi/lib/armv7e-m/fpu\libc.a(lib_a-strlen.o)
                              C:\PROGRA~2\VT3_8920\VT3\RESOUR~1\targets\CANVIEW4\lib\vt3_common\libvt3_common.a(IEC_Lib.o) (strlen)
c:/program files (x86)/gnu tools arm embedded/5.2 2015q4/bin/../lib/gcc/arm-none-eabi/5.2.1/../../../../arm-none-eabi/lib/armv7e-m/fpu\libc.a(lib_a-strncpy.o)
                              __OBJE~1/vt3_POU__readStringUSB.c.o (strncpy)
c:/program files (x86)/gnu tools arm embedded/5.2 2015q4/bin/../lib/gcc/arm-none-eabi/5.2.1/../../../../arm-none-eabi/lib/armv7e-m/fpu\libc.a(lib_a-strtod.o)
                              c:/program files (x86)/gnu tools arm embedded/5.2 2015q4/bin/../lib/gcc/arm-none-eabi/5.2.1/../../../../arm-none-eabi/lib/armv7e-m/fpu\libc.a(lib_a-atof.o) (strtod)
c:/program files (x86)/gnu tools arm embedded/5.2 2015q4/bin/../lib/gcc/arm-none-eabi/5.2.1/../../../../arm-none-eabi/lib/armv7e-m/fpu\libc.a(lib_a-strtol.o)
                              c:/program files (x86)/gnu tools arm embedded/5.2 2015q4/bin/../lib/gcc/arm-none-eabi/5.2.1/../../../../arm-none-eabi/lib/armv7e-m/fpu\libc.a(lib_a-atoi.o) (_strtol_r)
c:/program files (x86)/gnu tools arm embedded/5.2 2015q4/bin/../lib/gcc/arm-none-eabi/5.2.1/../../../../arm-none-eabi/lib/armv7e-m/fpu\libc.a(lib_a-svfprintf.o)
                              c:/program files (x86)/gnu tools arm embedded/5.2 2015q4/bin/../lib/gcc/arm-none-eabi/5.2.1/../../../../arm-none-eabi/lib/armv7e-m/fpu\libc.a(lib_a-sprintf.o) (_svfprintf_r)
c:/program files (x86)/gnu tools arm embedded/5.2 2015q4/bin/../lib/gcc/arm-none-eabi/5.2.1/../../../../arm-none-eabi/lib/armv7e-m/fpu\libc.a(lib_a-vfprintf.o)
                              c:/program files (x86)/gnu tools arm embedded/5.2 2015q4/bin/../lib/gcc/arm-none-eabi/5.2.1/../../../../arm-none-eabi/lib/armv7e-m/fpu\libc.a(lib_a-printf.o) (_vfprintf_r)
c:/program files (x86)/gnu tools arm embedded/5.2 2015q4/bin/../lib/gcc/arm-none-eabi/5.2.1/../../../../arm-none-eabi/lib/armv7e-m/fpu\libc.a(lib_a-writer.o)
                              c:/program files (x86)/gnu tools arm embedded/5.2 2015q4/bin/../lib/gcc/arm-none-eabi/5.2.1/../../../../arm-none-eabi/lib/armv7e-m/fpu\libc.a(lib_a-stdio.o) (_write_r)
c:/program files (x86)/gnu tools arm embedded/5.2 2015q4/bin/../lib/gcc/arm-none-eabi/5.2.1/../../../../arm-none-eabi/lib/armv7e-m/fpu\libc.a(lib_a-wsetup.o)
                              c:/program files (x86)/gnu tools arm embedded/5.2 2015q4/bin/../lib/gcc/arm-none-eabi/5.2.1/../../../../arm-none-eabi/lib/armv7e-m/fpu\libc.a(lib_a-vfprintf.o) (__swsetup_r)
c:/program files (x86)/gnu tools arm embedded/5.2 2015q4/bin/../lib/gcc/arm-none-eabi/5.2.1/../../../../arm-none-eabi/lib/armv7e-m/fpu\libc.a(lib_a-__call_atexit.o)
                              c:/program files (x86)/gnu tools arm embedded/5.2 2015q4/bin/../lib/gcc/arm-none-eabi/5.2.1/../../../../arm-none-eabi/lib/armv7e-m/fpu\libc.a(lib_a-exit.o) (__call_exitprocs)
c:/program files (x86)/gnu tools arm embedded/5.2 2015q4/bin/../lib/gcc/arm-none-eabi/5.2.1/../../../../arm-none-eabi/lib/armv7e-m/fpu\libc.a(lib_a-atexit.o)
                              c:/program files (x86)/gnu tools arm embedded/5.2 2015q4/bin/../lib/gcc/arm-none-eabi/5.2.1/../../../../arm-none-eabi/lib/armv7e-m/fpu\libc.a(lib_a-__call_atexit.o) (atexit)
c:/program files (x86)/gnu tools arm embedded/5.2 2015q4/bin/../lib/gcc/arm-none-eabi/5.2.1/../../../../arm-none-eabi/lib/armv7e-m/fpu\libc.a(lib_a-closer.o)
                              c:/program files (x86)/gnu tools arm embedded/5.2 2015q4/bin/../lib/gcc/arm-none-eabi/5.2.1/../../../../arm-none-eabi/lib/armv7e-m/fpu\libc.a(lib_a-stdio.o) (_close_r)
c:/program files (x86)/gnu tools arm embedded/5.2 2015q4/bin/../lib/gcc/arm-none-eabi/5.2.1/../../../../arm-none-eabi/lib/armv7e-m/fpu\libc.a(lib_a-ctype_.o)
                              c:/program files (x86)/gnu tools arm embedded/5.2 2015q4/bin/../lib/gcc/arm-none-eabi/5.2.1/../../../../arm-none-eabi/lib/armv7e-m/fpu\libc.a(lib_a-isalnum.o) (__ctype_ptr__)
c:/program files (x86)/gnu tools arm embedded/5.2 2015q4/bin/../lib/gcc/arm-none-eabi/5.2.1/../../../../arm-none-eabi/lib/armv7e-m/fpu\libc.a(lib_a-dtoa.o)
                              c:/program files (x86)/gnu tools arm embedded/5.2 2015q4/bin/../lib/gcc/arm-none-eabi/5.2.1/../../../../arm-none-eabi/lib/armv7e-m/fpu\libc.a(lib_a-svfprintf.o) (_dtoa_r)
c:/program files (x86)/gnu tools arm embedded/5.2 2015q4/bin/../lib/gcc/arm-none-eabi/5.2.1/../../../../arm-none-eabi/lib/armv7e-m/fpu\libc.a(lib_a-fini.o)
                              c:/program files (x86)/gnu tools arm embedded/5.2 2015q4/bin/../lib/gcc/arm-none-eabi/5.2.1/../../../../arm-none-eabi/lib/armv7e-m/fpu\libc.a(lib_a-__call_atexit.o) (__libc_fini_array)
c:/program files (x86)/gnu tools arm embedded/5.2 2015q4/bin/../lib/gcc/arm-none-eabi/5.2.1/../../../../arm-none-eabi/lib/armv7e-m/fpu\libc.a(lib_a-flags.o)
                              c:/program files (x86)/gnu tools arm embedded/5.2 2015q4/bin/../lib/gcc/arm-none-eabi/5.2.1/../../../../arm-none-eabi/lib/armv7e-m/fpu\libc.a(lib_a-fopen.o) (__sflags)
c:/program files (x86)/gnu tools arm embedded/5.2 2015q4/bin/../lib/gcc/arm-none-eabi/5.2.1/../../../../arm-none-eabi/lib/armv7e-m/fpu\libc.a(lib_a-gdtoa-gethex.o)
                              c:/program files (x86)/gnu tools arm embedded/5.2 2015q4/bin/../lib/gcc/arm-none-eabi/5.2.1/../../../../arm-none-eabi/lib/armv7e-m/fpu\libc.a(lib_a-strtod.o) (__gethex)
c:/program files (x86)/gnu tools arm embedded/5.2 2015q4/bin/../lib/gcc/arm-none-eabi/5.2.1/../../../../arm-none-eabi/lib/armv7e-m/fpu\libc.a(lib_a-gdtoa-hexnan.o)
                              c:/program files (x86)/gnu tools arm embedded/5.2 2015q4/bin/../lib/gcc/arm-none-eabi/5.2.1/../../../../arm-none-eabi/lib/armv7e-m/fpu\libc.a(lib_a-strtod.o) (__match)
c:/program files (x86)/gnu tools arm embedded/5.2 2015q4/bin/../lib/gcc/arm-none-eabi/5.2.1/../../../../arm-none-eabi/lib/armv7e-m/fpu\libc.a(lib_a-isattyr.o)
                              c:/program files (x86)/gnu tools arm embedded/5.2 2015q4/bin/../lib/gcc/arm-none-eabi/5.2.1/../../../../arm-none-eabi/lib/armv7e-m/fpu\libc.a(lib_a-makebuf.o) (_isatty_r)
c:/program files (x86)/gnu tools arm embedded/5.2 2015q4/bin/../lib/gcc/arm-none-eabi/5.2.1/../../../../arm-none-eabi/lib/armv7e-m/fpu\libc.a(lib_a-locale.o)
                              c:/program files (x86)/gnu tools arm embedded/5.2 2015q4/bin/../lib/gcc/arm-none-eabi/5.2.1/../../../../arm-none-eabi/lib/armv7e-m/fpu\libc.a(lib_a-strtod.o) (_localeconv_r)
c:/program files (x86)/gnu tools arm embedded/5.2 2015q4/bin/../lib/gcc/arm-none-eabi/5.2.1/../../../../arm-none-eabi/lib/armv7e-m/fpu\libc.a(lib_a-lseekr.o)
                              c:/program files (x86)/gnu tools arm embedded/5.2 2015q4/bin/../lib/gcc/arm-none-eabi/5.2.1/../../../../arm-none-eabi/lib/armv7e-m/fpu\libc.a(lib_a-stdio.o) (_lseek_r)
c:/program files (x86)/gnu tools arm embedded/5.2 2015q4/bin/../lib/gcc/arm-none-eabi/5.2.1/../../../../arm-none-eabi/lib/armv7e-m/fpu\libc.a(lib_a-memchr.o)
                              c:/program files (x86)/gnu tools arm embedded/5.2 2015q4/bin/../lib/gcc/arm-none-eabi/5.2.1/../../../../arm-none-eabi/lib/armv7e-m/fpu\libc.a(lib_a-svfprintf.o) (memchr)
c:/program files (x86)/gnu tools arm embedded/5.2 2015q4/bin/../lib/gcc/arm-none-eabi/5.2.1/../../../../arm-none-eabi/lib/armv7e-m/fpu\libc.a(lib_a-mprec.o)
                              c:/program files (x86)/gnu tools arm embedded/5.2 2015q4/bin/../lib/gcc/arm-none-eabi/5.2.1/../../../../arm-none-eabi/lib/armv7e-m/fpu\libc.a(lib_a-strtod.o) (_Balloc)
c:/program files (x86)/gnu tools arm embedded/5.2 2015q4/bin/../lib/gcc/arm-none-eabi/5.2.1/../../../../arm-none-eabi/lib/armv7e-m/fpu\libc.a(lib_a-readr.o)
                              c:/program files (x86)/gnu tools arm embedded/5.2 2015q4/bin/../lib/gcc/arm-none-eabi/5.2.1/../../../../arm-none-eabi/lib/armv7e-m/fpu\libc.a(lib_a-stdio.o) (_read_r)
c:/program files (x86)/gnu tools arm embedded/5.2 2015q4/bin/../lib/gcc/arm-none-eabi/5.2.1/../../../../arm-none-eabi/lib/armv7e-m/fpu\libc.a(lib_a-strncmp.o)
                              c:/program files (x86)/gnu tools arm embedded/5.2 2015q4/bin/../lib/gcc/arm-none-eabi/5.2.1/../../../../arm-none-eabi/lib/armv7e-m/fpu\libc.a(lib_a-strtod.o) (strncmp)
c:/program files (x86)/gnu tools arm embedded/5.2 2015q4/bin/../lib/gcc/arm-none-eabi/5.2.1/../../../../arm-none-eabi/lib/armv7e-m/fpu\libc.a(lib_a-svfiprintf.o)
                              c:/program files (x86)/gnu tools arm embedded/5.2 2015q4/bin/../lib/gcc/arm-none-eabi/5.2.1/../../../../arm-none-eabi/lib/armv7e-m/fpu\libc.a(lib_a-svfprintf.o) (__ssprint_r)
c:/program files (x86)/gnu tools arm embedded/5.2 2015q4/bin/../lib/gcc/arm-none-eabi/5.2.1/../../../../arm-none-eabi/lib/armv7e-m/fpu\libc.a(lib_a-vfiprintf.o)
                              c:/program files (x86)/gnu tools arm embedded/5.2 2015q4/bin/../lib/gcc/arm-none-eabi/5.2.1/../../../../arm-none-eabi/lib/armv7e-m/fpu\libc.a(lib_a-vfprintf.o) (__sprint_r)
c:/program files (x86)/gnu tools arm embedded/5.2 2015q4/bin/../lib/gcc/arm-none-eabi/5.2.1/../../../../arm-none-eabi/lib/armv7e-m/fpu\libc.a(lib_a-__atexit.o)
                              c:/program files (x86)/gnu tools arm embedded/5.2 2015q4/bin/../lib/gcc/arm-none-eabi/5.2.1/../../../../arm-none-eabi/lib/armv7e-m/fpu\libc.a(lib_a-atexit.o) (__register_exitproc)
c:/program files (x86)/gnu tools arm embedded/5.2 2015q4/bin/../lib/gcc/arm-none-eabi/5.2.1/../../../../arm-none-eabi/lib/armv7e-m/fpu\libc.a(lib_a-callocr.o)
                              c:/program files (x86)/gnu tools arm embedded/5.2 2015q4/bin/../lib/gcc/arm-none-eabi/5.2.1/../../../../arm-none-eabi/lib/armv7e-m/fpu\libc.a(lib_a-mprec.o) (_calloc_r)
c:/program files (x86)/gnu tools arm embedded/5.2 2015q4/bin/../lib/gcc/arm-none-eabi/5.2.1/../../../../arm-none-eabi/lib/armv7e-m/fpu\libc.a(lib_a-fputwc.o)
                              c:/program files (x86)/gnu tools arm embedded/5.2 2015q4/bin/../lib/gcc/arm-none-eabi/5.2.1/../../../../arm-none-eabi/lib/armv7e-m/fpu\libc.a(lib_a-vfiprintf.o) (_fputwc_r)
c:/program files (x86)/gnu tools arm embedded/5.2 2015q4/bin/../lib/gcc/arm-none-eabi/5.2.1/../../../../arm-none-eabi/lib/armv7e-m/fpu\libc.a(lib_a-fvwrite.o)
                              c:/program files (x86)/gnu tools arm embedded/5.2 2015q4/bin/../lib/gcc/arm-none-eabi/5.2.1/../../../../arm-none-eabi/lib/armv7e-m/fpu\libc.a(lib_a-vfiprintf.o) (__sfvwrite_r)
c:/program files (x86)/gnu tools arm embedded/5.2 2015q4/bin/../lib/gcc/arm-none-eabi/5.2.1/../../../../arm-none-eabi/lib/armv7e-m/fpu\libc.a(lib_a-memmove.o)
                              c:/program files (x86)/gnu tools arm embedded/5.2 2015q4/bin/../lib/gcc/arm-none-eabi/5.2.1/../../../../arm-none-eabi/lib/armv7e-m/fpu\libc.a(lib_a-svfiprintf.o) (memmove)
c:/program files (x86)/gnu tools arm embedded/5.2 2015q4/bin/../lib/gcc/arm-none-eabi/5.2.1/../../../../arm-none-eabi/lib/armv7e-m/fpu\libc.a(lib_a-reallocr.o)
                              c:/program files (x86)/gnu tools arm embedded/5.2 2015q4/bin/../lib/gcc/arm-none-eabi/5.2.1/../../../../arm-none-eabi/lib/armv7e-m/fpu\libc.a(lib_a-svfiprintf.o) (_realloc_r)
c:/program files (x86)/gnu tools arm embedded/5.2 2015q4/bin/../lib/gcc/arm-none-eabi/5.2.1/../../../../arm-none-eabi/lib/armv7e-m/fpu\libc.a(lib_a-wbuf.o)
                              c:/program files (x86)/gnu tools arm embedded/5.2 2015q4/bin/../lib/gcc/arm-none-eabi/5.2.1/../../../../arm-none-eabi/lib/armv7e-m/fpu\libc.a(lib_a-fputwc.o) (__swbuf_r)
c:/program files (x86)/gnu tools arm embedded/5.2 2015q4/bin/../lib/gcc/arm-none-eabi/5.2.1/../../../../arm-none-eabi/lib/armv7e-m/fpu\libc.a(lib_a-wcrtomb.o)
                              c:/program files (x86)/gnu tools arm embedded/5.2 2015q4/bin/../lib/gcc/arm-none-eabi/5.2.1/../../../../arm-none-eabi/lib/armv7e-m/fpu\libc.a(lib_a-fputwc.o) (_wcrtomb_r)
c:/program files (x86)/gnu tools arm embedded/5.2 2015q4/bin/../lib/gcc/arm-none-eabi/5.2.1/../../../../arm-none-eabi/lib/armv7e-m/fpu\libc.a(lib_a-wctomb_r.o)
                              c:/program files (x86)/gnu tools arm embedded/5.2 2015q4/bin/../lib/gcc/arm-none-eabi/5.2.1/../../../../arm-none-eabi/lib/armv7e-m/fpu\libc.a(lib_a-wcrtomb.o) (__wctomb)
c:/program files (x86)/gnu tools arm embedded/5.2 2015q4/bin/../lib/gcc/arm-none-eabi/5.2.1/armv7e-m/fpu\libgcc.a(_arm_fixunsdfsi.o)
                              c:/program files (x86)/gnu tools arm embedded/5.2 2015q4/bin/../lib/gcc/arm-none-eabi/5.2.1/../../../../arm-none-eabi/lib/armv7e-m/fpu\libc.a(lib_a-strtod.o) (__aeabi_d2uiz)
c:/program files (x86)/gnu tools arm embedded/5.2 2015q4/bin/../lib/gcc/arm-none-eabi/5.2.1/armv7e-m/fpu\libgcc.a(_aeabi_uldivmod.o)
                              c:/program files (x86)/gnu tools arm embedded/5.2 2015q4/bin/../lib/gcc/arm-none-eabi/5.2.1/../../../../arm-none-eabi/lib/armv7e-m/fpu\libc.a(lib_a-svfprintf.o) (__aeabi_uldivmod)
c:/program files (x86)/gnu tools arm embedded/5.2 2015q4/bin/../lib/gcc/arm-none-eabi/5.2.1/armv7e-m/fpu\libgcc.a(_udivmoddi4.o)
                              c:/program files (x86)/gnu tools arm embedded/5.2 2015q4/bin/../lib/gcc/arm-none-eabi/5.2.1/armv7e-m/fpu\libgcc.a(_aeabi_uldivmod.o) (__udivmoddi4)
c:/program files (x86)/gnu tools arm embedded/5.2 2015q4/bin/../lib/gcc/arm-none-eabi/5.2.1/armv7e-m/fpu\libgcc.a(_dvmd_tls.o)
                              c:/program files (x86)/gnu tools arm embedded/5.2 2015q4/bin/../lib/gcc/arm-none-eabi/5.2.1/armv7e-m/fpu\libgcc.a(_aeabi_uldivmod.o) (__aeabi_ldiv0)
c:/program files (x86)/gnu tools arm embedded/5.2 2015q4/bin/../lib/gcc/arm-none-eabi/5.2.1/../../../../arm-none-eabi/lib/armv7e-m/fpu\libnosys.a(close.o)
                              c:/program files (x86)/gnu tools arm embedded/5.2 2015q4/bin/../lib/gcc/arm-none-eabi/5.2.1/../../../../arm-none-eabi/lib/armv7e-m/fpu\libc.a(lib_a-closer.o) (_close)
c:/program files (x86)/gnu tools arm embedded/5.2 2015q4/bin/../lib/gcc/arm-none-eabi/5.2.1/../../../../arm-none-eabi/lib/armv7e-m/fpu\libnosys.a(fstat.o)
                              c:/program files (x86)/gnu tools arm embedded/5.2 2015q4/bin/../lib/gcc/arm-none-eabi/5.2.1/../../../../arm-none-eabi/lib/armv7e-m/fpu\libc.a(lib_a-fstatr.o) (_fstat)
c:/program files (x86)/gnu tools arm embedded/5.2 2015q4/bin/../lib/gcc/arm-none-eabi/5.2.1/../../../../arm-none-eabi/lib/armv7e-m/fpu\libnosys.a(isatty.o)
                              c:/program files (x86)/gnu tools arm embedded/5.2 2015q4/bin/../lib/gcc/arm-none-eabi/5.2.1/../../../../arm-none-eabi/lib/armv7e-m/fpu\libc.a(lib_a-isattyr.o) (_isatty)
c:/program files (x86)/gnu tools arm embedded/5.2 2015q4/bin/../lib/gcc/arm-none-eabi/5.2.1/../../../../arm-none-eabi/lib/armv7e-m/fpu\libnosys.a(lseek.o)
                              c:/program files (x86)/gnu tools arm embedded/5.2 2015q4/bin/../lib/gcc/arm-none-eabi/5.2.1/../../../../arm-none-eabi/lib/armv7e-m/fpu\libc.a(lib_a-lseekr.o) (_lseek)
c:/program files (x86)/gnu tools arm embedded/5.2 2015q4/bin/../lib/gcc/arm-none-eabi/5.2.1/../../../../arm-none-eabi/lib/armv7e-m/fpu\libnosys.a(open.o)
                              c:/program files (x86)/gnu tools arm embedded/5.2 2015q4/bin/../lib/gcc/arm-none-eabi/5.2.1/../../../../arm-none-eabi/lib/armv7e-m/fpu\libc.a(lib_a-openr.o) (_open)
c:/program files (x86)/gnu tools arm embedded/5.2 2015q4/bin/../lib/gcc/arm-none-eabi/5.2.1/../../../../arm-none-eabi/lib/armv7e-m/fpu\libnosys.a(read.o)
                              c:/program files (x86)/gnu tools arm embedded/5.2 2015q4/bin/../lib/gcc/arm-none-eabi/5.2.1/../../../../arm-none-eabi/lib/armv7e-m/fpu\libc.a(lib_a-readr.o) (_read)
c:/program files (x86)/gnu tools arm embedded/5.2 2015q4/bin/../lib/gcc/arm-none-eabi/5.2.1/../../../../arm-none-eabi/lib/armv7e-m/fpu\libnosys.a(write.o)
                              c:/program files (x86)/gnu tools arm embedded/5.2 2015q4/bin/../lib/gcc/arm-none-eabi/5.2.1/../../../../arm-none-eabi/lib/armv7e-m/fpu\libc.a(lib_a-writer.o) (_write)
c:/program files (x86)/gnu tools arm embedded/5.2 2015q4/bin/../lib/gcc/arm-none-eabi/5.2.1/../../../../arm-none-eabi/lib/armv7e-m/fpu\libnosys.a(_exit.o)
                              c:/program files (x86)/gnu tools arm embedded/5.2 2015q4/bin/../lib/gcc/arm-none-eabi/5.2.1/../../../../arm-none-eabi/lib/armv7e-m/fpu\libc.a(lib_a-exit.o) (_exit)

Allocating common symbols
Common symbol       size              file

openUSB             0x20              vt3_code/vt3_vars.c.o
writeElogUSB        0x4               vt3_code/vt3_vars.c.o
BYTEK               0x1               vt3_code/vt3_vars.c.o
write_dt_flag_sa    0x2               C:\PROGRA~2\VT3_8920\VT3\RESOUR~1\targets\CANVIEW4\lib\vt3_common\libvt3_common.a(VT3_CAN_debug.o)
m_PendingReq        0x1c              C:\PROGRA~2\VT3_8920\VT3\RESOUR~1\targets\CANVIEW4\lib\lld\libCANView4.a(KWP2000_Light.o)
BYTEM               0x1c              vt3_code/vt3_vars.c.o
RTCRam              0x7fc             C:\PROGRA~2\VT3_8920\VT3\RESOUR~1\targets\CANVIEW4\lib\vt3_runtime\libvt3_runtime.a(VT3_Runtime.o)
BootLoaderNodeID    0x2               C:\PROGRA~2\VT3_8920\VT3\RESOUR~1\targets\CANVIEW4\lib\vt3_common\libvt3_common.a(VT3_CAN_debug.o)
date_time_set       0x8               C:\PROGRA~2\VT3_8920\VT3\RESOUR~1\targets\CANVIEW4\lib\vt3_common\libvt3_common.a(VT3_CAN_debug.o)
hspi2               0x58              C:\PROGRA~2\VT3_8920\VT3\RESOUR~1\targets\CANVIEW4\lib\lld\libCANView4.a(CANView4_HW_lib.o)
BYTEQ               0xe               vt3_code/vt3_vars.c.o
htim8               0x3c              C:\PROGRA~2\VT3_8920\VT3\RESOUR~1\targets\CANVIEW4\lib\lld\libCANView4.a(CANView4_STM_periphs_lib.o)
hspi5               0x58              C:\PROGRA~2\VT3_8920\VT3\RESOUR~1\targets\CANVIEW4\lib\lld\libCANView4.a(CANView4_HW_lib.o)
AGL_lateral         0x2               vt3_code/vt3_vars.c.o
vt3_bytearray_P_warning
                    0x1               vt3_code/vt3_vars.c.o
htim4               0x3c              C:\PROGRA~2\VT3_8920\VT3\RESOUR~1\targets\CANVIEW4\lib\lld\libCANView4.a(CANView4_STM_periphs_lib.o)
HWRevision          0x4               C:\PROGRA~2\VT3_8920\VT3\RESOUR~1\targets\CANVIEW4\lib\vt3_common\libvt3_common.a(VT3_CAN_debug.o)
m_AccessCtr         0x2               C:\PROGRA~2\VT3_8920\VT3\RESOUR~1\targets\CANVIEW4\lib\lld\libCANView4.a(KWP2000_Light.o)
errno               0x4               c:/program files (x86)/gnu tools arm embedded/5.2 2015q4/bin/../lib/gcc/arm-none-eabi/5.2.1/../../../../arm-none-eabi/lib/armv7e-m/fpu\libc.a(lib_a-reent.o)
pCanDebugOn         0x4               C:\PROGRA~2\VT3_8920\VT3\RESOUR~1\targets\CANVIEW4\lib\lld\libCANView4.a(CAN.o)
m_pData             0x4               C:\PROGRA~2\VT3_8920\VT3\RESOUR~1\targets\CANVIEW4\lib\lld\libCANView4.a(CANView4_HW_lib.o)
HWCode              0x4               C:\PROGRA~2\VT3_8920\VT3\RESOUR~1\targets\CANVIEW4\lib\vt3_common\libvt3_common.a(VT3_CAN_debug.o)
g_SysMirror         0x80              C:\PROGRA~2\VT3_8920\VT3\RESOUR~1\targets\CANVIEW4\lib\lld\libCANView4.a(CANView4_Node.o)
m_DwltmpBuff        0x400             C:\PROGRA~2\VT3_8920\VT3\RESOUR~1\targets\CANVIEW4\lib\lld\libCANView4.a(KWP2000_Light.o)
initCOM             0x10              vt3_code/vt3_vars.c.o
readStringUSB       0x10a             vt3_code/vt3_vars.c.o
BYTEE               0x1               vt3_code/vt3_vars.c.o
hi2c1               0x3c              C:\PROGRA~2\VT3_8920\VT3\RESOUR~1\targets\CANVIEW4\lib\lld\libCANView4.a(CANView4_HW_lib.o)
vt3_can_alarm_busoff_CAN_interface
                    0x1               vt3_code/vt3_vars.c.o
resetBufferCOM      0x2               vt3_code/vt3_vars.c.o
AGL_longitudinal    0x2               vt3_code/vt3_vars.c.o
hdma_dcmi           0x58              C:\PROGRA~2\VT3_8920\VT3\RESOUR~1\targets\CANVIEW4\lib\lld\libCANView4.a(CANView4_HW_lib.o)
counters_EN         0x4               C:\PROGRA~2\VT3_8920\VT3\RESOUR~1\targets\CANVIEW4\lib\lld\libCANView4.a(Virtual_TIMs.o)
hdma_spi5_rx        0x58              C:\PROGRA~2\VT3_8920\VT3\RESOUR~1\targets\CANVIEW4\lib\lld\libCANView4.a(stm32f4xx_hal_msp.o)
TIMs_n              0x1               C:\PROGRA~2\VT3_8920\VT3\RESOUR~1\targets\CANVIEW4\lib\lld\libCANView4.a(Virtual_TIMs.o)
MAIN                0x2               vt3_code/vt3_vars.c.o
ind_screen_frame_key_F4
                    0x8               vt3_code/vt3_disp.c.o
BYTEP               0x1ef8            vt3_code/vt3_vars.c.o
ind_screen_frame_keys_backlight
                    0x8               vt3_code/vt3_disp.c.o
g_UpdateSys         0x1               C:\PROGRA~2\VT3_8920\VT3\RESOUR~1\targets\CANVIEW4\lib\lld\libCANView4.a(KWP2000_Light.o)
writeStringUSB      0x10a             vt3_code/vt3_vars.c.o
INIT_byt1           0x1               vt3_code/vt3_vars.c.o
Key_mode            0x1               C:\PROGRA~2\VT3_8920\VT3\RESOUR~1\targets\CANVIEW4\lib\lld\libCANView4.a(CANView4_HW_lib.o)
BYTER               0x7fc             vt3_code/vt3_vars.c.o
Input_IT_State      0x5               C:\PROGRA~2\VT3_8920\VT3\RESOUR~1\targets\CANVIEW4\lib\lld\libCANView4.a(Generic_IO.o)
VTIM_CallBack_funct_ptr
                    0x4               C:\PROGRA~2\VT3_8920\VT3\RESOUR~1\targets\CANVIEW4\lib\lld\libCANView4.a(Virtual_TIMs.o)
command             0x10              C:\PROGRA~2\VT3_8920\VT3\RESOUR~1\targets\CANVIEW4\lib\lld\libCANView4.a(CANView4_HW_lib.o)
vt3_alarm_status    0x2               vt3_code/vt3_alarms.c.o
CanBootloader       0x10              C:\PROGRA~2\VT3_8920\VT3\RESOUR~1\targets\CANVIEW4\lib\lld\libCANView4.a(CAN.o)
EfMD5Table_test     0x200             C:\PROGRA~2\VT3_8920\VT3\RESOUR~1\targets\CANVIEW4\lib\lld\libCANView4.a(CANView4_HW_lib.o)
xQueueRegistry      0x40              C:\PROGRA~2\VT3_8920\VT3\RESOUR~1\targets\CANVIEW4\lib\lld\libCANView4.a(queue.o)
prova               0x32              C:\PROGRA~2\VT3_8920\VT3\RESOUR~1\targets\CANVIEW4\lib\vt3_common\libvt3_common.a(VT3_Draw.o)
RxDataBuff          0xff              C:\PROGRA~2\VT3_8920\VT3\RESOUR~1\targets\CANVIEW4\lib\vt3_runtime\libvt3_runtime.a(VT3_Main.o)
pFlash              0x20              C:\PROGRA~2\VT3_8920\VT3\RESOUR~1\targets\CANVIEW4\lib\lld\libCANView4.a(stm32f4xx_hal_flash.o)
vt3_bytearray_P_error
                    0x1               vt3_code/vt3_vars.c.o
USB_Fs              0x230             C:\PROGRA~2\VT3_8920\VT3\RESOUR~1\targets\CANVIEW4\lib\lld\libCANView4.a(USB_Utilities.o)
m_LocalSeed         0x4               C:\PROGRA~2\VT3_8920\VT3\RESOUR~1\targets\CANVIEW4\lib\lld\libCANView4.a(KWP2000_Light.o)
sFilterConfig1      0x28              C:\PROGRA~2\VT3_8920\VT3\RESOUR~1\targets\CANVIEW4\lib\lld\libCANView4.a(CAN.o)
BYTEF               0x1               vt3_code/vt3_vars.c.o
vt3_alarm_inhibition_bitmask
                    0x2               vt3_code/vt3_vars.c.o
vt3_can_period_Init
                    0x2               vt3_code/vt3_vars.c.o
FWversion           0x8               C:\PROGRA~2\VT3_8920\VT3\RESOUR~1\targets\CANVIEW4\lib\lld\libCANView4.a(CANView4_HW_lib.o)
htim3               0x3c              C:\PROGRA~2\VT3_8920\VT3\RESOUR~1\targets\CANVIEW4\lib\lld\libCANView4.a(CANView4_STM_periphs_lib.o)
CAN_TX_OK           0x1               C:\PROGRA~2\VT3_8920\VT3\RESOUR~1\targets\CANVIEW4\lib\lld\libCANView4.a(CAN.o)
BYTES               0x7               vt3_code/vt3_vars.c.o
SetKeyMode          0x6               vt3_code/vt3_vars.c.o
umountUSB           0x4               vt3_code/vt3_vars.c.o
vt3_can_rx_proc_buff_offs
                    0x2               C:\PROGRA~2\VT3_8920\VT3\RESOUR~1\targets\CANVIEW4\lib\vt3_common\libvt3_common.a(VT3_Runtime_Common.o)
Layer_status        0x8               C:\PROGRA~2\VT3_8920\VT3\RESOUR~1\targets\CANVIEW4\lib\lld\libCANView4.a(Display_Utilities.o)
vt3_screen_union    0xbc              vt3_code/vt3_disp.c.o
hltdc               0x110             C:\PROGRA~2\VT3_8920\VT3\RESOUR~1\targets\CANVIEW4\lib\lld\libCANView4.a(CANView4_HW_lib.o)
m_FrameCtr          0x2               C:\PROGRA~2\VT3_8920\VT3\RESOUR~1\targets\CANVIEW4\lib\lld\libCANView4.a(KWP2000_Light.o)
ind_screen_frame_screen_backlight
                    0x8               vt3_code/vt3_disp.c.o
EfMD5Table          0x200             C:\PROGRA~2\VT3_8920\VT3\RESOUR~1\targets\CANVIEW4\lib\lld\libCANView4.a(CANView4_HW_lib.o)
m_DataSize          0x2               C:\PROGRA~2\VT3_8920\VT3\RESOUR~1\targets\CANVIEW4\lib\lld\libCANView4.a(KWP2000_Light.o)
ind_screen_frame_key_F1
                    0x8               vt3_code/vt3_disp.c.o
vt3_can_alarm_Angle
                    0x1               vt3_code/vt3_vars.c.o
hadc1               0x44              C:\PROGRA~2\VT3_8920\VT3\RESOUR~1\targets\CANVIEW4\lib\lld\libCANView4.a(CANView4_HW_lib.o)
hcan2               0x40              C:\PROGRA~2\VT3_8920\VT3\RESOUR~1\targets\CANVIEW4\lib\lld\libCANView4.a(CANView4_HW_lib.o)
ind_screen_frame_key_F5
                    0x8               vt3_code/vt3_disp.c.o
m_RndSeedW          0x4               C:\PROGRA~2\VT3_8920\VT3\RESOUR~1\targets\CANVIEW4\lib\lld\libCANView4.a(KWP2000_Light.o)
hdcmi               0x40              C:\PROGRA~2\VT3_8920\VT3\RESOUR~1\targets\CANVIEW4\lib\lld\libCANView4.a(CANView4_HW_lib.o)
__buffer_data_start
                    0x0               C:\PROGRA~2\VT3_8920\VT3\RESOUR~1\targets\CANVIEW4\lib\lld\libCANView4.a(KWP2000_Light.o)
FreeHeapSize        0x2               C:\PROGRA~2\VT3_8920\VT3\RESOUR~1\targets\CANVIEW4\lib\lld\libCANView4.a(CANView4_Task_Manager.o)
counters_TH         0x4               C:\PROGRA~2\VT3_8920\VT3\RESOUR~1\targets\CANVIEW4\lib\lld\libCANView4.a(Virtual_TIMs.o)
m_RndSeedZ          0x4               C:\PROGRA~2\VT3_8920\VT3\RESOUR~1\targets\CANVIEW4\lib\lld\libCANView4.a(KWP2000_Light.o)
CAN1_Rx_Flag        0x1               C:\PROGRA~2\VT3_8920\VT3\RESOUR~1\targets\CANVIEW4\lib\lld\libCANView4.a(CANView4_HW_lib.o)
hhcd_USB_OTG_HS     0x298             C:\PROGRA~2\VT3_8920\VT3\RESOUR~1\targets\CANVIEW4\lib\lld\libCANView4.a(usbh_conf.o)
counters            0x4               C:\PROGRA~2\VT3_8920\VT3\RESOUR~1\targets\CANVIEW4\lib\lld\libCANView4.a(Virtual_TIMs.o)
pCanRxOn            0x8               C:\PROGRA~2\VT3_8920\VT3\RESOUR~1\targets\CANVIEW4\lib\lld\libCANView4.a(CAN.o)
vt3_task_run_time_video_task
                    0x4               vt3_code/vt3_vars.c.o
vt3_task_run_time_CAN_bus_task
                    0x4               vt3_code/vt3_vars.c.o
ExtFlash_Header     0xc               C:\PROGRA~2\VT3_8920\VT3\RESOUR~1\targets\CANVIEW4\lib\lld\libCANView4.a(CANView4_Mem_EXT_FLASH.o)
ind_screen_frame_key_F2
                    0x8               vt3_code/vt3_disp.c.o
writeStringCOM      0x3c              vt3_code/vt3_vars.c.o
FreeStackSize       0x2               C:\PROGRA~2\VT3_8920\VT3\RESOUR~1\targets\CANVIEW4\lib\lld\libCANView4.a(CANView4_HW_lib.o)
Secure_Shutdown     0x1               C:\PROGRA~2\VT3_8920\VT3\RESOUR~1\targets\CANVIEW4\lib\lld\libCANView4.a(CANView4_HW_lib.o)
hrtc                0x20              C:\PROGRA~2\VT3_8920\VT3\RESOUR~1\targets\CANVIEW4\lib\lld\libCANView4.a(CANView4_HW_lib.o)
HWSerial            0x4               C:\PROGRA~2\VT3_8920\VT3\RESOUR~1\targets\CANVIEW4\lib\vt3_common\libvt3_common.a(VT3_CAN_debug.o)
m_DwlBuff_decompressed
                    0x801             C:\PROGRA~2\VT3_8920\VT3\RESOUR~1\targets\CANVIEW4\lib\lld\libCANView4.a(KWP2000_Light.o)
hdma_spi5_tx        0x58              C:\PROGRA~2\VT3_8920\VT3\RESOUR~1\targets\CANVIEW4\lib\lld\libCANView4.a(stm32f4xx_hal_msp.o)
vt3_task_run_time_MAIN
                    0x4               vt3_code/vt3_vars.c.o
ForceUpdate         0x4               vt3_code/vt3_vars.c.o
m_bNewMsg           0x1               C:\PROGRA~2\VT3_8920\VT3\RESOUR~1\targets\CANVIEW4\lib\lld\libCANView4.a(KWP2000_Light.o)
vt3_bytearray_R_warning
                    0x1               vt3_code/vt3_vars.c.o
vt3_can_trigger_Init
                    0x1               vt3_code/vt3_vars.c.o
end_frame_sync      0x1               C:\PROGRA~2\VT3_8920\VT3\RESOUR~1\targets\CANVIEW4\lib\lld\libCANView4.a(Camera.o)
writeByteCOM        0x36              vt3_code/vt3_vars.c.o
m_bSecurityAcc      0x1               C:\PROGRA~2\VT3_8920\VT3\RESOUR~1\targets\CANVIEW4\lib\lld\libCANView4.a(KWP2000_Light.o)
htim1               0x3c              C:\PROGRA~2\VT3_8920\VT3\RESOUR~1\targets\CANVIEW4\lib\lld\libCANView4.a(CANView4_STM_periphs_lib.o)
closeUSB            0x4               vt3_code/vt3_vars.c.o
ui16SPANSIONTimerMS
                    0x2               C:\PROGRA~2\VT3_8920\VT3\RESOUR~1\targets\CANVIEW4\lib\lld\libCANView4.a(Spansion_128Mb.o)
mountUSB            0x4               vt3_code/vt3_vars.c.o
TasksStack          0x14              C:\PROGRA~2\VT3_8920\VT3\RESOUR~1\targets\CANVIEW4\lib\lld\libCANView4.a(CANView4_Task_Manager.o)
m_DwlBuff           0x801             C:\PROGRA~2\VT3_8920\VT3\RESOUR~1\targets\CANVIEW4\lib\lld\libCANView4.a(KWP2000_Light.o)
vt3_language        0x2               vt3_code/vt3_vars.c.o
EfMD5Table_status   0x20              C:\PROGRA~2\VT3_8920\VT3\RESOUR~1\targets\CANVIEW4\lib\lld\libCANView4.a(CANView4_HW_lib.o)
readStringCOM       0x108             vt3_code/vt3_vars.c.o
vt3_force_values    0xe               vt3_code/vt3_IO.c.o
Input_State         0x5               C:\PROGRA~2\VT3_8920\VT3\RESOUR~1\targets\CANVIEW4\lib\lld\libCANView4.a(Generic_IO.o)
hUsbHostHS          0x3d0             C:\PROGRA~2\VT3_8920\VT3\RESOUR~1\targets\CANVIEW4\lib\lld\libCANView4.a(usb_host.o)
ind_screen_frame_key_F3
                    0x8               vt3_code/vt3_disp.c.o
INIT_byt2           0x1               vt3_code/vt3_vars.c.o
hdma2d              0x40              C:\PROGRA~2\VT3_8920\VT3\RESOUR~1\targets\CANVIEW4\lib\lld\libCANView4.a(CANView4_HW_lib.o)
BYTEI               0x1c              vt3_code/vt3_vars.c.o
m_bUpdateLoader     0x1               C:\PROGRA~2\VT3_8920\VT3\RESOUR~1\targets\CANVIEW4\lib\lld\libCANView4.a(KWP2000_Light.o)
vt3_elog_communication_status
                    0x18              vt3_code/vt3_alarms.c.o
htim2               0x3c              C:\PROGRA~2\VT3_8920\VT3\RESOUR~1\targets\CANVIEW4\lib\lld\libCANView4.a(CANView4_STM_periphs_lib.o)
vt3_can_period_Sync
                    0x2               vt3_code/vt3_vars.c.o
vt3_can_trigger_Sync
                    0x1               vt3_code/vt3_vars.c.o
vt3_screen          0x2               vt3_code/vt3_vars.c.o
j1939_MultiPacket_tx_timeout
                    0x2               C:\PROGRA~2\VT3_8920\VT3\RESOUR~1\targets\CANVIEW4\lib\vt3_common\libvt3_common.a(VT3_CAN_debug.o)
huart2              0x40              C:\PROGRA~2\VT3_8920\VT3\RESOUR~1\targets\CANVIEW4\lib\lld\libCANView4.a(CANView4_HW_lib.o)
vt3_devices_alarm_status
                    0xc               vt3_code/vt3_alarms.c.o
PowerOff            0x4               vt3_code/vt3_vars.c.o
vt3_bytearray_R_error
                    0x1               vt3_code/vt3_vars.c.o
hcan1               0x40              C:\PROGRA~2\VT3_8920\VT3\RESOUR~1\targets\CANVIEW4\lib\lld\libCANView4.a(CANView4_HW_lib.o)
Buffer1             0x4               C:\PROGRA~2\VT3_8920\VT3\RESOUR~1\targets\CANVIEW4\lib\lld\libCANView4.a(Camera.o)
RX_buffer           0x1               C:\PROGRA~2\VT3_8920\VT3\RESOUR~1\targets\CANVIEW4\lib\lld\libCANView4.a(RS232.o)
hsdram1             0x34              C:\PROGRA~2\VT3_8920\VT3\RESOUR~1\targets\CANVIEW4\lib\lld\libCANView4.a(CANView4_HW_lib.o)
ui16KWP2000Timer    0x2               C:\PROGRA~2\VT3_8920\VT3\RESOUR~1\targets\CANVIEW4\lib\lld\libCANView4.a(KWP2000_Light.o)
USBH_Path           0x4               C:\PROGRA~2\VT3_8920\VT3\RESOUR~1\targets\CANVIEW4\lib\lld\libCANView4.a(fatfs.o)
camera_setup_count  0x1               C:\PROGRA~2\VT3_8920\VT3\RESOUR~1\targets\CANVIEW4\lib\vt3_runtime\libvt3_runtime.a(VT3_Runtime.o)
CAN2_Rx_Flag        0x1               C:\PROGRA~2\VT3_8920\VT3\RESOUR~1\targets\CANVIEW4\lib\lld\libCANView4.a(CANView4_HW_lib.o)
m_LoaderSize        0x2               C:\PROGRA~2\VT3_8920\VT3\RESOUR~1\targets\CANVIEW4\lib\lld\libCANView4.a(KWP2000_Light.o)
Buffer2             0x4               C:\PROGRA~2\VT3_8920\VT3\RESOUR~1\targets\CANVIEW4\lib\lld\libCANView4.a(Camera.o)
vt3_force_flags     0x7               vt3_code/vt3_IO.c.o
graph_taskid        0x1               C:\PROGRA~2\VT3_8920\VT3\RESOUR~1\targets\CANVIEW4\lib\vt3_runtime\libvt3_runtime.a(VT3_Main.o)
sFilterConfig2      0x28              C:\PROGRA~2\VT3_8920\VT3\RESOUR~1\targets\CANVIEW4\lib\lld\libCANView4.a(CAN.o)
CanWinscope         0x20              C:\PROGRA~2\VT3_8920\VT3\RESOUR~1\targets\CANVIEW4\lib\lld\libCANView4.a(CAN.o)
readByteCOM         0x104             vt3_code/vt3_vars.c.o
status              0x1               C:\PROGRA~2\VT3_8920\VT3\RESOUR~1\targets\CANVIEW4\lib\lld\libCANView4.a(Camera.o)
retUSBH             0x1               C:\PROGRA~2\VT3_8920\VT3\RESOUR~1\targets\CANVIEW4\lib\lld\libCANView4.a(fatfs.o)
Mem_ID_List         0x2               C:\PROGRA~2\VT3_8920\VT3\RESOUR~1\targets\CANVIEW4\lib\lld\libCANView4.a(KWP2000_Light.o)
Mem_ID_Numbrer      0x1               C:\PROGRA~2\VT3_8920\VT3\RESOUR~1\targets\CANVIEW4\lib\lld\libCANView4.a(KWP2000_Light.o)
ind_screen_frame_buzzer
                    0x8               vt3_code/vt3_disp.c.o

Memory Configuration

Name             Origin             Length             Attributes
FLASH_ISR        0x08010000         0x000001b0         xr
VERSION          0x080101b0         0x00000008         xr
FLASH            0x080101b8         0x001dbe48         xr
RAM              0x20000010         0x0002fff0         xrw
GRAM             0xc0000000         0x00300000         xrw
VT3_EXT_RAM      0xc0300000         0x00100000         xrw
IRAM             0xc0400000         0x00800000         xr
CCMRAM           0x10000000         0x00010000         rw
*default*        0x00000000         0xffffffff

Linker script and memory map

LOAD c:/program files (x86)/gnu tools arm embedded/5.2 2015q4/bin/../lib/gcc/arm-none-eabi/5.2.1/armv7e-m/fpu/crti.o
LOAD c:/program files (x86)/gnu tools arm embedded/5.2 2015q4/bin/../lib/gcc/arm-none-eabi/5.2.1/armv7e-m/fpu/crtbegin.o
LOAD c:/program files (x86)/gnu tools arm embedded/5.2 2015q4/bin/../lib/gcc/arm-none-eabi/5.2.1/../../../../arm-none-eabi/lib/armv7e-m/fpu/crt0.o
LOAD C:\PROGRA~2\VT3_8920\VT3\RESOUR~1\targets\CANVIEW4\lib\\lld\sysmem.o
LOAD vt3_code/vt3_lang.c.o
LOAD vt3_code/vt3_IO.c.o
LOAD vt3_code/vt3_disp.c.o
LOAD vt3_code/vt3_disp_events.c.o
LOAD vt3_code/vt3_alarms.c.o
LOAD vt3_code/vt3_signature.c.o
LOAD vt3_code/vt3_images.c.o
LOAD vt3_code/vt3_Font__RobotoBold36.c.o
LOAD vt3_code/vt3_Font__RobotoBold49.c.o
LOAD vt3_code/vt3_POU__MAIN.c.o
LOAD vt3_code/vt3_POU__global_data.c.o
LOAD vt3_code/vt3_POU__key_data.c.o
LOAD vt3_code/vt3_POU_common.c.o
LOAD vt3_code/vt3_vars.c.o
LOAD vt3_code/vt3_var_version.c.o
LOAD vt3_code/vt3_init_persistent_p_array.c.o
LOAD vt3_code/vt3_init_persistent_r_array.c.o
LOAD vt3_code/vt3_init_persistent_f_array.c.o
LOAD vt3_code/vt3_CAN__CanInterface.c.o
LOAD vt3_code/vt3_CAN_common.c.o
LOAD extra/vt3_extra.c.o
LOAD __OBJE~1/vt3_extra.c.o
LOAD __OBJE~1/vt3_POU__closeUSB.c.o
LOAD __OBJE~1/vt3_POU__DATA_ARRAY_255.c.o
LOAD __OBJE~1/vt3_POU__DATA_ARRAY_50.c.o
LOAD __OBJE~1/vt3_POU__ENUM_KEY_MODE.c.o
LOAD __OBJE~1/vt3_POU__ENUM_MODE_ERR.c.o
LOAD __OBJE~1/vt3_POU__ENUM_OPEN_FILE.c.o
LOAD __OBJE~1/vt3_POU__ENUM_PARITY.c.o
LOAD __OBJE~1/vt3_POU__ENUM_UART_ERR.c.o
LOAD __OBJE~1/vt3_POU__ENUM_UPDATE.c.o
LOAD __OBJE~1/vt3_POU__ENUM_USB_ERR.c.o
LOAD __OBJE~1/vt3_POU__ForceUpdate.c.o
LOAD __OBJE~1/vt3_POU__initCOM.c.o
LOAD __OBJE~1/vt3_POU__mountUSB.c.o
LOAD __OBJE~1/vt3_POU__openUSB.c.o
LOAD __OBJE~1/vt3_POU__PowerOff.c.o
LOAD __OBJE~1/vt3_POU__readByteCOM.c.o
LOAD __OBJE~1/vt3_POU__readStringCOM.c.o
LOAD __OBJE~1/vt3_POU__readStringUSB.c.o
LOAD __OBJE~1/vt3_POU__resetBufferCOM.c.o
LOAD __OBJE~1/vt3_POU__SetKeyMode.c.o
LOAD __OBJE~1/vt3_POU__umountUSB.c.o
LOAD __OBJE~1/vt3_POU__writeByteCOM.c.o
LOAD __OBJE~1/vt3_POU__writeElogUSB.c.o
LOAD __OBJE~1/vt3_POU__writeStringCOM.c.o
LOAD __OBJE~1/vt3_POU__writeStringUSB.c.o
LOAD C:\PROGRA~2\VT3_8920\VT3\RESOUR~1\targets\CANVIEW4\lib\vt3_runtime\libvt3_runtime.a
LOAD C:\PROGRA~2\VT3_8920\VT3\RESOUR~1\targets\CANVIEW4\lib\vt3_common\libvt3_common.a
LOAD C:\PROGRA~2\VT3_8920\VT3\RESOUR~1\targets\CANVIEW4\lib\lld\libCANView4.a
LOAD c:/program files (x86)/gnu tools arm embedded/5.2 2015q4/bin/../lib/gcc/arm-none-eabi/5.2.1/../../../../arm-none-eabi/lib/armv7e-m/fpu\libm.a
START GROUP
LOAD c:/program files (x86)/gnu tools arm embedded/5.2 2015q4/bin/../lib/gcc/arm-none-eabi/5.2.1/armv7e-m/fpu\libgcc.a
LOAD c:/program files (x86)/gnu tools arm embedded/5.2 2015q4/bin/../lib/gcc/arm-none-eabi/5.2.1/../../../../arm-none-eabi/lib/armv7e-m/fpu\libc.a
END GROUP
START GROUP
LOAD c:/program files (x86)/gnu tools arm embedded/5.2 2015q4/bin/../lib/gcc/arm-none-eabi/5.2.1/armv7e-m/fpu\libgcc.a
LOAD c:/program files (x86)/gnu tools arm embedded/5.2 2015q4/bin/../lib/gcc/arm-none-eabi/5.2.1/../../../../arm-none-eabi/lib/armv7e-m/fpu\libc.a
LOAD c:/program files (x86)/gnu tools arm embedded/5.2 2015q4/bin/../lib/gcc/arm-none-eabi/5.2.1/../../../../arm-none-eabi/lib/armv7e-m/fpu\libnosys.a
END GROUP
LOAD c:/program files (x86)/gnu tools arm embedded/5.2 2015q4/bin/../lib/gcc/arm-none-eabi/5.2.1/armv7e-m/fpu/crtend.o
LOAD c:/program files (x86)/gnu tools arm embedded/5.2 2015q4/bin/../lib/gcc/arm-none-eabi/5.2.1/armv7e-m/fpu/crtn.o
                0x20030000                _estack = 0x20030000
                0x00000200                _Min_Heap_Size = 0x200
                0x00000400                _Min_Stack_Size = 0x400

.isr_vector     0x08010000      0x1ac
                0x08010000                . = ALIGN (0x4)
 *(.isr_vector)
 .isr_vector    0x08010000      0x1ac C:\PROGRA~2\VT3_8920\VT3\RESOUR~1\targets\CANVIEW4\lib\lld\libCANView4.a(startup_stm32f429xx.o)
                0x08010000                g_pfnVectors
                0x080101ac                . = ALIGN (0x4)

.version_vector
                0x080101b0        0x8
                0x080101b0                . = ALIGN (0x4)
 *(.version_vector)
 .version_vector
                0x080101b0        0x8 C:\PROGRA~2\VT3_8920\VT3\RESOUR~1\targets\CANVIEW4\lib\lld\libCANView4.a(CANView4_HW_lib.o)
                0x080101b0                FW_version
 *(.version_vector*)
                0x080101b8                . = ALIGN (0x4)

.vt3_ext_RAM_vector
                0xc0300000        0x0
                0xc0300000                . = ALIGN (0x4)
 *(.vt3_ext_RAM_vector)
 *(.vt3_ext_RAM_vector*)
                0xc0300000                . = ALIGN (0x4)

.text           0x080101c0    0x68df8
                0x080101c0                . = ALIGN (0x4)
 *(.text)
 .text          0x080101c0        0x0 c:/program files (x86)/gnu tools arm embedded/5.2 2015q4/bin/../lib/gcc/arm-none-eabi/5.2.1/armv7e-m/fpu/crti.o
 .text          0x080101c0       0xa4 c:/program files (x86)/gnu tools arm embedded/5.2 2015q4/bin/../lib/gcc/arm-none-eabi/5.2.1/armv7e-m/fpu/crtbegin.o
 .text          0x08010264       0x74 c:/program files (x86)/gnu tools arm embedded/5.2 2015q4/bin/../lib/gcc/arm-none-eabi/5.2.1/../../../../arm-none-eabi/lib/armv7e-m/fpu/crt0.o
                0x08010264                _start
                0x08010264                _mainCRTStartup
 .text          0x080102d8       0x58 C:\PROGRA~2\VT3_8920\VT3\RESOUR~1\targets\CANVIEW4\lib\\lld\sysmem.o
                0x080102d8                _sbrk
 .text          0x08010330       0x20 vt3_code/vt3_lang.c.o
                0x08010330                TRANSLATE
 .text          0x08010350       0x34 vt3_code/vt3_IO.c.o
                0x08010350                vt3_IO_init
                0x08010374                vt3_IO_cycle
 .text          0x08010384      0x2f0 vt3_code/vt3_disp.c.o
                0x08010384                vt3_init_ind_Main
                0x080103bc                vt3_draw_ind_Main
                0x08010438                vt3_init_ind_screen_frame
                0x08010470                vt3_draw_ind_screen_frame
                0x080104fc                vt3_init_ind_Splash
                0x08010534                vt3_draw_ind_Splash
                0x080105cc                vt3_disp_init
                0x08010600                vt3_disp_draw
 .text          0x08010674      0x2cc vt3_code/vt3_disp_events.c.o
                0x08010674                vt3_event_ind_Main
                0x0801068c                vt3_event_ind_Main_simple_text
                0x080106b0                vt3_event_ind_Main_simple_text_2
                0x080106d4                vt3_event_ind_Main_multibitmap
                0x080106fc                vt3_event_ind_Main_multibitmap_2
                0x08010724                vt3_event_ind_Main_number
                0x0801074c                vt3_event_ind_Main_number_2
                0x08010774                vt3_event_ind_screen_frame
                0x0801078c                vt3_event_ind_screen_frame_key_F1
                0x080107d0                vt3_event_ind_screen_frame_key_F2
                0x08010814                vt3_event_ind_screen_frame_key_F3
                0x08010858                vt3_event_ind_screen_frame_key_F4
                0x0801089c                vt3_event_ind_screen_frame_key_F5
                0x080108e0                vt3_event_ind_screen_frame_screen_backlight
                0x08010908                vt3_event_ind_Splash
                0x08010920                vt3_event_ind_Splash_multibitmap
 .text          0x08010940        0x0 vt3_code/vt3_alarms.c.o
 .text          0x08010940        0x0 vt3_code/vt3_signature.c.o
 .text          0x08010940        0x0 vt3_code/vt3_images.c.o
 .text          0x08010940        0x0 vt3_code/vt3_Font__RobotoBold36.c.o
 .text          0x08010940        0x0 vt3_code/vt3_Font__RobotoBold49.c.o
 .text          0x08010940      0x1e4 vt3_code/vt3_POU__MAIN.c.o
                0x08010940                MAIN__init
                0x08010adc                MAIN__call
 .text          0x08010b24       0x38 vt3_code/vt3_POU__global_data.c.o
                0x08010b24                global_data__init
 .text          0x08010b5c       0x38 vt3_code/vt3_POU__key_data.c.o
                0x08010b5c                key_data__init
 .text          0x08010b94       0x80 vt3_code/vt3_POU_common.c.o
                0x08010ba4                vt3_idle_task
                0x08010bb4                vt3_init_all_pous
 .text          0x08010c14        0x0 vt3_code/vt3_vars.c.o
 .text          0x08010c14        0x0 vt3_code/vt3_var_version.c.o
 .text          0x08010c14       0x48 vt3_code/vt3_init_persistent_p_array.c.o
                0x08010c14                initialize_bytearray_P
 .text          0x08010c5c       0x48 vt3_code/vt3_init_persistent_r_array.c.o
                0x08010c5c                initialize_bytearray_R
 .text          0x08010ca4       0x48 vt3_code/vt3_init_persistent_f_array.c.o
                0x08010ca4                initialize_bytearray_F
 .text          0x08010cec      0x254 vt3_code/vt3_CAN__CanInterface.c.o
                0x08010d54                vt3_can_CanInterface_init
                0x08010dec                vt3_can_CanInterface_rx
                0x08010e48                vt3_can_CanInterface_tx
 .text          0x08010f40       0x24 vt3_code/vt3_CAN_common.c.o
                0x08010f40                vt3_can_init
                0x08010f4c                vt3_can_rx
                0x08010f58                vt3_can_tx
 .text          0x08010f64        0x0 extra/vt3_extra.c.o
 .text          0x08010f64        0x0 __OBJE~1/vt3_extra.c.o
 .text          0x08010f64       0x78 __OBJE~1/vt3_POU__closeUSB.c.o
                0x08010f64                closeUSB__init
                0x08010fb0                closeUSB__call
 .text          0x08010fdc        0x0 __OBJE~1/vt3_POU__DATA_ARRAY_255.c.o
 .text          0x08010fdc        0x0 __OBJE~1/vt3_POU__DATA_ARRAY_50.c.o
 .text          0x08010fdc        0x0 __OBJE~1/vt3_POU__ENUM_KEY_MODE.c.o
 .text          0x08010fdc        0x0 __OBJE~1/vt3_POU__ENUM_MODE_ERR.c.o
 .text          0x08010fdc        0x0 __OBJE~1/vt3_POU__ENUM_OPEN_FILE.c.o
 .text          0x08010fdc        0x0 __OBJE~1/vt3_POU__ENUM_PARITY.c.o
 .text          0x08010fdc        0x0 __OBJE~1/vt3_POU__ENUM_UART_ERR.c.o
 .text          0x08010fdc        0x0 __OBJE~1/vt3_POU__ENUM_UPDATE.c.o
 .text          0x08010fdc        0x0 __OBJE~1/vt3_POU__ENUM_USB_ERR.c.o
 .text          0x08010fdc       0x78 __OBJE~1/vt3_POU__ForceUpdate.c.o
                0x08010fdc                ForceUpdate__init
                0x08011028                ForceUpdate__call
 .text          0x08011054       0x88 __OBJE~1/vt3_POU__initCOM.c.o
                0x08011054                initCOM__init
                0x080110a0                initCOM__call
 .text          0x080110dc       0x78 __OBJE~1/vt3_POU__mountUSB.c.o
                0x080110dc                mountUSB__init
                0x08011128                mountUSB__call
 .text          0x08011154       0x84 __OBJE~1/vt3_POU__openUSB.c.o
                0x08011154                openUSB__init
                0x080111a0                openUSB__call
 .text          0x080111d8       0x78 __OBJE~1/vt3_POU__PowerOff.c.o
                0x080111d8                PowerOff__init
                0x08011224                PowerOff__call
 .text          0x08011250       0xe0 __OBJE~1/vt3_POU__readByteCOM.c.o
                0x08011250                readByteCOM__init
                0x0801129c                readByteCOM__call
 .text          0x08011330       0xe8 __OBJE~1/vt3_POU__readStringCOM.c.o
                0x08011330                readStringCOM__init
                0x0801137c                readStringCOM__call
 .text          0x08011418       0xe8 __OBJE~1/vt3_POU__readStringUSB.c.o
                0x08011418                readStringUSB__init
                0x08011464                readStringUSB__call
 .text          0x08011500       0xac __OBJE~1/vt3_POU__resetBufferCOM.c.o
                0x08011500                resetBufferCOM__init
                0x0801154c                resetBufferCOM__call
 .text          0x080115ac       0x80 __OBJE~1/vt3_POU__SetKeyMode.c.o
                0x080115ac                SetKeyMode__init
                0x080115f8                SetKeyMode__call
 .text          0x0801162c       0x78 __OBJE~1/vt3_POU__umountUSB.c.o
                0x0801162c                umountUSB__init
                0x08011678                umountUSB__call
 .text          0x080116a4       0x80 __OBJE~1/vt3_POU__writeByteCOM.c.o
                0x080116a4                writeByteCOM__init
                0x080116f0                writeByteCOM__call
 .text          0x08011724       0x78 __OBJE~1/vt3_POU__writeElogUSB.c.o
                0x08011724                writeElogUSB__init
                0x08011770                writeElogUSB__call
 .text          0x0801179c       0x84 __OBJE~1/vt3_POU__writeStringCOM.c.o
                0x0801179c                writeStringCOM__init
                0x080117e8                writeStringCOM__call
 .text          0x08011820       0xc0 __OBJE~1/vt3_POU__writeStringUSB.c.o
                0x08011820                writeStringUSB__init
                0x0801186c                writeStringUSB__call
 .text          0x080118e0        0x0 C:\PROGRA~2\VT3_8920\VT3\RESOUR~1\targets\CANVIEW4\lib\vt3_runtime\libvt3_runtime.a(VT3_Main.o)
 .text          0x080118e0        0x0 C:\PROGRA~2\VT3_8920\VT3\RESOUR~1\targets\CANVIEW4\lib\vt3_runtime\libvt3_runtime.a(VT3_Runtime.o)
 .text          0x080118e0        0x0 C:\PROGRA~2\VT3_8920\VT3\RESOUR~1\targets\CANVIEW4\lib\vt3_runtime\libvt3_runtime.a(VT3_Cycle100.o)
 .text          0x080118e0        0x0 C:\PROGRA~2\VT3_8920\VT3\RESOUR~1\targets\CANVIEW4\lib\vt3_runtime\libvt3_runtime.a(VT3_Cycle20.o)
 .text          0x080118e0        0x0 C:\PROGRA~2\VT3_8920\VT3\RESOUR~1\targets\CANVIEW4\lib\vt3_common\libvt3_common.a(IEC_Lib.o)
 .text          0x080118e0        0x0 C:\PROGRA~2\VT3_8920\VT3\RESOUR~1\targets\CANVIEW4\lib\vt3_common\libvt3_common.a(VT3_CAN_debug.o)
 .text          0x080118e0        0x0 C:\PROGRA~2\VT3_8920\VT3\RESOUR~1\targets\CANVIEW4\lib\vt3_common\libvt3_common.a(VT3_Draw.o)
 .text          0x080118e0        0x0 C:\PROGRA~2\VT3_8920\VT3\RESOUR~1\targets\CANVIEW4\lib\vt3_common\libvt3_common.a(VT3_Runtime_Common.o)
 .text          0x080118e0        0x0 C:\PROGRA~2\VT3_8920\VT3\RESOUR~1\targets\CANVIEW4\lib\vt3_common\libvt3_common.a(VT3_elog.o)
 .text          0x080118e0       0x14 C:\PROGRA~2\VT3_8920\VT3\RESOUR~1\targets\CANVIEW4\lib\lld\libCANView4.a(startup_stm32f429xx.o)
 .text          0x080118f4        0x0 C:\PROGRA~2\VT3_8920\VT3\RESOUR~1\targets\CANVIEW4\lib\lld\libCANView4.a(stm32f4xx_it.o)
 .text          0x080118f4        0x0 C:\PROGRA~2\VT3_8920\VT3\RESOUR~1\targets\CANVIEW4\lib\lld\libCANView4.a(usbh_conf.o)
 .text          0x080118f4        0x0 C:\PROGRA~2\VT3_8920\VT3\RESOUR~1\targets\CANVIEW4\lib\lld\libCANView4.a(system_stm32f4xx.o)
 .text          0x080118f4        0x0 C:\PROGRA~2\VT3_8920\VT3\RESOUR~1\targets\CANVIEW4\lib\lld\libCANView4.a(stm32f4xx_hal.o)
 .text          0x080118f4        0x0 C:\PROGRA~2\VT3_8920\VT3\RESOUR~1\targets\CANVIEW4\lib\lld\libCANView4.a(stm32f4xx_hal_cortex.o)
 .text          0x080118f4        0x0 C:\PROGRA~2\VT3_8920\VT3\RESOUR~1\targets\CANVIEW4\lib\lld\libCANView4.a(stm32f4xx_hal_dcmi.o)
 .text          0x080118f4        0x0 C:\PROGRA~2\VT3_8920\VT3\RESOUR~1\targets\CANVIEW4\lib\lld\libCANView4.a(stm32f4xx_hal_dma.o)
 .text          0x080118f4        0x0 C:\PROGRA~2\VT3_8920\VT3\RESOUR~1\targets\CANVIEW4\lib\lld\libCANView4.a(stm32f4xx_hal_dma_ex.o)
 .text          0x080118f4        0x0 C:\PROGRA~2\VT3_8920\VT3\RESOUR~1\targets\CANVIEW4\lib\lld\libCANView4.a(stm32f4xx_hal_gpio.o)
 .text          0x080118f4        0x0 C:\PROGRA~2\VT3_8920\VT3\RESOUR~1\targets\CANVIEW4\lib\lld\libCANView4.a(stm32f4xx_hal_hcd.o)
 .text          0x080118f4        0x0 C:\PROGRA~2\VT3_8920\VT3\RESOUR~1\targets\CANVIEW4\lib\lld\libCANView4.a(stm32f4xx_hal_rcc.o)
 .text          0x080118f4        0x0 C:\PROGRA~2\VT3_8920\VT3\RESOUR~1\targets\CANVIEW4\lib\lld\libCANView4.a(stm32f4xx_hal_tim.o)
 .text          0x080118f4        0x0 C:\PROGRA~2\VT3_8920\VT3\RESOUR~1\targets\CANVIEW4\lib\lld\libCANView4.a(stm32f4xx_hal_tim_ex.o)
 .text          0x080118f4        0x0 C:\PROGRA~2\VT3_8920\VT3\RESOUR~1\targets\CANVIEW4\lib\lld\libCANView4.a(stm32f4xx_hal_uart.o)
 .text          0x080118f4        0x0 C:\PROGRA~2\VT3_8920\VT3\RESOUR~1\targets\CANVIEW4\lib\lld\libCANView4.a(stm32f4xx_ll_usb.o)
 .text          0x080118f4        0x0 C:\PROGRA~2\VT3_8920\VT3\RESOUR~1\targets\CANVIEW4\lib\lld\libCANView4.a(CRC16.o)
 .text          0x080118f4        0x0 C:\PROGRA~2\VT3_8920\VT3\RESOUR~1\targets\CANVIEW4\lib\lld\libCANView4.a(Camera.o)
 .text          0x080118f4        0x0 C:\PROGRA~2\VT3_8920\VT3\RESOUR~1\targets\CANVIEW4\lib\lld\libCANView4.a(CANView4_Event_Log.o)
 .text          0x080118f4        0x0 C:\PROGRA~2\VT3_8920\VT3\RESOUR~1\targets\CANVIEW4\lib\lld\libCANView4.a(CANView4_HW_lib.o)
 .text          0x080118f4        0x0 C:\PROGRA~2\VT3_8920\VT3\RESOUR~1\targets\CANVIEW4\lib\lld\libCANView4.a(CANView4_Mem_EEPROM.o)
 .text          0x080118f4        0x0 C:\PROGRA~2\VT3_8920\VT3\RESOUR~1\targets\CANVIEW4\lib\lld\libCANView4.a(CANView4_Mem_EXT_FLASH.o)
 .text          0x080118f4        0x0 C:\PROGRA~2\VT3_8920\VT3\RESOUR~1\targets\CANVIEW4\lib\lld\libCANView4.a(CANView4_Node.o)
 .text          0x080118f4        0x0 C:\PROGRA~2\VT3_8920\VT3\RESOUR~1\targets\CANVIEW4\lib\lld\libCANView4.a(CANView4_STM_periphs_lib.o)
 .text          0x080118f4        0x0 C:\PROGRA~2\VT3_8920\VT3\RESOUR~1\targets\CANVIEW4\lib\lld\libCANView4.a(CANView4_Task_Manager.o)
 .text          0x080118f4        0x0 C:\PROGRA~2\VT3_8920\VT3\RESOUR~1\targets\CANVIEW4\lib\lld\libCANView4.a(KWP2000_Light.o)
 .text          0x080118f4        0x0 C:\PROGRA~2\VT3_8920\VT3\RESOUR~1\targets\CANVIEW4\lib\lld\libCANView4.a(Virtual_TIMs.o)
 .text          0x080118f4        0x0 C:\PROGRA~2\VT3_8920\VT3\RESOUR~1\targets\CANVIEW4\lib\lld\libCANView4.a(Display_Utilities.o)
 .text          0x080118f4        0x0 C:\PROGRA~2\VT3_8920\VT3\RESOUR~1\targets\CANVIEW4\lib\lld\libCANView4.a(Display_lib.o)
 .text          0x080118f4        0x0 C:\PROGRA~2\VT3_8920\VT3\RESOUR~1\targets\CANVIEW4\lib\lld\libCANView4.a(eeprom.o)
 .text          0x080118f4        0x0 C:\PROGRA~2\VT3_8920\VT3\RESOUR~1\targets\CANVIEW4\lib\lld\libCANView4.a(Spansion_128Mb.o)
 .text          0x080118f4        0x0 C:\PROGRA~2\VT3_8920\VT3\RESOUR~1\targets\CANVIEW4\lib\lld\libCANView4.a(CAN.o)
 .text          0x080118f4        0x0 C:\PROGRA~2\VT3_8920\VT3\RESOUR~1\targets\CANVIEW4\lib\lld\libCANView4.a(Generic_IO.o)
 .text          0x080118f4        0x0 C:\PROGRA~2\VT3_8920\VT3\RESOUR~1\targets\CANVIEW4\lib\lld\libCANView4.a(RS232.o)
 .text          0x080118f4        0x0 C:\PROGRA~2\VT3_8920\VT3\RESOUR~1\targets\CANVIEW4\lib\lld\libCANView4.a(MD5.o)
 .text          0x080118f4        0x0 C:\PROGRA~2\VT3_8920\VT3\RESOUR~1\targets\CANVIEW4\lib\lld\libCANView4.a(RTC.o)
 .text          0x080118f4        0x0 C:\PROGRA~2\VT3_8920\VT3\RESOUR~1\targets\CANVIEW4\lib\lld\libCANView4.a(CANView4_Mem_RTC.o)
 .text          0x080118f4        0x0 C:\PROGRA~2\VT3_8920\VT3\RESOUR~1\targets\CANVIEW4\lib\lld\libCANView4.a(TVP5150.o)
 .text          0x080118f4        0x0 C:\PROGRA~2\VT3_8920\VT3\RESOUR~1\targets\CANVIEW4\lib\lld\libCANView4.a(USB_Utilities.o)
 .text          0x080118f4        0x0 C:\PROGRA~2\VT3_8920\VT3\RESOUR~1\targets\CANVIEW4\lib\lld\libCANView4.a(Utilities.o)
 .text          0x080118f4        0x0 C:\PROGRA~2\VT3_8920\VT3\RESOUR~1\targets\CANVIEW4\lib\lld\libCANView4.a(ff.o)
 .text          0x080118f4        0x0 C:\PROGRA~2\VT3_8920\VT3\RESOUR~1\targets\CANVIEW4\lib\lld\libCANView4.a(cmsis_os.o)
 .text          0x080118f4        0x0 C:\PROGRA~2\VT3_8920\VT3\RESOUR~1\targets\CANVIEW4\lib\lld\libCANView4.a(heap_4.o)
 .text          0x080118f4        0x0 C:\PROGRA~2\VT3_8920\VT3\RESOUR~1\targets\CANVIEW4\lib\lld\libCANView4.a(port.o)
 .text          0x080118f4        0x0 C:\PROGRA~2\VT3_8920\VT3\RESOUR~1\targets\CANVIEW4\lib\lld\libCANView4.a(queue.o)
 .text          0x080118f4        0x0 C:\PROGRA~2\VT3_8920\VT3\RESOUR~1\targets\CANVIEW4\lib\lld\libCANView4.a(tasks.o)
 .text          0x080118f4        0x0 C:\PROGRA~2\VT3_8920\VT3\RESOUR~1\targets\CANVIEW4\lib\lld\libCANView4.a(usbh_core.o)
 .text          0x080118f4        0x0 C:\PROGRA~2\VT3_8920\VT3\RESOUR~1\targets\CANVIEW4\lib\lld\libCANView4.a(usbh_ctlreq.o)
 .text          0x080118f4        0x0 C:\PROGRA~2\VT3_8920\VT3\RESOUR~1\targets\CANVIEW4\lib\lld\libCANView4.a(usbh_ioreq.o)
 .text          0x080118f4        0x0 C:\PROGRA~2\VT3_8920\VT3\RESOUR~1\targets\CANVIEW4\lib\lld\libCANView4.a(usbh_pipes.o)
 .text          0x080118f4        0x0 C:\PROGRA~2\VT3_8920\VT3\RESOUR~1\targets\CANVIEW4\lib\lld\libCANView4.a(fatfs.o)
 .text          0x080118f4        0x0 C:\PROGRA~2\VT3_8920\VT3\RESOUR~1\targets\CANVIEW4\lib\lld\libCANView4.a(stm32f4xx_hal_msp.o)
 .text          0x080118f4        0x0 C:\PROGRA~2\VT3_8920\VT3\RESOUR~1\targets\CANVIEW4\lib\lld\libCANView4.a(usb_host.o)
 .text          0x080118f4        0x0 C:\PROGRA~2\VT3_8920\VT3\RESOUR~1\targets\CANVIEW4\lib\lld\libCANView4.a(stm32f4xx_hal_adc.o)
 .text          0x080118f4        0x0 C:\PROGRA~2\VT3_8920\VT3\RESOUR~1\targets\CANVIEW4\lib\lld\libCANView4.a(stm32f4xx_hal_adc_ex.o)
 .text          0x080118f4        0x0 C:\PROGRA~2\VT3_8920\VT3\RESOUR~1\targets\CANVIEW4\lib\lld\libCANView4.a(stm32f4xx_hal_can.o)
 .text          0x080118f4        0x0 C:\PROGRA~2\VT3_8920\VT3\RESOUR~1\targets\CANVIEW4\lib\lld\libCANView4.a(stm32f4xx_hal_dma2d.o)
 .text          0x080118f4        0x0 C:\PROGRA~2\VT3_8920\VT3\RESOUR~1\targets\CANVIEW4\lib\lld\libCANView4.a(stm32f4xx_hal_flash.o)
 .text          0x080118f4        0x0 C:\PROGRA~2\VT3_8920\VT3\RESOUR~1\targets\CANVIEW4\lib\lld\libCANView4.a(stm32f4xx_hal_flash_ex.o)
 .text          0x080118f4        0x0 C:\PROGRA~2\VT3_8920\VT3\RESOUR~1\targets\CANVIEW4\lib\lld\libCANView4.a(stm32f4xx_hal_i2c.o)
 .text          0x080118f4        0x0 C:\PROGRA~2\VT3_8920\VT3\RESOUR~1\targets\CANVIEW4\lib\lld\libCANView4.a(stm32f4xx_hal_ltdc.o)
 .text          0x080118f4        0x0 C:\PROGRA~2\VT3_8920\VT3\RESOUR~1\targets\CANVIEW4\lib\lld\libCANView4.a(stm32f4xx_hal_pwr.o)
 .text          0x080118f4        0x0 C:\PROGRA~2\VT3_8920\VT3\RESOUR~1\targets\CANVIEW4\lib\lld\libCANView4.a(stm32f4xx_hal_pwr_ex.o)
 .text          0x080118f4        0x0 C:\PROGRA~2\VT3_8920\VT3\RESOUR~1\targets\CANVIEW4\lib\lld\libCANView4.a(stm32f4xx_hal_rcc_ex.o)
 .text          0x080118f4        0x0 C:\PROGRA~2\VT3_8920\VT3\RESOUR~1\targets\CANVIEW4\lib\lld\libCANView4.a(stm32f4xx_hal_rtc.o)
 .text          0x080118f4        0x0 C:\PROGRA~2\VT3_8920\VT3\RESOUR~1\targets\CANVIEW4\lib\lld\libCANView4.a(stm32f4xx_hal_rtc_ex.o)
 .text          0x080118f4        0x0 C:\PROGRA~2\VT3_8920\VT3\RESOUR~1\targets\CANVIEW4\lib\lld\libCANView4.a(stm32f4xx_hal_sdram.o)
 .text          0x080118f4        0x0 C:\PROGRA~2\VT3_8920\VT3\RESOUR~1\targets\CANVIEW4\lib\lld\libCANView4.a(stm32f4xx_hal_spi.o)
 .text          0x080118f4        0x0 C:\PROGRA~2\VT3_8920\VT3\RESOUR~1\targets\CANVIEW4\lib\lld\libCANView4.a(stm32f4xx_ll_fmc.o)
 .text          0x080118f4        0x0 C:\PROGRA~2\VT3_8920\VT3\RESOUR~1\targets\CANVIEW4\lib\lld\libCANView4.a(CRC32.o)
 .text          0x080118f4        0x0 C:\PROGRA~2\VT3_8920\VT3\RESOUR~1\targets\CANVIEW4\lib\lld\libCANView4.a(ccsbcs.o)
 .text          0x080118f4        0x0 C:\PROGRA~2\VT3_8920\VT3\RESOUR~1\targets\CANVIEW4\lib\lld\libCANView4.a(diskio.o)
 .text          0x080118f4        0x0 C:\PROGRA~2\VT3_8920\VT3\RESOUR~1\targets\CANVIEW4\lib\lld\libCANView4.a(ff_gen_drv.o)
 .text          0x080118f4        0x0 C:\PROGRA~2\VT3_8920\VT3\RESOUR~1\targets\CANVIEW4\lib\lld\libCANView4.a(usbh_diskio.o)
 .text          0x080118f4        0x0 C:\PROGRA~2\VT3_8920\VT3\RESOUR~1\targets\CANVIEW4\lib\lld\libCANView4.a(list.o)
 .text          0x080118f4        0x0 C:\PROGRA~2\VT3_8920\VT3\RESOUR~1\targets\CANVIEW4\lib\lld\libCANView4.a(usbh_msc.o)
 .text          0x080118f4        0x0 C:\PROGRA~2\VT3_8920\VT3\RESOUR~1\targets\CANVIEW4\lib\lld\libCANView4.a(usbh_msc_bot.o)
 .text          0x080118f4        0x0 C:\PROGRA~2\VT3_8920\VT3\RESOUR~1\targets\CANVIEW4\lib\lld\libCANView4.a(usbh_msc_scsi.o)
 .text          0x080118f4        0x0 c:/program files (x86)/gnu tools arm embedded/5.2 2015q4/bin/../lib/gcc/arm-none-eabi/5.2.1/../../../../arm-none-eabi/lib/armv7e-m/fpu\libm.a(lib_a-s_cos.o)
 .text          0x080118f4        0x0 c:/program files (x86)/gnu tools arm embedded/5.2 2015q4/bin/../lib/gcc/arm-none-eabi/5.2.1/../../../../arm-none-eabi/lib/armv7e-m/fpu\libm.a(lib_a-s_sin.o)
 .text          0x080118f4        0x0 c:/program files (x86)/gnu tools arm embedded/5.2 2015q4/bin/../lib/gcc/arm-none-eabi/5.2.1/../../../../arm-none-eabi/lib/armv7e-m/fpu\libm.a(lib_a-sf_tan.o)
 .text          0x080118f4        0x0 c:/program files (x86)/gnu tools arm embedded/5.2 2015q4/bin/../lib/gcc/arm-none-eabi/5.2.1/../../../../arm-none-eabi/lib/armv7e-m/fpu\libm.a(lib_a-w_acos.o)
 .text          0x080118f4        0x0 c:/program files (x86)/gnu tools arm embedded/5.2 2015q4/bin/../lib/gcc/arm-none-eabi/5.2.1/../../../../arm-none-eabi/lib/armv7e-m/fpu\libm.a(lib_a-w_asin.o)
 .text          0x080118f4        0x0 c:/program files (x86)/gnu tools arm embedded/5.2 2015q4/bin/../lib/gcc/arm-none-eabi/5.2.1/../../../../arm-none-eabi/lib/armv7e-m/fpu\libm.a(lib_a-w_pow.o)
 .text          0x080118f4        0x0 c:/program files (x86)/gnu tools arm embedded/5.2 2015q4/bin/../lib/gcc/arm-none-eabi/5.2.1/../../../../arm-none-eabi/lib/armv7e-m/fpu\libm.a(lib_a-wf_exp.o)
 .text          0x080118f4        0x0 c:/program files (x86)/gnu tools arm embedded/5.2 2015q4/bin/../lib/gcc/arm-none-eabi/5.2.1/../../../../arm-none-eabi/lib/armv7e-m/fpu\libm.a(lib_a-wf_log.o)
 .text          0x080118f4        0x0 c:/program files (x86)/gnu tools arm embedded/5.2 2015q4/bin/../lib/gcc/arm-none-eabi/5.2.1/../../../../arm-none-eabi/lib/armv7e-m/fpu\libm.a(lib_a-wf_log10.o)
 .text          0x080118f4        0x0 c:/program files (x86)/gnu tools arm embedded/5.2 2015q4/bin/../lib/gcc/arm-none-eabi/5.2.1/../../../../arm-none-eabi/lib/armv7e-m/fpu\libm.a(lib_a-wf_pow.o)
 .text          0x080118f4        0x0 c:/program files (x86)/gnu tools arm embedded/5.2 2015q4/bin/../lib/gcc/arm-none-eabi/5.2.1/../../../../arm-none-eabi/lib/armv7e-m/fpu\libm.a(lib_a-wf_sqrt.o)
 .text          0x080118f4        0x0 c:/program files (x86)/gnu tools arm embedded/5.2 2015q4/bin/../lib/gcc/arm-none-eabi/5.2.1/../../../../arm-none-eabi/lib/armv7e-m/fpu\libm.a(lib_a-e_acos.o)
 .text          0x080118f4        0x0 c:/program files (x86)/gnu tools arm embedded/5.2 2015q4/bin/../lib/gcc/arm-none-eabi/5.2.1/../../../../arm-none-eabi/lib/armv7e-m/fpu\libm.a(lib_a-e_asin.o)
 .text          0x080118f4        0x0 c:/program files (x86)/gnu tools arm embedded/5.2 2015q4/bin/../lib/gcc/arm-none-eabi/5.2.1/../../../../arm-none-eabi/lib/armv7e-m/fpu\libm.a(lib_a-e_pow.o)
 .text          0x080118f4        0x0 c:/program files (x86)/gnu tools arm embedded/5.2 2015q4/bin/../lib/gcc/arm-none-eabi/5.2.1/../../../../arm-none-eabi/lib/armv7e-m/fpu\libm.a(lib_a-e_rem_pio2.o)
 .text          0x080118f4        0x0 c:/program files (x86)/gnu tools arm embedded/5.2 2015q4/bin/../lib/gcc/arm-none-eabi/5.2.1/../../../../arm-none-eabi/lib/armv7e-m/fpu\libm.a(lib_a-e_sqrt.o)
 .text          0x080118f4        0x0 c:/program files (x86)/gnu tools arm embedded/5.2 2015q4/bin/../lib/gcc/arm-none-eabi/5.2.1/../../../../arm-none-eabi/lib/armv7e-m/fpu\libm.a(lib_a-ef_exp.o)
 .text          0x080118f4        0x0 c:/program files (x86)/gnu tools arm embedded/5.2 2015q4/bin/../lib/gcc/arm-none-eabi/5.2.1/../../../../arm-none-eabi/lib/armv7e-m/fpu\libm.a(lib_a-ef_log.o)
 .text          0x080118f4        0x0 c:/program files (x86)/gnu tools arm embedded/5.2 2015q4/bin/../lib/gcc/arm-none-eabi/5.2.1/../../../../arm-none-eabi/lib/armv7e-m/fpu\libm.a(lib_a-ef_log10.o)
 .text          0x080118f4        0x0 c:/program files (x86)/gnu tools arm embedded/5.2 2015q4/bin/../lib/gcc/arm-none-eabi/5.2.1/../../../../arm-none-eabi/lib/armv7e-m/fpu\libm.a(lib_a-ef_pow.o)
 .text          0x080118f4        0x0 c:/program files (x86)/gnu tools arm embedded/5.2 2015q4/bin/../lib/gcc/arm-none-eabi/5.2.1/../../../../arm-none-eabi/lib/armv7e-m/fpu\libm.a(lib_a-ef_rem_pio2.o)
 .text          0x080118f4        0x0 c:/program files (x86)/gnu tools arm embedded/5.2 2015q4/bin/../lib/gcc/arm-none-eabi/5.2.1/../../../../arm-none-eabi/lib/armv7e-m/fpu\libm.a(lib_a-ef_sqrt.o)
 .text          0x080118f4        0x0 c:/program files (x86)/gnu tools arm embedded/5.2 2015q4/bin/../lib/gcc/arm-none-eabi/5.2.1/../../../../arm-none-eabi/lib/armv7e-m/fpu\libm.a(lib_a-k_cos.o)
 .text          0x080118f4        0x0 c:/program files (x86)/gnu tools arm embedded/5.2 2015q4/bin/../lib/gcc/arm-none-eabi/5.2.1/../../../../arm-none-eabi/lib/armv7e-m/fpu\libm.a(lib_a-k_rem_pio2.o)
 .text          0x080118f4        0x0 c:/program files (x86)/gnu tools arm embedded/5.2 2015q4/bin/../lib/gcc/arm-none-eabi/5.2.1/../../../../arm-none-eabi/lib/armv7e-m/fpu\libm.a(lib_a-k_sin.o)
 .text          0x080118f4        0x0 c:/program files (x86)/gnu tools arm embedded/5.2 2015q4/bin/../lib/gcc/arm-none-eabi/5.2.1/../../../../arm-none-eabi/lib/armv7e-m/fpu\libm.a(lib_a-kf_rem_pio2.o)
 .text          0x080118f4        0x0 c:/program files (x86)/gnu tools arm embedded/5.2 2015q4/bin/../lib/gcc/arm-none-eabi/5.2.1/../../../../arm-none-eabi/lib/armv7e-m/fpu\libm.a(lib_a-kf_tan.o)
 .text          0x080118f4        0x0 c:/program files (x86)/gnu tools arm embedded/5.2 2015q4/bin/../lib/gcc/arm-none-eabi/5.2.1/../../../../arm-none-eabi/lib/armv7e-m/fpu\libm.a(lib_a-s_fabs.o)
 .text          0x080118f4        0x0 c:/program files (x86)/gnu tools arm embedded/5.2 2015q4/bin/../lib/gcc/arm-none-eabi/5.2.1/../../../../arm-none-eabi/lib/armv7e-m/fpu\libm.a(lib_a-s_finite.o)
 .text          0x080118f4        0x0 c:/program files (x86)/gnu tools arm embedded/5.2 2015q4/bin/../lib/gcc/arm-none-eabi/5.2.1/../../../../arm-none-eabi/lib/armv7e-m/fpu\libm.a(lib_a-s_floor.o)
 .text          0x080118f4        0x0 c:/program files (x86)/gnu tools arm embedded/5.2 2015q4/bin/../lib/gcc/arm-none-eabi/5.2.1/../../../../arm-none-eabi/lib/armv7e-m/fpu\libm.a(lib_a-s_fpclassify.o)
 .text          0x080118f4        0x0 c:/program files (x86)/gnu tools arm embedded/5.2 2015q4/bin/../lib/gcc/arm-none-eabi/5.2.1/../../../../arm-none-eabi/lib/armv7e-m/fpu\libm.a(lib_a-s_lib_ver.o)
 .text          0x080118f4        0x0 c:/program files (x86)/gnu tools arm embedded/5.2 2015q4/bin/../lib/gcc/arm-none-eabi/5.2.1/../../../../arm-none-eabi/lib/armv7e-m/fpu\libm.a(lib_a-s_matherr.o)
 .text          0x080118f4        0x0 c:/program files (x86)/gnu tools arm embedded/5.2 2015q4/bin/../lib/gcc/arm-none-eabi/5.2.1/../../../../arm-none-eabi/lib/armv7e-m/fpu\libm.a(lib_a-s_nan.o)
 .text          0x080118f4        0x0 c:/program files (x86)/gnu tools arm embedded/5.2 2015q4/bin/../lib/gcc/arm-none-eabi/5.2.1/../../../../arm-none-eabi/lib/armv7e-m/fpu\libm.a(lib_a-s_rint.o)
 .text          0x080118f4        0x0 c:/program files (x86)/gnu tools arm embedded/5.2 2015q4/bin/../lib/gcc/arm-none-eabi/5.2.1/../../../../arm-none-eabi/lib/armv7e-m/fpu\libm.a(lib_a-s_scalbn.o)
 .text          0x080118f4        0x0 c:/program files (x86)/gnu tools arm embedded/5.2 2015q4/bin/../lib/gcc/arm-none-eabi/5.2.1/../../../../arm-none-eabi/lib/armv7e-m/fpu\libm.a(lib_a-sf_fabs.o)
 .text          0x080118f4        0x0 c:/program files (x86)/gnu tools arm embedded/5.2 2015q4/bin/../lib/gcc/arm-none-eabi/5.2.1/../../../../arm-none-eabi/lib/armv7e-m/fpu\libm.a(lib_a-sf_finite.o)
 .text          0x080118f4        0x0 c:/program files (x86)/gnu tools arm embedded/5.2 2015q4/bin/../lib/gcc/arm-none-eabi/5.2.1/../../../../arm-none-eabi/lib/armv7e-m/fpu\libm.a(lib_a-sf_floor.o)
 .text          0x080118f4        0x0 c:/program files (x86)/gnu tools arm embedded/5.2 2015q4/bin/../lib/gcc/arm-none-eabi/5.2.1/../../../../arm-none-eabi/lib/armv7e-m/fpu\libm.a(lib_a-sf_fpclassify.o)
 .text          0x080118f4        0x0 c:/program files (x86)/gnu tools arm embedded/5.2 2015q4/bin/../lib/gcc/arm-none-eabi/5.2.1/../../../../arm-none-eabi/lib/armv7e-m/fpu\libm.a(lib_a-sf_nan.o)
 .text          0x080118f4        0x0 c:/program files (x86)/gnu tools arm embedded/5.2 2015q4/bin/../lib/gcc/arm-none-eabi/5.2.1/../../../../arm-none-eabi/lib/armv7e-m/fpu\libm.a(lib_a-sf_scalbn.o)
 .text          0x080118f4        0x0 c:/program files (x86)/gnu tools arm embedded/5.2 2015q4/bin/../lib/gcc/arm-none-eabi/5.2.1/../../../../arm-none-eabi/lib/armv7e-m/fpu\libm.a(lib_a-s_copysign.o)
 .text          0x080118f4        0x0 c:/program files (x86)/gnu tools arm embedded/5.2 2015q4/bin/../lib/gcc/arm-none-eabi/5.2.1/../../../../arm-none-eabi/lib/armv7e-m/fpu\libm.a(lib_a-sf_copysign.o)
 .text          0x080118f4      0x370 c:/program files (x86)/gnu tools arm embedded/5.2 2015q4/bin/../lib/gcc/arm-none-eabi/5.2.1/armv7e-m/fpu\libgcc.a(_arm_addsubdf3.o)
                0x080118f4                __aeabi_drsub
                0x080118fc                __aeabi_dsub
                0x080118fc                __subdf3
                0x08011900                __aeabi_dadd
                0x08011900                __adddf3
                0x08011b78                __floatunsidf
                0x08011b78                __aeabi_ui2d
                0x08011b98                __floatsidf
                0x08011b98                __aeabi_i2d
                0x08011bbc                __aeabi_f2d
                0x08011bbc                __extendsfdf2
                0x08011bf8                __floatundidf
                0x08011bf8                __aeabi_ul2d
                0x08011c08                __floatdidf
                0x08011c08                __aeabi_l2d
 .text          0x08011c64      0x424 c:/program files (x86)/gnu tools arm embedded/5.2 2015q4/bin/../lib/gcc/arm-none-eabi/5.2.1/armv7e-m/fpu\libgcc.a(_arm_muldivdf3.o)
                0x08011c64                __aeabi_dmul
                0x08011c64                __muldf3
                0x08011eb8                __divdf3
                0x08011eb8                __aeabi_ddiv
 .text          0x08012088      0x110 c:/program files (x86)/gnu tools arm embedded/5.2 2015q4/bin/../lib/gcc/arm-none-eabi/5.2.1/armv7e-m/fpu\libgcc.a(_arm_cmpdf2.o)
                0x08012088                __gtdf2
                0x08012088                __gedf2
                0x08012090                __ltdf2
                0x08012090                __ledf2
                0x08012098                __nedf2
                0x08012098                __eqdf2
                0x08012098                __cmpdf2
                0x08012114                __aeabi_cdrcmple
                0x08012124                __aeabi_cdcmpeq
                0x08012124                __aeabi_cdcmple
                0x08012134                __aeabi_dcmpeq
                0x08012148                __aeabi_dcmplt
                0x0801215c                __aeabi_dcmple
                0x08012170                __aeabi_dcmpge
                0x08012184                __aeabi_dcmpgt
 .text          0x08012198       0x50 c:/program files (x86)/gnu tools arm embedded/5.2 2015q4/bin/../lib/gcc/arm-none-eabi/5.2.1/armv7e-m/fpu\libgcc.a(_arm_fixdfsi.o)
                0x08012198                __aeabi_d2iz
                0x08012198                __fixdfsi
 .text          0x080121e8       0xa0 c:/program files (x86)/gnu tools arm embedded/5.2 2015q4/bin/../lib/gcc/arm-none-eabi/5.2.1/armv7e-m/fpu\libgcc.a(_arm_truncdfsf2.o)
                0x080121e8                __truncdfsf2
                0x080121e8                __aeabi_d2f
 .text          0x08012288        0x0 c:/program files (x86)/gnu tools arm embedded/5.2 2015q4/bin/../lib/gcc/arm-none-eabi/5.2.1/../../../../arm-none-eabi/lib/armv7e-m/fpu\libc.a(lib_a-atof.o)
 .text          0x08012288        0x0 c:/program files (x86)/gnu tools arm embedded/5.2 2015q4/bin/../lib/gcc/arm-none-eabi/5.2.1/../../../../arm-none-eabi/lib/armv7e-m/fpu\libc.a(lib_a-atoi.o)
 .text          0x08012288        0x0 c:/program files (x86)/gnu tools arm embedded/5.2 2015q4/bin/../lib/gcc/arm-none-eabi/5.2.1/../../../../arm-none-eabi/lib/armv7e-m/fpu\libc.a(lib_a-atol.o)
 .text          0x08012288        0x0 c:/program files (x86)/gnu tools arm embedded/5.2 2015q4/bin/../lib/gcc/arm-none-eabi/5.2.1/../../../../arm-none-eabi/lib/armv7e-m/fpu\libc.a(lib_a-bsearch.o)
 .text          0x08012288        0x0 c:/program files (x86)/gnu tools arm embedded/5.2 2015q4/bin/../lib/gcc/arm-none-eabi/5.2.1/../../../../arm-none-eabi/lib/armv7e-m/fpu\libc.a(lib_a-errno.o)
 .text          0x08012288        0x0 c:/program files (x86)/gnu tools arm embedded/5.2 2015q4/bin/../lib/gcc/arm-none-eabi/5.2.1/../../../../arm-none-eabi/lib/armv7e-m/fpu\libc.a(lib_a-exit.o)
 .text          0x08012288        0x0 c:/program files (x86)/gnu tools arm embedded/5.2 2015q4/bin/../lib/gcc/arm-none-eabi/5.2.1/../../../../arm-none-eabi/lib/armv7e-m/fpu\libc.a(lib_a-fclose.o)
 .text          0x08012288        0x0 c:/program files (x86)/gnu tools arm embedded/5.2 2015q4/bin/../lib/gcc/arm-none-eabi/5.2.1/../../../../arm-none-eabi/lib/armv7e-m/fpu\libc.a(lib_a-fflush.o)
 .text          0x08012288        0x0 c:/program files (x86)/gnu tools arm embedded/5.2 2015q4/bin/../lib/gcc/arm-none-eabi/5.2.1/../../../../arm-none-eabi/lib/armv7e-m/fpu\libc.a(lib_a-findfp.o)
 .text          0x08012288        0x0 c:/program files (x86)/gnu tools arm embedded/5.2 2015q4/bin/../lib/gcc/arm-none-eabi/5.2.1/../../../../arm-none-eabi/lib/armv7e-m/fpu\libc.a(lib_a-fopen.o)
 .text          0x08012288        0x0 c:/program files (x86)/gnu tools arm embedded/5.2 2015q4/bin/../lib/gcc/arm-none-eabi/5.2.1/../../../../arm-none-eabi/lib/armv7e-m/fpu\libc.a(lib_a-fread.o)
 .text          0x08012288        0x0 c:/program files (x86)/gnu tools arm embedded/5.2 2015q4/bin/../lib/gcc/arm-none-eabi/5.2.1/../../../../arm-none-eabi/lib/armv7e-m/fpu\libc.a(lib_a-freer.o)
 .text          0x08012288        0x0 c:/program files (x86)/gnu tools arm embedded/5.2 2015q4/bin/../lib/gcc/arm-none-eabi/5.2.1/../../../../arm-none-eabi/lib/armv7e-m/fpu\libc.a(lib_a-fseek.o)
 .text          0x08012288        0x0 c:/program files (x86)/gnu tools arm embedded/5.2 2015q4/bin/../lib/gcc/arm-none-eabi/5.2.1/../../../../arm-none-eabi/lib/armv7e-m/fpu\libc.a(lib_a-fseeko.o)
 .text          0x08012288        0x0 c:/program files (x86)/gnu tools arm embedded/5.2 2015q4/bin/../lib/gcc/arm-none-eabi/5.2.1/../../../../arm-none-eabi/lib/armv7e-m/fpu\libc.a(lib_a-fstatr.o)
 .text          0x08012288        0x0 c:/program files (x86)/gnu tools arm embedded/5.2 2015q4/bin/../lib/gcc/arm-none-eabi/5.2.1/../../../../arm-none-eabi/lib/armv7e-m/fpu\libc.a(lib_a-fwalk.o)
 .text          0x08012288        0x0 c:/program files (x86)/gnu tools arm embedded/5.2 2015q4/bin/../lib/gcc/arm-none-eabi/5.2.1/../../../../arm-none-eabi/lib/armv7e-m/fpu\libc.a(lib_a-impure.o)
 .text          0x08012288        0x0 c:/program files (x86)/gnu tools arm embedded/5.2 2015q4/bin/../lib/gcc/arm-none-eabi/5.2.1/../../../../arm-none-eabi/lib/armv7e-m/fpu\libc.a(lib_a-init.o)
 .text          0x08012288        0x0 c:/program files (x86)/gnu tools arm embedded/5.2 2015q4/bin/../lib/gcc/arm-none-eabi/5.2.1/../../../../arm-none-eabi/lib/armv7e-m/fpu\libc.a(lib_a-isalnum.o)
 .text          0x08012288        0x0 c:/program files (x86)/gnu tools arm embedded/5.2 2015q4/bin/../lib/gcc/arm-none-eabi/5.2.1/../../../../arm-none-eabi/lib/armv7e-m/fpu\libc.a(lib_a-isalpha.o)
 .text          0x08012288        0x0 c:/program files (x86)/gnu tools arm embedded/5.2 2015q4/bin/../lib/gcc/arm-none-eabi/5.2.1/../../../../arm-none-eabi/lib/armv7e-m/fpu\libc.a(lib_a-islower.o)
 .text          0x08012288        0x0 c:/program files (x86)/gnu tools arm embedded/5.2 2015q4/bin/../lib/gcc/arm-none-eabi/5.2.1/../../../../arm-none-eabi/lib/armv7e-m/fpu\libc.a(lib_a-isspace.o)
 .text          0x08012288        0x0 c:/program files (x86)/gnu tools arm embedded/5.2 2015q4/bin/../lib/gcc/arm-none-eabi/5.2.1/../../../../arm-none-eabi/lib/armv7e-m/fpu\libc.a(lib_a-isupper.o)
 .text          0x08012288        0x0 c:/program files (x86)/gnu tools arm embedded/5.2 2015q4/bin/../lib/gcc/arm-none-eabi/5.2.1/../../../../arm-none-eabi/lib/armv7e-m/fpu\libc.a(lib_a-isxdigit.o)
 .text          0x08012288        0x0 c:/program files (x86)/gnu tools arm embedded/5.2 2015q4/bin/../lib/gcc/arm-none-eabi/5.2.1/../../../../arm-none-eabi/lib/armv7e-m/fpu\libc.a(lib_a-makebuf.o)
 .text          0x08012288        0x0 c:/program files (x86)/gnu tools arm embedded/5.2 2015q4/bin/../lib/gcc/arm-none-eabi/5.2.1/../../../../arm-none-eabi/lib/armv7e-m/fpu\libc.a(lib_a-malloc.o)
 .text          0x08012288        0x0 c:/program files (x86)/gnu tools arm embedded/5.2 2015q4/bin/../lib/gcc/arm-none-eabi/5.2.1/../../../../arm-none-eabi/lib/armv7e-m/fpu\libc.a(lib_a-mallocr.o)
 .text          0x08012288        0x0 c:/program files (x86)/gnu tools arm embedded/5.2 2015q4/bin/../lib/gcc/arm-none-eabi/5.2.1/../../../../arm-none-eabi/lib/armv7e-m/fpu\libc.a(lib_a-memcmp.o)
 .text          0x08012288      0x134 c:/program files (x86)/gnu tools arm embedded/5.2 2015q4/bin/../lib/gcc/arm-none-eabi/5.2.1/../../../../arm-none-eabi/lib/armv7e-m/fpu\libc.a(lib_a-memcpy.o)
                0x08012288                memcpy
 .text          0x080123bc        0x0 c:/program files (x86)/gnu tools arm embedded/5.2 2015q4/bin/../lib/gcc/arm-none-eabi/5.2.1/../../../../arm-none-eabi/lib/armv7e-m/fpu\libc.a(lib_a-memset.o)
 .text          0x080123bc        0x0 c:/program files (x86)/gnu tools arm embedded/5.2 2015q4/bin/../lib/gcc/arm-none-eabi/5.2.1/../../../../arm-none-eabi/lib/armv7e-m/fpu\libc.a(lib_a-mlock.o)
 .text          0x080123bc        0x0 c:/program files (x86)/gnu tools arm embedded/5.2 2015q4/bin/../lib/gcc/arm-none-eabi/5.2.1/../../../../arm-none-eabi/lib/armv7e-m/fpu\libc.a(lib_a-openr.o)
 .text          0x080123bc        0x0 c:/program files (x86)/gnu tools arm embedded/5.2 2015q4/bin/../lib/gcc/arm-none-eabi/5.2.1/../../../../arm-none-eabi/lib/armv7e-m/fpu\libc.a(lib_a-printf.o)
 .text          0x080123bc        0x0 c:/program files (x86)/gnu tools arm embedded/5.2 2015q4/bin/../lib/gcc/arm-none-eabi/5.2.1/../../../../arm-none-eabi/lib/armv7e-m/fpu\libc.a(lib_a-rand.o)
 .text          0x080123bc        0x0 c:/program files (x86)/gnu tools arm embedded/5.2 2015q4/bin/../lib/gcc/arm-none-eabi/5.2.1/../../../../arm-none-eabi/lib/armv7e-m/fpu\libc.a(lib_a-reent.o)
 .text          0x080123bc        0x0 c:/program files (x86)/gnu tools arm embedded/5.2 2015q4/bin/../lib/gcc/arm-none-eabi/5.2.1/../../../../arm-none-eabi/lib/armv7e-m/fpu\libc.a(lib_a-refill.o)
 .text          0x080123bc        0x0 c:/program files (x86)/gnu tools arm embedded/5.2 2015q4/bin/../lib/gcc/arm-none-eabi/5.2.1/../../../../arm-none-eabi/lib/armv7e-m/fpu\libc.a(lib_a-sbrkr.o)
 .text          0x080123bc        0x0 c:/program files (x86)/gnu tools arm embedded/5.2 2015q4/bin/../lib/gcc/arm-none-eabi/5.2.1/../../../../arm-none-eabi/lib/armv7e-m/fpu\libc.a(lib_a-sprintf.o)
 .text          0x080123bc        0x0 c:/program files (x86)/gnu tools arm embedded/5.2 2015q4/bin/../lib/gcc/arm-none-eabi/5.2.1/../../../../arm-none-eabi/lib/armv7e-m/fpu\libc.a(lib_a-stdio.o)
 .text          0x080123bc        0x0 c:/program files (x86)/gnu tools arm embedded/5.2 2015q4/bin/../lib/gcc/arm-none-eabi/5.2.1/../../../../arm-none-eabi/lib/armv7e-m/fpu\libc.a(lib_a-strcat.o)
 .text          0x080123bc        0x0 c:/program files (x86)/gnu tools arm embedded/5.2 2015q4/bin/../lib/gcc/arm-none-eabi/5.2.1/../../../../arm-none-eabi/lib/armv7e-m/fpu\libc.a(lib_a-strchr.o)
 *fill*         0x080123bc        0x4 
 .text          0x080123c0      0x2dc c:/program files (x86)/gnu tools arm embedded/5.2 2015q4/bin/../lib/gcc/arm-none-eabi/5.2.1/../../../../arm-none-eabi/lib/armv7e-m/fpu\libc.a(lib_a-strcmp.o)
                0x080123c8                strcmp
 .text          0x0801269c        0x0 c:/program files (x86)/gnu tools arm embedded/5.2 2015q4/bin/../lib/gcc/arm-none-eabi/5.2.1/../../../../arm-none-eabi/lib/armv7e-m/fpu\libc.a(lib_a-strcpy.o)
 .text          0x0801269c        0x0 c:/program files (x86)/gnu tools arm embedded/5.2 2015q4/bin/../lib/gcc/arm-none-eabi/5.2.1/../../../../arm-none-eabi/lib/armv7e-m/fpu\libc.a(lib_a-strlcat.o)
 *fill*         0x0801269c       0x24 
 .text          0x080126c0       0xdc c:/program files (x86)/gnu tools arm embedded/5.2 2015q4/bin/../lib/gcc/arm-none-eabi/5.2.1/../../../../arm-none-eabi/lib/armv7e-m/fpu\libc.a(lib_a-strlen.o)
                0x080126c0                strlen
 .text          0x0801279c        0x0 c:/program files (x86)/gnu tools arm embedded/5.2 2015q4/bin/../lib/gcc/arm-none-eabi/5.2.1/../../../../arm-none-eabi/lib/armv7e-m/fpu\libc.a(lib_a-strncpy.o)
 .text          0x0801279c        0x0 c:/program files (x86)/gnu tools arm embedded/5.2 2015q4/bin/../lib/gcc/arm-none-eabi/5.2.1/../../../../arm-none-eabi/lib/armv7e-m/fpu\libc.a(lib_a-strtod.o)
 .text          0x0801279c        0x0 c:/program files (x86)/gnu tools arm embedded/5.2 2015q4/bin/../lib/gcc/arm-none-eabi/5.2.1/../../../../arm-none-eabi/lib/armv7e-m/fpu\libc.a(lib_a-strtol.o)
 .text          0x0801279c        0x0 c:/program files (x86)/gnu tools arm embedded/5.2 2015q4/bin/../lib/gcc/arm-none-eabi/5.2.1/../../../../arm-none-eabi/lib/armv7e-m/fpu\libc.a(lib_a-svfprintf.o)
 .text          0x0801279c        0x0 c:/program files (x86)/gnu tools arm embedded/5.2 2015q4/bin/../lib/gcc/arm-none-eabi/5.2.1/../../../../arm-none-eabi/lib/armv7e-m/fpu\libc.a(lib_a-vfprintf.o)
 .text          0x0801279c        0x0 c:/program files (x86)/gnu tools arm embedded/5.2 2015q4/bin/../lib/gcc/arm-none-eabi/5.2.1/../../../../arm-none-eabi/lib/armv7e-m/fpu\libc.a(lib_a-writer.o)
 .text          0x0801279c        0x0 c:/program files (x86)/gnu tools arm embedded/5.2 2015q4/bin/../lib/gcc/arm-none-eabi/5.2.1/../../../../arm-none-eabi/lib/armv7e-m/fpu\libc.a(lib_a-wsetup.o)
 .text          0x0801279c        0x0 c:/program files (x86)/gnu tools arm embedded/5.2 2015q4/bin/../lib/gcc/arm-none-eabi/5.2.1/../../../../arm-none-eabi/lib/armv7e-m/fpu\libc.a(lib_a-__call_atexit.o)
 .text          0x0801279c        0x0 c:/program files (x86)/gnu tools arm embedded/5.2 2015q4/bin/../lib/gcc/arm-none-eabi/5.2.1/../../../../arm-none-eabi/lib/armv7e-m/fpu\libc.a(lib_a-atexit.o)
 .text          0x0801279c        0x0 c:/program files (x86)/gnu tools arm embedded/5.2 2015q4/bin/../lib/gcc/arm-none-eabi/5.2.1/../../../../arm-none-eabi/lib/armv7e-m/fpu\libc.a(lib_a-closer.o)
 .text          0x0801279c        0x0 c:/program files (x86)/gnu tools arm embedded/5.2 2015q4/bin/../lib/gcc/arm-none-eabi/5.2.1/../../../../arm-none-eabi/lib/armv7e-m/fpu\libc.a(lib_a-ctype_.o)
 .text          0x0801279c        0x0 c:/program files (x86)/gnu tools arm embedded/5.2 2015q4/bin/../lib/gcc/arm-none-eabi/5.2.1/../../../../arm-none-eabi/lib/armv7e-m/fpu\libc.a(lib_a-dtoa.o)
 .text          0x0801279c        0x0 c:/program files (x86)/gnu tools arm embedded/5.2 2015q4/bin/../lib/gcc/arm-none-eabi/5.2.1/../../../../arm-none-eabi/lib/armv7e-m/fpu\libc.a(lib_a-fini.o)
 .text          0x0801279c        0x0 c:/program files (x86)/gnu tools arm embedded/5.2 2015q4/bin/../lib/gcc/arm-none-eabi/5.2.1/../../../../arm-none-eabi/lib/armv7e-m/fpu\libc.a(lib_a-flags.o)
 .text          0x0801279c        0x0 c:/program files (x86)/gnu tools arm embedded/5.2 2015q4/bin/../lib/gcc/arm-none-eabi/5.2.1/../../../../arm-none-eabi/lib/armv7e-m/fpu\libc.a(lib_a-gdtoa-gethex.o)
 .text          0x0801279c        0x0 c:/program files (x86)/gnu tools arm embedded/5.2 2015q4/bin/../lib/gcc/arm-none-eabi/5.2.1/../../../../arm-none-eabi/lib/armv7e-m/fpu\libc.a(lib_a-gdtoa-hexnan.o)
 .text          0x0801279c        0x0 c:/program files (x86)/gnu tools arm embedded/5.2 2015q4/bin/../lib/gcc/arm-none-eabi/5.2.1/../../../../arm-none-eabi/lib/armv7e-m/fpu\libc.a(lib_a-isattyr.o)
 .text          0x0801279c        0x0 c:/program files (x86)/gnu tools arm embedded/5.2 2015q4/bin/../lib/gcc/arm-none-eabi/5.2.1/../../../../arm-none-eabi/lib/armv7e-m/fpu\libc.a(lib_a-locale.o)
 .text          0x0801279c        0x0 c:/program files (x86)/gnu tools arm embedded/5.2 2015q4/bin/../lib/gcc/arm-none-eabi/5.2.1/../../../../arm-none-eabi/lib/armv7e-m/fpu\libc.a(lib_a-lseekr.o)
 *fill*         0x0801279c        0x4 
 .text          0x080127a0       0xa0 c:/program files (x86)/gnu tools arm embedded/5.2 2015q4/bin/../lib/gcc/arm-none-eabi/5.2.1/../../../../arm-none-eabi/lib/armv7e-m/fpu\libc.a(lib_a-memchr.o)
                0x080127a0                memchr
 .text          0x08012840        0x0 c:/program files (x86)/gnu tools arm embedded/5.2 2015q4/bin/../lib/gcc/arm-none-eabi/5.2.1/../../../../arm-none-eabi/lib/armv7e-m/fpu\libc.a(lib_a-mprec.o)
 .text          0x08012840        0x0 c:/program files (x86)/gnu tools arm embedded/5.2 2015q4/bin/../lib/gcc/arm-none-eabi/5.2.1/../../../../arm-none-eabi/lib/armv7e-m/fpu\libc.a(lib_a-readr.o)
 .text          0x08012840        0x0 c:/program files (x86)/gnu tools arm embedded/5.2 2015q4/bin/../lib/gcc/arm-none-eabi/5.2.1/../../../../arm-none-eabi/lib/armv7e-m/fpu\libc.a(lib_a-strncmp.o)
 .text          0x08012840        0x0 c:/program files (x86)/gnu tools arm embedded/5.2 2015q4/bin/../lib/gcc/arm-none-eabi/5.2.1/../../../../arm-none-eabi/lib/armv7e-m/fpu\libc.a(lib_a-svfiprintf.o)
 .text          0x08012840        0x0 c:/program files (x86)/gnu tools arm embedded/5.2 2015q4/bin/../lib/gcc/arm-none-eabi/5.2.1/../../../../arm-none-eabi/lib/armv7e-m/fpu\libc.a(lib_a-vfiprintf.o)
 .text          0x08012840        0x0 c:/program files (x86)/gnu tools arm embedded/5.2 2015q4/bin/../lib/gcc/arm-none-eabi/5.2.1/../../../../arm-none-eabi/lib/armv7e-m/fpu\libc.a(lib_a-__atexit.o)
 .text          0x08012840        0x0 c:/program files (x86)/gnu tools arm embedded/5.2 2015q4/bin/../lib/gcc/arm-none-eabi/5.2.1/../../../../arm-none-eabi/lib/armv7e-m/fpu\libc.a(lib_a-callocr.o)
 .text          0x08012840        0x0 c:/program files (x86)/gnu tools arm embedded/5.2 2015q4/bin/../lib/gcc/arm-none-eabi/5.2.1/../../../../arm-none-eabi/lib/armv7e-m/fpu\libc.a(lib_a-fputwc.o)
 .text          0x08012840        0x0 c:/program files (x86)/gnu tools arm embedded/5.2 2015q4/bin/../lib/gcc/arm-none-eabi/5.2.1/../../../../arm-none-eabi/lib/armv7e-m/fpu\libc.a(lib_a-fvwrite.o)
 .text          0x08012840        0x0 c:/program files (x86)/gnu tools arm embedded/5.2 2015q4/bin/../lib/gcc/arm-none-eabi/5.2.1/../../../../arm-none-eabi/lib/armv7e-m/fpu\libc.a(lib_a-memmove.o)
 .text          0x08012840        0x0 c:/program files (x86)/gnu tools arm embedded/5.2 2015q4/bin/../lib/gcc/arm-none-eabi/5.2.1/../../../../arm-none-eabi/lib/armv7e-m/fpu\libc.a(lib_a-reallocr.o)
 .text          0x08012840        0x0 c:/program files (x86)/gnu tools arm embedded/5.2 2015q4/bin/../lib/gcc/arm-none-eabi/5.2.1/../../../../arm-none-eabi/lib/armv7e-m/fpu\libc.a(lib_a-wbuf.o)
 .text          0x08012840        0x0 c:/program files (x86)/gnu tools arm embedded/5.2 2015q4/bin/../lib/gcc/arm-none-eabi/5.2.1/../../../../arm-none-eabi/lib/armv7e-m/fpu\libc.a(lib_a-wcrtomb.o)
 .text          0x08012840        0x0 c:/program files (x86)/gnu tools arm embedded/5.2 2015q4/bin/../lib/gcc/arm-none-eabi/5.2.1/../../../../arm-none-eabi/lib/armv7e-m/fpu\libc.a(lib_a-wctomb_r.o)
 .text          0x08012840       0x40 c:/program files (x86)/gnu tools arm embedded/5.2 2015q4/bin/../lib/gcc/arm-none-eabi/5.2.1/armv7e-m/fpu\libgcc.a(_arm_fixunsdfsi.o)
                0x08012840                __aeabi_d2uiz
                0x08012840                __fixunsdfsi
 .text          0x08012880       0x30 c:/program files (x86)/gnu tools arm embedded/5.2 2015q4/bin/../lib/gcc/arm-none-eabi/5.2.1/armv7e-m/fpu\libgcc.a(_aeabi_uldivmod.o)
                0x08012880                __aeabi_uldivmod
 .text          0x080128b0      0x2e4 c:/program files (x86)/gnu tools arm embedded/5.2 2015q4/bin/../lib/gcc/arm-none-eabi/5.2.1/armv7e-m/fpu\libgcc.a(_udivmoddi4.o)
                0x080128b0                __udivmoddi4
 .text          0x08012b94        0x4 c:/program files (x86)/gnu tools arm embedded/5.2 2015q4/bin/../lib/gcc/arm-none-eabi/5.2.1/armv7e-m/fpu\libgcc.a(_dvmd_tls.o)
                0x08012b94                __aeabi_idiv0
                0x08012b94                __aeabi_ldiv0
 .text          0x08012b98        0x0 c:/program files (x86)/gnu tools arm embedded/5.2 2015q4/bin/../lib/gcc/arm-none-eabi/5.2.1/../../../../arm-none-eabi/lib/armv7e-m/fpu\libnosys.a(close.o)
 .text          0x08012b98        0x0 c:/program files (x86)/gnu tools arm embedded/5.2 2015q4/bin/../lib/gcc/arm-none-eabi/5.2.1/../../../../arm-none-eabi/lib/armv7e-m/fpu\libnosys.a(fstat.o)
 .text          0x08012b98        0x0 c:/program files (x86)/gnu tools arm embedded/5.2 2015q4/bin/../lib/gcc/arm-none-eabi/5.2.1/../../../../arm-none-eabi/lib/armv7e-m/fpu\libnosys.a(isatty.o)
 .text          0x08012b98        0x0 c:/program files (x86)/gnu tools arm embedded/5.2 2015q4/bin/../lib/gcc/arm-none-eabi/5.2.1/../../../../arm-none-eabi/lib/armv7e-m/fpu\libnosys.a(lseek.o)
 .text          0x08012b98        0x0 c:/program files (x86)/gnu tools arm embedded/5.2 2015q4/bin/../lib/gcc/arm-none-eabi/5.2.1/../../../../arm-none-eabi/lib/armv7e-m/fpu\libnosys.a(open.o)
 .text          0x08012b98        0x0 c:/program files (x86)/gnu tools arm embedded/5.2 2015q4/bin/../lib/gcc/arm-none-eabi/5.2.1/../../../../arm-none-eabi/lib/armv7e-m/fpu\libnosys.a(read.o)
 .text          0x08012b98        0x0 c:/program files (x86)/gnu tools arm embedded/5.2 2015q4/bin/../lib/gcc/arm-none-eabi/5.2.1/../../../../arm-none-eabi/lib/armv7e-m/fpu\libnosys.a(write.o)
 .text          0x08012b98        0x0 c:/program files (x86)/gnu tools arm embedded/5.2 2015q4/bin/../lib/gcc/arm-none-eabi/5.2.1/../../../../arm-none-eabi/lib/armv7e-m/fpu\libnosys.a(_exit.o)
 .text          0x08012b98        0x0 c:/program files (x86)/gnu tools arm embedded/5.2 2015q4/bin/../lib/gcc/arm-none-eabi/5.2.1/armv7e-m/fpu/crtend.o
 .text          0x08012b98        0x0 c:/program files (x86)/gnu tools arm embedded/5.2 2015q4/bin/../lib/gcc/arm-none-eabi/5.2.1/armv7e-m/fpu/crtn.o
 *(.text*)
 .text.OnIdle   0x08012b98        0xc C:\PROGRA~2\VT3_8920\VT3\RESOUR~1\targets\CANVIEW4\lib\vt3_runtime\libvt3_runtime.a(VT3_Main.o)
                0x08012b98                OnIdle
 .text.MainInit
                0x08012ba4       0x14 C:\PROGRA~2\VT3_8920\VT3\RESOUR~1\targets\CANVIEW4\lib\vt3_runtime\libvt3_runtime.a(VT3_Main.o)
                0x08012ba4                MainInit
 .text.main     0x08012bb8       0xb8 C:\PROGRA~2\VT3_8920\VT3\RESOUR~1\targets\CANVIEW4\lib\vt3_runtime\libvt3_runtime.a(VT3_Main.o)
                0x08012bb8                main
 .text.UART     0x08012c70       0xa0 C:\PROGRA~2\VT3_8920\VT3\RESOUR~1\targets\CANVIEW4\lib\vt3_runtime\libvt3_runtime.a(VT3_Main.o)
                0x08012c70                UART
 .text.Lib_UARTReset
                0x08012d10       0x34 C:\PROGRA~2\VT3_8920\VT3\RESOUR~1\targets\CANVIEW4\lib\vt3_runtime\libvt3_runtime.a(VT3_Main.o)
                0x08012d10                Lib_UARTReset
 .text.Lib_UARTReceiveData
                0x08012d44      0x150 C:\PROGRA~2\VT3_8920\VT3\RESOUR~1\targets\CANVIEW4\lib\vt3_runtime\libvt3_runtime.a(VT3_Main.o)
                0x08012d44                Lib_UARTReceiveData
 .text.vt3_draw_indicator_PhysicalKey
                0x08012e94       0xa0 C:\PROGRA~2\VT3_8920\VT3\RESOUR~1\targets\CANVIEW4\lib\vt3_runtime\libvt3_runtime.a(VT3_Runtime.o)
                0x08012e94                vt3_draw_indicator_PhysicalKey
 .text.vt3_draw_indicator_PhysicalIndicator
                0x08012f34       0x88 C:\PROGRA~2\VT3_8920\VT3\RESOUR~1\targets\CANVIEW4\lib\vt3_runtime\libvt3_runtime.a(VT3_Runtime.o)
                0x08012f34                vt3_draw_indicator_PhysicalIndicator
 .text.vt3_draw_indicator_PAL_Camera
                0x08012fbc       0xf4 C:\PROGRA~2\VT3_8920\VT3\RESOUR~1\targets\CANVIEW4\lib\vt3_runtime\libvt3_runtime.a(VT3_Runtime.o)
                0x08012fbc                vt3_draw_indicator_PAL_Camera
 .text.load_bytearray_P
                0x080130b0       0x80 C:\PROGRA~2\VT3_8920\VT3\RESOUR~1\targets\CANVIEW4\lib\vt3_runtime\libvt3_runtime.a(VT3_Runtime.o)
                0x080130b0                load_bytearray_P
 .text.save_bytearray_P
                0x08013130       0x5c C:\PROGRA~2\VT3_8920\VT3\RESOUR~1\targets\CANVIEW4\lib\vt3_runtime\libvt3_runtime.a(VT3_Runtime.o)
                0x08013130                save_bytearray_P
 .text.load_bytearray_R
                0x0801318c       0x80 C:\PROGRA~2\VT3_8920\VT3\RESOUR~1\targets\CANVIEW4\lib\vt3_runtime\libvt3_runtime.a(VT3_Runtime.o)
                0x0801318c                load_bytearray_R
 .text.save_bytearray_R
                0x0801320c       0x50 C:\PROGRA~2\VT3_8920\VT3\RESOUR~1\targets\CANVIEW4\lib\vt3_runtime\libvt3_runtime.a(VT3_Runtime.o)
                0x0801320c                save_bytearray_R
 .text.load_bytearray_F
                0x0801325c        0xc C:\PROGRA~2\VT3_8920\VT3\RESOUR~1\targets\CANVIEW4\lib\vt3_runtime\libvt3_runtime.a(VT3_Runtime.o)
                0x0801325c                load_bytearray_F
 .text.save_bytearray_F
                0x08013268       0x10 C:\PROGRA~2\VT3_8920\VT3\RESOUR~1\targets\CANVIEW4\lib\vt3_runtime\libvt3_runtime.a(VT3_Runtime.o)
                0x08013268                save_bytearray_F
 .text.vt3_set_can_param
                0x08013278       0x4c C:\PROGRA~2\VT3_8920\VT3\RESOUR~1\targets\CANVIEW4\lib\vt3_runtime\libvt3_runtime.a(VT3_Runtime.o)
                0x08013278                vt3_set_can_param
 .text.CANView4_USB_mount
                0x080132c4       0x30 C:\PROGRA~2\VT3_8920\VT3\RESOUR~1\targets\CANVIEW4\lib\vt3_runtime\libvt3_runtime.a(VT3_Runtime.o)
                0x080132c4                CANView4_USB_mount
 .text.CANView4_USB_unmount
                0x080132f4       0x30 C:\PROGRA~2\VT3_8920\VT3\RESOUR~1\targets\CANVIEW4\lib\vt3_runtime\libvt3_runtime.a(VT3_Runtime.o)
                0x080132f4                CANView4_USB_unmount
 .text.CANView4_USB_file_open
                0x08013324       0x3c C:\PROGRA~2\VT3_8920\VT3\RESOUR~1\targets\CANVIEW4\lib\vt3_runtime\libvt3_runtime.a(VT3_Runtime.o)
                0x08013324                CANView4_USB_file_open
 .text.CANView4_USB_file_close
                0x08013360       0x30 C:\PROGRA~2\VT3_8920\VT3\RESOUR~1\targets\CANVIEW4\lib\vt3_runtime\libvt3_runtime.a(VT3_Runtime.o)
                0x08013360                CANView4_USB_file_close
 .text.CANView4_USB_file_read
                0x08013390       0x40 C:\PROGRA~2\VT3_8920\VT3\RESOUR~1\targets\CANVIEW4\lib\vt3_runtime\libvt3_runtime.a(VT3_Runtime.o)
                0x08013390                CANView4_USB_file_read
 .text.CANView4_USB_file_write
                0x080133d0       0x40 C:\PROGRA~2\VT3_8920\VT3\RESOUR~1\targets\CANVIEW4\lib\vt3_runtime\libvt3_runtime.a(VT3_Runtime.o)
                0x080133d0                CANView4_USB_file_write
 .text.Ciclo100Init
                0x08013410       0x1c C:\PROGRA~2\VT3_8920\VT3\RESOUR~1\targets\CANVIEW4\lib\vt3_runtime\libvt3_runtime.a(VT3_Cycle100.o)
                0x08013410                Ciclo100Init
 .text.Ciclo100
                0x0801342c       0x44 C:\PROGRA~2\VT3_8920\VT3\RESOUR~1\targets\CANVIEW4\lib\vt3_runtime\libvt3_runtime.a(VT3_Cycle100.o)
                0x0801342c                Ciclo100
 .text.Ciclo20Init
                0x08013470        0xc C:\PROGRA~2\VT3_8920\VT3\RESOUR~1\targets\CANVIEW4\lib\vt3_runtime\libvt3_runtime.a(VT3_Cycle20.o)
                0x08013470                Ciclo20Init
 .text.Ciclo20  0x0801347c       0x38 C:\PROGRA~2\VT3_8920\VT3\RESOUR~1\targets\CANVIEW4\lib\vt3_runtime\libvt3_runtime.a(VT3_Cycle20.o)
                0x0801347c                Ciclo20
 .text.runtime_error
                0x080134b4       0x48 C:\PROGRA~2\VT3_8920\VT3\RESOUR~1\targets\CANVIEW4\lib\vt3_common\libvt3_common.a(IEC_Lib.o)
 .text.on_error
                0x080134fc       0x34 C:\PROGRA~2\VT3_8920\VT3\RESOUR~1\targets\CANVIEW4\lib\vt3_common\libvt3_common.a(IEC_Lib.o)
                0x080134fc                on_error
 .text.vt3_check_array_boundary
                0x08013530       0x30 C:\PROGRA~2\VT3_8920\VT3\RESOUR~1\targets\CANVIEW4\lib\vt3_common\libvt3_common.a(IEC_Lib.o)
                0x08013530                vt3_check_array_boundary
 .text.vt3_check_subrange_SINT
                0x08013560       0x40 C:\PROGRA~2\VT3_8920\VT3\RESOUR~1\targets\CANVIEW4\lib\vt3_common\libvt3_common.a(IEC_Lib.o)
                0x08013560                vt3_check_subrange_SINT
 .text.vt3_check_subrange_INT
                0x080135a0       0x48 C:\PROGRA~2\VT3_8920\VT3\RESOUR~1\targets\CANVIEW4\lib\vt3_common\libvt3_common.a(IEC_Lib.o)
                0x080135a0                vt3_check_subrange_INT
 .text.vt3_check_subrange_DINT
                0x080135e8       0x38 C:\PROGRA~2\VT3_8920\VT3\RESOUR~1\targets\CANVIEW4\lib\vt3_common\libvt3_common.a(IEC_Lib.o)
                0x080135e8                vt3_check_subrange_DINT
 .text.vt3_check_subrange_USINT
                0x08013620       0x40 C:\PROGRA~2\VT3_8920\VT3\RESOUR~1\targets\CANVIEW4\lib\vt3_common\libvt3_common.a(IEC_Lib.o)
                0x08013620                vt3_check_subrange_USINT
 .text.vt3_check_subrange_UINT
                0x08013660       0x40 C:\PROGRA~2\VT3_8920\VT3\RESOUR~1\targets\CANVIEW4\lib\vt3_common\libvt3_common.a(IEC_Lib.o)
                0x08013660                vt3_check_subrange_UINT
 .text.vt3_check_subrange_UDINT
                0x080136a0       0x38 C:\PROGRA~2\VT3_8920\VT3\RESOUR~1\targets\CANVIEW4\lib\vt3_common\libvt3_common.a(IEC_Lib.o)
                0x080136a0                vt3_check_subrange_UDINT
 .text.SINT_TO_BOOL
                0x080136d8       0x3c C:\PROGRA~2\VT3_8920\VT3\RESOUR~1\targets\CANVIEW4\lib\vt3_common\libvt3_common.a(IEC_Lib.o)
                0x080136d8                SINT_TO_BOOL
 .text.INT_TO_BOOL
                0x08013714       0x44 C:\PROGRA~2\VT3_8920\VT3\RESOUR~1\targets\CANVIEW4\lib\vt3_common\libvt3_common.a(IEC_Lib.o)
                0x08013714                INT_TO_BOOL
 .text.DINT_TO_BOOL
                0x08013758       0x3c C:\PROGRA~2\VT3_8920\VT3\RESOUR~1\targets\CANVIEW4\lib\vt3_common\libvt3_common.a(IEC_Lib.o)
                0x08013758                DINT_TO_BOOL
 .text.USINT_TO_BOOL
                0x08013794       0x3c C:\PROGRA~2\VT3_8920\VT3\RESOUR~1\targets\CANVIEW4\lib\vt3_common\libvt3_common.a(IEC_Lib.o)
                0x08013794                USINT_TO_BOOL
 .text.UINT_TO_BOOL
                0x080137d0       0x3c C:\PROGRA~2\VT3_8920\VT3\RESOUR~1\targets\CANVIEW4\lib\vt3_common\libvt3_common.a(IEC_Lib.o)
                0x080137d0                UINT_TO_BOOL
 .text.UDINT_TO_BOOL
                0x0801380c       0x3c C:\PROGRA~2\VT3_8920\VT3\RESOUR~1\targets\CANVIEW4\lib\vt3_common\libvt3_common.a(IEC_Lib.o)
                0x0801380c                UDINT_TO_BOOL
 .text.BYTE_TO_BOOL
                0x08013848       0x3c C:\PROGRA~2\VT3_8920\VT3\RESOUR~1\targets\CANVIEW4\lib\vt3_common\libvt3_common.a(IEC_Lib.o)
                0x08013848                BYTE_TO_BOOL
 .text.WORD_TO_BOOL
                0x08013884       0x44 C:\PROGRA~2\VT3_8920\VT3\RESOUR~1\targets\CANVIEW4\lib\vt3_common\libvt3_common.a(IEC_Lib.o)
                0x08013884                WORD_TO_BOOL
 .text.DWORD_TO_BOOL
                0x080138c8       0x3c C:\PROGRA~2\VT3_8920\VT3\RESOUR~1\targets\CANVIEW4\lib\vt3_common\libvt3_common.a(IEC_Lib.o)
                0x080138c8                DWORD_TO_BOOL
 .text.REAL_TO_BOOL
                0x08013904       0x58 C:\PROGRA~2\VT3_8920\VT3\RESOUR~1\targets\CANVIEW4\lib\vt3_common\libvt3_common.a(IEC_Lib.o)
                0x08013904                REAL_TO_BOOL
 .text.INT_TO_SINT
                0x0801395c       0x3c C:\PROGRA~2\VT3_8920\VT3\RESOUR~1\targets\CANVIEW4\lib\vt3_common\libvt3_common.a(IEC_Lib.o)
                0x0801395c                INT_TO_SINT
 .text.DINT_TO_SINT
                0x08013998       0x34 C:\PROGRA~2\VT3_8920\VT3\RESOUR~1\targets\CANVIEW4\lib\vt3_common\libvt3_common.a(IEC_Lib.o)
                0x08013998                DINT_TO_SINT
 .text.USINT_TO_SINT
                0x080139cc       0x24 C:\PROGRA~2\VT3_8920\VT3\RESOUR~1\targets\CANVIEW4\lib\vt3_common\libvt3_common.a(IEC_Lib.o)
                0x080139cc                USINT_TO_SINT
 .text.UINT_TO_SINT
                0x080139f0       0x2c C:\PROGRA~2\VT3_8920\VT3\RESOUR~1\targets\CANVIEW4\lib\vt3_common\libvt3_common.a(IEC_Lib.o)
                0x080139f0                UINT_TO_SINT
 .text.UDINT_TO_SINT
                0x08013a1c       0x2c C:\PROGRA~2\VT3_8920\VT3\RESOUR~1\targets\CANVIEW4\lib\vt3_common\libvt3_common.a(IEC_Lib.o)
                0x08013a1c                UDINT_TO_SINT
 .text.BYTE_TO_SINT
                0x08013a48       0x24 C:\PROGRA~2\VT3_8920\VT3\RESOUR~1\targets\CANVIEW4\lib\vt3_common\libvt3_common.a(IEC_Lib.o)
                0x08013a48                BYTE_TO_SINT
 .text.WORD_TO_SINT
                0x08013a6c       0x30 C:\PROGRA~2\VT3_8920\VT3\RESOUR~1\targets\CANVIEW4\lib\vt3_common\libvt3_common.a(IEC_Lib.o)
                0x08013a6c                WORD_TO_SINT
 .text.DWORD_TO_SINT
                0x08013a9c       0x2c C:\PROGRA~2\VT3_8920\VT3\RESOUR~1\targets\CANVIEW4\lib\vt3_common\libvt3_common.a(IEC_Lib.o)
                0x08013a9c                DWORD_TO_SINT
 .text.REAL_TO_SINT
                0x08013ac8       0x60 C:\PROGRA~2\VT3_8920\VT3\RESOUR~1\targets\CANVIEW4\lib\vt3_common\libvt3_common.a(IEC_Lib.o)
                0x08013ac8                REAL_TO_SINT
 .text.DINT_TO_INT
                0x08013b28       0x38 C:\PROGRA~2\VT3_8920\VT3\RESOUR~1\targets\CANVIEW4\lib\vt3_common\libvt3_common.a(IEC_Lib.o)
                0x08013b28                DINT_TO_INT
 .text.UINT_TO_INT
                0x08013b60       0x28 C:\PROGRA~2\VT3_8920\VT3\RESOUR~1\targets\CANVIEW4\lib\vt3_common\libvt3_common.a(IEC_Lib.o)
                0x08013b60                UINT_TO_INT
 .text.UDINT_TO_INT
                0x08013b88       0x30 C:\PROGRA~2\VT3_8920\VT3\RESOUR~1\targets\CANVIEW4\lib\vt3_common\libvt3_common.a(IEC_Lib.o)
                0x08013b88                UDINT_TO_INT
 .text.WORD_TO_INT
                0x08013bb8       0x20 C:\PROGRA~2\VT3_8920\VT3\RESOUR~1\targets\CANVIEW4\lib\vt3_common\libvt3_common.a(IEC_Lib.o)
                0x08013bb8                WORD_TO_INT
 .text.DWORD_TO_INT
                0x08013bd8       0x30 C:\PROGRA~2\VT3_8920\VT3\RESOUR~1\targets\CANVIEW4\lib\vt3_common\libvt3_common.a(IEC_Lib.o)
                0x08013bd8                DWORD_TO_INT
 .text.REAL_TO_INT
                0x08013c08       0x64 C:\PROGRA~2\VT3_8920\VT3\RESOUR~1\targets\CANVIEW4\lib\vt3_common\libvt3_common.a(IEC_Lib.o)
                0x08013c08                REAL_TO_INT
 .text.UDINT_TO_DINT
                0x08013c6c       0x24 C:\PROGRA~2\VT3_8920\VT3\RESOUR~1\targets\CANVIEW4\lib\vt3_common\libvt3_common.a(IEC_Lib.o)
                0x08013c6c                UDINT_TO_DINT
 .text.DWORD_TO_DINT
                0x08013c90       0x1c C:\PROGRA~2\VT3_8920\VT3\RESOUR~1\targets\CANVIEW4\lib\vt3_common\libvt3_common.a(IEC_Lib.o)
                0x08013c90                DWORD_TO_DINT
 .text.REAL_TO_DINT
                0x08013cac       0x5c C:\PROGRA~2\VT3_8920\VT3\RESOUR~1\targets\CANVIEW4\lib\vt3_common\libvt3_common.a(IEC_Lib.o)
                0x08013cac                REAL_TO_DINT
 .text.SINT_TO_USINT
                0x08013d08       0x20 C:\PROGRA~2\VT3_8920\VT3\RESOUR~1\targets\CANVIEW4\lib\vt3_common\libvt3_common.a(IEC_Lib.o)
                0x08013d08                SINT_TO_USINT
 .text.INT_TO_USINT
                0x08013d28       0x38 C:\PROGRA~2\VT3_8920\VT3\RESOUR~1\targets\CANVIEW4\lib\vt3_common\libvt3_common.a(IEC_Lib.o)
                0x08013d28                INT_TO_USINT
 .text.DINT_TO_USINT
                0x08013d60       0x34 C:\PROGRA~2\VT3_8920\VT3\RESOUR~1\targets\CANVIEW4\lib\vt3_common\libvt3_common.a(IEC_Lib.o)
                0x08013d60                DINT_TO_USINT
 .text.UINT_TO_USINT
                0x08013d94       0x2c C:\PROGRA~2\VT3_8920\VT3\RESOUR~1\targets\CANVIEW4\lib\vt3_common\libvt3_common.a(IEC_Lib.o)
                0x08013d94                UINT_TO_USINT
 .text.UDINT_TO_USINT
                0x08013dc0       0x2c C:\PROGRA~2\VT3_8920\VT3\RESOUR~1\targets\CANVIEW4\lib\vt3_common\libvt3_common.a(IEC_Lib.o)
                0x08013dc0                UDINT_TO_USINT
 .text.BYTE_TO_USINT
                0x08013dec       0x18 C:\PROGRA~2\VT3_8920\VT3\RESOUR~1\targets\CANVIEW4\lib\vt3_common\libvt3_common.a(IEC_Lib.o)
                0x08013dec                BYTE_TO_USINT
 .text.WORD_TO_USINT
                0x08013e04       0x30 C:\PROGRA~2\VT3_8920\VT3\RESOUR~1\targets\CANVIEW4\lib\vt3_common\libvt3_common.a(IEC_Lib.o)
                0x08013e04                WORD_TO_USINT
 .text.DWORD_TO_USINT
                0x08013e34       0x2c C:\PROGRA~2\VT3_8920\VT3\RESOUR~1\targets\CANVIEW4\lib\vt3_common\libvt3_common.a(IEC_Lib.o)
                0x08013e34                DWORD_TO_USINT
 .text.REAL_TO_USINT
                0x08013e60       0x58 C:\PROGRA~2\VT3_8920\VT3\RESOUR~1\targets\CANVIEW4\lib\vt3_common\libvt3_common.a(IEC_Lib.o)
                0x08013e60                REAL_TO_USINT
 .text.SINT_TO_UINT
                0x08013eb8       0x20 C:\PROGRA~2\VT3_8920\VT3\RESOUR~1\targets\CANVIEW4\lib\vt3_common\libvt3_common.a(IEC_Lib.o)
                0x08013eb8                SINT_TO_UINT
 .text.INT_TO_UINT
                0x08013ed8       0x24 C:\PROGRA~2\VT3_8920\VT3\RESOUR~1\targets\CANVIEW4\lib\vt3_common\libvt3_common.a(IEC_Lib.o)
                0x08013ed8                INT_TO_UINT
 .text.DINT_TO_UINT
                0x08013efc       0x34 C:\PROGRA~2\VT3_8920\VT3\RESOUR~1\targets\CANVIEW4\lib\vt3_common\libvt3_common.a(IEC_Lib.o)
                0x08013efc                DINT_TO_UINT
 .text.UDINT_TO_UINT
                0x08013f30       0x30 C:\PROGRA~2\VT3_8920\VT3\RESOUR~1\targets\CANVIEW4\lib\vt3_common\libvt3_common.a(IEC_Lib.o)
                0x08013f30                UDINT_TO_UINT
 .text.DWORD_TO_UINT
                0x08013f60       0x30 C:\PROGRA~2\VT3_8920\VT3\RESOUR~1\targets\CANVIEW4\lib\vt3_common\libvt3_common.a(IEC_Lib.o)
                0x08013f60                DWORD_TO_UINT
 .text.REAL_TO_UINT
                0x08013f90       0x58 C:\PROGRA~2\VT3_8920\VT3\RESOUR~1\targets\CANVIEW4\lib\vt3_common\libvt3_common.a(IEC_Lib.o)
                0x08013f90                REAL_TO_UINT
 .text.SINT_TO_UDINT
                0x08013fe8       0x20 C:\PROGRA~2\VT3_8920\VT3\RESOUR~1\targets\CANVIEW4\lib\vt3_common\libvt3_common.a(IEC_Lib.o)
                0x08013fe8                SINT_TO_UDINT
 .text.INT_TO_UDINT
                0x08014008       0x28 C:\PROGRA~2\VT3_8920\VT3\RESOUR~1\targets\CANVIEW4\lib\vt3_common\libvt3_common.a(IEC_Lib.o)
                0x08014008                INT_TO_UDINT
 .text.DINT_TO_UDINT
                0x08014030       0x24 C:\PROGRA~2\VT3_8920\VT3\RESOUR~1\targets\CANVIEW4\lib\vt3_common\libvt3_common.a(IEC_Lib.o)
                0x08014030                DINT_TO_UDINT
 .text.REAL_TO_UDINT
                0x08014054       0x54 C:\PROGRA~2\VT3_8920\VT3\RESOUR~1\targets\CANVIEW4\lib\vt3_common\libvt3_common.a(IEC_Lib.o)
                0x08014054                REAL_TO_UDINT
 .text.SINT_TO_BYTE
                0x080140a8       0x20 C:\PROGRA~2\VT3_8920\VT3\RESOUR~1\targets\CANVIEW4\lib\vt3_common\libvt3_common.a(IEC_Lib.o)
                0x080140a8                SINT_TO_BYTE
 .text.INT_TO_BYTE
                0x080140c8       0x38 C:\PROGRA~2\VT3_8920\VT3\RESOUR~1\targets\CANVIEW4\lib\vt3_common\libvt3_common.a(IEC_Lib.o)
                0x080140c8                INT_TO_BYTE
 .text.DINT_TO_BYTE
                0x08014100       0x34 C:\PROGRA~2\VT3_8920\VT3\RESOUR~1\targets\CANVIEW4\lib\vt3_common\libvt3_common.a(IEC_Lib.o)
                0x08014100                DINT_TO_BYTE
 .text.UINT_TO_BYTE
                0x08014134       0x2c C:\PROGRA~2\VT3_8920\VT3\RESOUR~1\targets\CANVIEW4\lib\vt3_common\libvt3_common.a(IEC_Lib.o)
                0x08014134                UINT_TO_BYTE
 .text.UDINT_TO_BYTE
                0x08014160       0x2c C:\PROGRA~2\VT3_8920\VT3\RESOUR~1\targets\CANVIEW4\lib\vt3_common\libvt3_common.a(IEC_Lib.o)
                0x08014160                UDINT_TO_BYTE
 .text.WORD_TO_BYTE
                0x0801418c       0x30 C:\PROGRA~2\VT3_8920\VT3\RESOUR~1\targets\CANVIEW4\lib\vt3_common\libvt3_common.a(IEC_Lib.o)
                0x0801418c                WORD_TO_BYTE
 .text.DWORD_TO_BYTE
                0x080141bc       0x2c C:\PROGRA~2\VT3_8920\VT3\RESOUR~1\targets\CANVIEW4\lib\vt3_common\libvt3_common.a(IEC_Lib.o)
                0x080141bc                DWORD_TO_BYTE
 .text.REAL_TO_BYTE
                0x080141e8       0x48 C:\PROGRA~2\VT3_8920\VT3\RESOUR~1\targets\CANVIEW4\lib\vt3_common\libvt3_common.a(IEC_Lib.o)
                0x080141e8                REAL_TO_BYTE
 .text.SINT_TO_WORD
                0x08014230       0x24 C:\PROGRA~2\VT3_8920\VT3\RESOUR~1\targets\CANVIEW4\lib\vt3_common\libvt3_common.a(IEC_Lib.o)
                0x08014230                SINT_TO_WORD
 .text.INT_TO_WORD
                0x08014254       0x28 C:\PROGRA~2\VT3_8920\VT3\RESOUR~1\targets\CANVIEW4\lib\vt3_common\libvt3_common.a(IEC_Lib.o)
                0x08014254                INT_TO_WORD
 .text.DINT_TO_WORD
                0x0801427c       0x38 C:\PROGRA~2\VT3_8920\VT3\RESOUR~1\targets\CANVIEW4\lib\vt3_common\libvt3_common.a(IEC_Lib.o)
                0x0801427c                DINT_TO_WORD
 .text.UDINT_TO_WORD
                0x080142b4       0x30 C:\PROGRA~2\VT3_8920\VT3\RESOUR~1\targets\CANVIEW4\lib\vt3_common\libvt3_common.a(IEC_Lib.o)
                0x080142b4                UDINT_TO_WORD
 .text.DWORD_TO_WORD
                0x080142e4       0x30 C:\PROGRA~2\VT3_8920\VT3\RESOUR~1\targets\CANVIEW4\lib\vt3_common\libvt3_common.a(IEC_Lib.o)
                0x080142e4                DWORD_TO_WORD
 .text.REAL_TO_WORD
                0x08014314       0x48 C:\PROGRA~2\VT3_8920\VT3\RESOUR~1\targets\CANVIEW4\lib\vt3_common\libvt3_common.a(IEC_Lib.o)
                0x08014314                REAL_TO_WORD
 .text.SINT_TO_DWORD
                0x0801435c       0x20 C:\PROGRA~2\VT3_8920\VT3\RESOUR~1\targets\CANVIEW4\lib\vt3_common\libvt3_common.a(IEC_Lib.o)
                0x0801435c                SINT_TO_DWORD
 .text.INT_TO_DWORD
                0x0801437c       0x28 C:\PROGRA~2\VT3_8920\VT3\RESOUR~1\targets\CANVIEW4\lib\vt3_common\libvt3_common.a(IEC_Lib.o)
                0x0801437c                INT_TO_DWORD
 .text.DINT_TO_DWORD
                0x080143a4       0x24 C:\PROGRA~2\VT3_8920\VT3\RESOUR~1\targets\CANVIEW4\lib\vt3_common\libvt3_common.a(IEC_Lib.o)
                0x080143a4                DINT_TO_DWORD
 .text.REAL_TO_DWORD
                0x080143c8       0x54 C:\PROGRA~2\VT3_8920\VT3\RESOUR~1\targets\CANVIEW4\lib\vt3_common\libvt3_common.a(IEC_Lib.o)
                0x080143c8                REAL_TO_DWORD
 .text.TRUNC_REAL
                0x0801441c       0x24 C:\PROGRA~2\VT3_8920\VT3\RESOUR~1\targets\CANVIEW4\lib\vt3_common\libvt3_common.a(IEC_Lib.o)
                0x0801441c                TRUNC_REAL
 .text.ABS_SINT
                0x08014440       0x20 C:\PROGRA~2\VT3_8920\VT3\RESOUR~1\targets\CANVIEW4\lib\vt3_common\libvt3_common.a(IEC_Lib.o)
                0x08014440                ABS_SINT
 .text.ABS_INT  0x08014460       0x44 C:\PROGRA~2\VT3_8920\VT3\RESOUR~1\targets\CANVIEW4\lib\vt3_common\libvt3_common.a(IEC_Lib.o)
                0x08014460                ABS_INT
 .text.ABS_DINT
                0x080144a4       0x38 C:\PROGRA~2\VT3_8920\VT3\RESOUR~1\targets\CANVIEW4\lib\vt3_common\libvt3_common.a(IEC_Lib.o)
                0x080144a4                ABS_DINT
 .text.SQRT_REAL
                0x080144dc       0x58 C:\PROGRA~2\VT3_8920\VT3\RESOUR~1\targets\CANVIEW4\lib\vt3_common\libvt3_common.a(IEC_Lib.o)
                0x080144dc                SQRT_REAL
 .text.LN_REAL  0x08014534       0x58 C:\PROGRA~2\VT3_8920\VT3\RESOUR~1\targets\CANVIEW4\lib\vt3_common\libvt3_common.a(IEC_Lib.o)
                0x08014534                LN_REAL
 .text.LOG_REAL
                0x0801458c       0x58 C:\PROGRA~2\VT3_8920\VT3\RESOUR~1\targets\CANVIEW4\lib\vt3_common\libvt3_common.a(IEC_Lib.o)
                0x0801458c                LOG_REAL
 .text.EXP_REAL
                0x080145e4       0x28 C:\PROGRA~2\VT3_8920\VT3\RESOUR~1\targets\CANVIEW4\lib\vt3_common\libvt3_common.a(IEC_Lib.o)
                0x080145e4                EXP_REAL
 .text.TAN_REAL
                0x0801460c       0x28 C:\PROGRA~2\VT3_8920\VT3\RESOUR~1\targets\CANVIEW4\lib\vt3_common\libvt3_common.a(IEC_Lib.o)
                0x0801460c                TAN_REAL
 .text.ASIN_REAL
                0x08014634       0x98 C:\PROGRA~2\VT3_8920\VT3\RESOUR~1\targets\CANVIEW4\lib\vt3_common\libvt3_common.a(IEC_Lib.o)
                0x08014634                ASIN_REAL
 .text.ACOS_REAL
                0x080146cc       0x98 C:\PROGRA~2\VT3_8920\VT3\RESOUR~1\targets\CANVIEW4\lib\vt3_common\libvt3_common.a(IEC_Lib.o)
                0x080146cc                ACOS_REAL
 .text.ADD_REAL
                0x08014764       0x34 C:\PROGRA~2\VT3_8920\VT3\RESOUR~1\targets\CANVIEW4\lib\vt3_common\libvt3_common.a(IEC_Lib.o)
                0x08014764                ADD_REAL
 .text.MUL_REAL
                0x08014798       0x34 C:\PROGRA~2\VT3_8920\VT3\RESOUR~1\targets\CANVIEW4\lib\vt3_common\libvt3_common.a(IEC_Lib.o)
                0x08014798                MUL_REAL
 .text.SUB_REAL
                0x080147cc       0x34 C:\PROGRA~2\VT3_8920\VT3\RESOUR~1\targets\CANVIEW4\lib\vt3_common\libvt3_common.a(IEC_Lib.o)
                0x080147cc                SUB_REAL
 .text.DIV_SINT
                0x08014800       0x40 C:\PROGRA~2\VT3_8920\VT3\RESOUR~1\targets\CANVIEW4\lib\vt3_common\libvt3_common.a(IEC_Lib.o)
                0x08014800                DIV_SINT
 .text.DIV_INT  0x08014840       0x64 C:\PROGRA~2\VT3_8920\VT3\RESOUR~1\targets\CANVIEW4\lib\vt3_common\libvt3_common.a(IEC_Lib.o)
                0x08014840                DIV_INT
 .text.DIV_DINT
                0x080148a4       0x50 C:\PROGRA~2\VT3_8920\VT3\RESOUR~1\targets\CANVIEW4\lib\vt3_common\libvt3_common.a(IEC_Lib.o)
                0x080148a4                DIV_DINT
 .text.DIV_USINT
                0x080148f4       0x38 C:\PROGRA~2\VT3_8920\VT3\RESOUR~1\targets\CANVIEW4\lib\vt3_common\libvt3_common.a(IEC_Lib.o)
                0x080148f4                DIV_USINT
 .text.DIV_UINT
                0x0801492c       0x38 C:\PROGRA~2\VT3_8920\VT3\RESOUR~1\targets\CANVIEW4\lib\vt3_common\libvt3_common.a(IEC_Lib.o)
                0x0801492c                DIV_UINT
 .text.DIV_UDINT
                0x08014964       0x30 C:\PROGRA~2\VT3_8920\VT3\RESOUR~1\targets\CANVIEW4\lib\vt3_common\libvt3_common.a(IEC_Lib.o)
                0x08014964                DIV_UDINT
 .text.DIV_BYTE
                0x08014994       0x38 C:\PROGRA~2\VT3_8920\VT3\RESOUR~1\targets\CANVIEW4\lib\vt3_common\libvt3_common.a(IEC_Lib.o)
                0x08014994                DIV_BYTE
 .text.DIV_WORD
                0x080149cc       0x40 C:\PROGRA~2\VT3_8920\VT3\RESOUR~1\targets\CANVIEW4\lib\vt3_common\libvt3_common.a(IEC_Lib.o)
                0x080149cc                DIV_WORD
 .text.DIV_DWORD
                0x08014a0c       0x30 C:\PROGRA~2\VT3_8920\VT3\RESOUR~1\targets\CANVIEW4\lib\vt3_common\libvt3_common.a(IEC_Lib.o)
                0x08014a0c                DIV_DWORD
 .text.DIV_REAL
                0x08014a3c       0x4c C:\PROGRA~2\VT3_8920\VT3\RESOUR~1\targets\CANVIEW4\lib\vt3_common\libvt3_common.a(IEC_Lib.o)
                0x08014a3c                DIV_REAL
 .text.MOD_SINT
                0x08014a88       0x3c C:\PROGRA~2\VT3_8920\VT3\RESOUR~1\targets\CANVIEW4\lib\vt3_common\libvt3_common.a(IEC_Lib.o)
                0x08014a88                MOD_SINT
 .text.MOD_INT  0x08014ac4       0x6c C:\PROGRA~2\VT3_8920\VT3\RESOUR~1\targets\CANVIEW4\lib\vt3_common\libvt3_common.a(IEC_Lib.o)
                0x08014ac4                MOD_INT
 .text.MOD_DINT
                0x08014b30       0x54 C:\PROGRA~2\VT3_8920\VT3\RESOUR~1\targets\CANVIEW4\lib\vt3_common\libvt3_common.a(IEC_Lib.o)
                0x08014b30                MOD_DINT
 .text.MOD_USINT
                0x08014b84       0x3c C:\PROGRA~2\VT3_8920\VT3\RESOUR~1\targets\CANVIEW4\lib\vt3_common\libvt3_common.a(IEC_Lib.o)
                0x08014b84                MOD_USINT
 .text.MOD_UINT
                0x08014bc0       0x3c C:\PROGRA~2\VT3_8920\VT3\RESOUR~1\targets\CANVIEW4\lib\vt3_common\libvt3_common.a(IEC_Lib.o)
                0x08014bc0                MOD_UINT
 .text.MOD_UDINT
                0x08014bfc       0x38 C:\PROGRA~2\VT3_8920\VT3\RESOUR~1\targets\CANVIEW4\lib\vt3_common\libvt3_common.a(IEC_Lib.o)
                0x08014bfc                MOD_UDINT
 .text.MOD_BYTE
                0x08014c34       0x3c C:\PROGRA~2\VT3_8920\VT3\RESOUR~1\targets\CANVIEW4\lib\vt3_common\libvt3_common.a(IEC_Lib.o)
                0x08014c34                MOD_BYTE
 .text.MOD_WORD
                0x08014c70       0x44 C:\PROGRA~2\VT3_8920\VT3\RESOUR~1\targets\CANVIEW4\lib\vt3_common\libvt3_common.a(IEC_Lib.o)
                0x08014c70                MOD_WORD
 .text.MOD_DWORD
                0x08014cb4       0x38 C:\PROGRA~2\VT3_8920\VT3\RESOUR~1\targets\CANVIEW4\lib\vt3_common\libvt3_common.a(IEC_Lib.o)
                0x08014cb4                MOD_DWORD
 .text.EXPT_REAL
                0x08014cec       0x30 C:\PROGRA~2\VT3_8920\VT3\RESOUR~1\targets\CANVIEW4\lib\vt3_common\libvt3_common.a(IEC_Lib.o)
                0x08014cec                EXPT_REAL
 .text.ROR_BYTE
                0x08014d1c       0x40 C:\PROGRA~2\VT3_8920\VT3\RESOUR~1\targets\CANVIEW4\lib\vt3_common\libvt3_common.a(IEC_Lib.o)
                0x08014d1c                ROR_BYTE
 .text.ROR_WORD
                0x08014d5c       0x44 C:\PROGRA~2\VT3_8920\VT3\RESOUR~1\targets\CANVIEW4\lib\vt3_common\libvt3_common.a(IEC_Lib.o)
                0x08014d5c                ROR_WORD
 .text.ROR_DWORD
                0x08014da0       0x30 C:\PROGRA~2\VT3_8920\VT3\RESOUR~1\targets\CANVIEW4\lib\vt3_common\libvt3_common.a(IEC_Lib.o)
                0x08014da0                ROR_DWORD
 .text.ROL_BYTE
                0x08014dd0       0x40 C:\PROGRA~2\VT3_8920\VT3\RESOUR~1\targets\CANVIEW4\lib\vt3_common\libvt3_common.a(IEC_Lib.o)
                0x08014dd0                ROL_BYTE
 .text.ROL_WORD
                0x08014e10       0x44 C:\PROGRA~2\VT3_8920\VT3\RESOUR~1\targets\CANVIEW4\lib\vt3_common\libvt3_common.a(IEC_Lib.o)
                0x08014e10                ROL_WORD
 .text.ROL_DWORD
                0x08014e54       0x30 C:\PROGRA~2\VT3_8920\VT3\RESOUR~1\targets\CANVIEW4\lib\vt3_common\libvt3_common.a(IEC_Lib.o)
                0x08014e54                ROL_DWORD
 .text.SEL_BOOL
                0x08014e84       0x2c C:\PROGRA~2\VT3_8920\VT3\RESOUR~1\targets\CANVIEW4\lib\vt3_common\libvt3_common.a(IEC_Lib.o)
                0x08014e84                SEL_BOOL
 .text.SEL_SINT
                0x08014eb0       0x2c C:\PROGRA~2\VT3_8920\VT3\RESOUR~1\targets\CANVIEW4\lib\vt3_common\libvt3_common.a(IEC_Lib.o)
                0x08014eb0                SEL_SINT
 .text.SEL_INT  0x08014edc       0x30 C:\PROGRA~2\VT3_8920\VT3\RESOUR~1\targets\CANVIEW4\lib\vt3_common\libvt3_common.a(IEC_Lib.o)
                0x08014edc                SEL_INT
 .text.SEL_DINT
                0x08014f0c       0x28 C:\PROGRA~2\VT3_8920\VT3\RESOUR~1\targets\CANVIEW4\lib\vt3_common\libvt3_common.a(IEC_Lib.o)
                0x08014f0c                SEL_DINT
 .text.SEL_USINT
                0x08014f34       0x2c C:\PROGRA~2\VT3_8920\VT3\RESOUR~1\targets\CANVIEW4\lib\vt3_common\libvt3_common.a(IEC_Lib.o)
                0x08014f34                SEL_USINT
 .text.SEL_UINT
                0x08014f60       0x2c C:\PROGRA~2\VT3_8920\VT3\RESOUR~1\targets\CANVIEW4\lib\vt3_common\libvt3_common.a(IEC_Lib.o)
                0x08014f60                SEL_UINT
 .text.SEL_UDINT
                0x08014f8c       0x28 C:\PROGRA~2\VT3_8920\VT3\RESOUR~1\targets\CANVIEW4\lib\vt3_common\libvt3_common.a(IEC_Lib.o)
                0x08014f8c                SEL_UDINT
 .text.SEL_REAL
                0x08014fb4       0x30 C:\PROGRA~2\VT3_8920\VT3\RESOUR~1\targets\CANVIEW4\lib\vt3_common\libvt3_common.a(IEC_Lib.o)
                0x08014fb4                SEL_REAL
 .text.SEL_TIME
                0x08014fe4       0x28 C:\PROGRA~2\VT3_8920\VT3\RESOUR~1\targets\CANVIEW4\lib\vt3_common\libvt3_common.a(IEC_Lib.o)
                0x08014fe4                SEL_TIME
 .text.SEL_DATE
                0x0801500c       0x28 C:\PROGRA~2\VT3_8920\VT3\RESOUR~1\targets\CANVIEW4\lib\vt3_common\libvt3_common.a(IEC_Lib.o)
                0x0801500c                SEL_DATE
 .text.SEL_BYTE
                0x08015034       0x2c C:\PROGRA~2\VT3_8920\VT3\RESOUR~1\targets\CANVIEW4\lib\vt3_common\libvt3_common.a(IEC_Lib.o)
                0x08015034                SEL_BYTE
 .text.SEL_WORD
                0x08015060       0x30 C:\PROGRA~2\VT3_8920\VT3\RESOUR~1\targets\CANVIEW4\lib\vt3_common\libvt3_common.a(IEC_Lib.o)
                0x08015060                SEL_WORD
 .text.SEL_DWORD
                0x08015090       0x28 C:\PROGRA~2\VT3_8920\VT3\RESOUR~1\targets\CANVIEW4\lib\vt3_common\libvt3_common.a(IEC_Lib.o)
                0x08015090                SEL_DWORD
 .text.SEL_TIME_OF_DAY
                0x080150b8       0x28 C:\PROGRA~2\VT3_8920\VT3\RESOUR~1\targets\CANVIEW4\lib\vt3_common\libvt3_common.a(IEC_Lib.o)
                0x080150b8                SEL_TIME_OF_DAY
 .text.SEL_DATE_AND_TIME
                0x080150e0       0x48 C:\PROGRA~2\VT3_8920\VT3\RESOUR~1\targets\CANVIEW4\lib\vt3_common\libvt3_common.a(IEC_Lib.o)
                0x080150e0                SEL_DATE_AND_TIME
 .text.SEL_STRING
                0x08015128       0x28 C:\PROGRA~2\VT3_8920\VT3\RESOUR~1\targets\CANVIEW4\lib\vt3_common\libvt3_common.a(IEC_Lib.o)
                0x08015128                SEL_STRING
 .text.SEL_WSTRING
                0x08015150       0x28 C:\PROGRA~2\VT3_8920\VT3\RESOUR~1\targets\CANVIEW4\lib\vt3_common\libvt3_common.a(IEC_Lib.o)
                0x08015150                SEL_WSTRING
 .text.MAX_SINT
                0x08015178       0x2c C:\PROGRA~2\VT3_8920\VT3\RESOUR~1\targets\CANVIEW4\lib\vt3_common\libvt3_common.a(IEC_Lib.o)
                0x08015178                MAX_SINT
 .text.MAX_INT  0x080151a4       0x30 C:\PROGRA~2\VT3_8920\VT3\RESOUR~1\targets\CANVIEW4\lib\vt3_common\libvt3_common.a(IEC_Lib.o)
                0x080151a4                MAX_INT
 .text.MAX_DINT
                0x080151d4       0x24 C:\PROGRA~2\VT3_8920\VT3\RESOUR~1\targets\CANVIEW4\lib\vt3_common\libvt3_common.a(IEC_Lib.o)
                0x080151d4                MAX_DINT
 .text.MAX_USINT
                0x080151f8       0x2c C:\PROGRA~2\VT3_8920\VT3\RESOUR~1\targets\CANVIEW4\lib\vt3_common\libvt3_common.a(IEC_Lib.o)
                0x080151f8                MAX_USINT
 .text.MAX_UINT
                0x08015224       0x2c C:\PROGRA~2\VT3_8920\VT3\RESOUR~1\targets\CANVIEW4\lib\vt3_common\libvt3_common.a(IEC_Lib.o)
                0x08015224                MAX_UINT
 .text.MAX_UDINT
                0x08015250       0x24 C:\PROGRA~2\VT3_8920\VT3\RESOUR~1\targets\CANVIEW4\lib\vt3_common\libvt3_common.a(IEC_Lib.o)
                0x08015250                MAX_UDINT
 .text.MAX_BOOL
                0x08015274       0x2c C:\PROGRA~2\VT3_8920\VT3\RESOUR~1\targets\CANVIEW4\lib\vt3_common\libvt3_common.a(IEC_Lib.o)
                0x08015274                MAX_BOOL
 .text.MAX_BYTE
                0x080152a0       0x2c C:\PROGRA~2\VT3_8920\VT3\RESOUR~1\targets\CANVIEW4\lib\vt3_common\libvt3_common.a(IEC_Lib.o)
                0x080152a0                MAX_BYTE
 .text.MAX_WORD
                0x080152cc       0x30 C:\PROGRA~2\VT3_8920\VT3\RESOUR~1\targets\CANVIEW4\lib\vt3_common\libvt3_common.a(IEC_Lib.o)
                0x080152cc                MAX_WORD
 .text.MAX_DWORD
                0x080152fc       0x24 C:\PROGRA~2\VT3_8920\VT3\RESOUR~1\targets\CANVIEW4\lib\vt3_common\libvt3_common.a(IEC_Lib.o)
                0x080152fc                MAX_DWORD
 .text.MAX_REAL
                0x08015320       0x38 C:\PROGRA~2\VT3_8920\VT3\RESOUR~1\targets\CANVIEW4\lib\vt3_common\libvt3_common.a(IEC_Lib.o)
                0x08015320                MAX_REAL
 .text.MAX_TIME
                0x08015358       0x24 C:\PROGRA~2\VT3_8920\VT3\RESOUR~1\targets\CANVIEW4\lib\vt3_common\libvt3_common.a(IEC_Lib.o)
                0x08015358                MAX_TIME
 .text.MAX_DATE
                0x0801537c       0x24 C:\PROGRA~2\VT3_8920\VT3\RESOUR~1\targets\CANVIEW4\lib\vt3_common\libvt3_common.a(IEC_Lib.o)
                0x0801537c                MAX_DATE
 .text.MAX_TIME_OF_DAY
                0x080153a0       0x24 C:\PROGRA~2\VT3_8920\VT3\RESOUR~1\targets\CANVIEW4\lib\vt3_common\libvt3_common.a(IEC_Lib.o)
                0x080153a0                MAX_TIME_OF_DAY
 .text.MAX_DATE_AND_TIME
                0x080153c4       0x7c C:\PROGRA~2\VT3_8920\VT3\RESOUR~1\targets\CANVIEW4\lib\vt3_common\libvt3_common.a(IEC_Lib.o)
                0x080153c4                MAX_DATE_AND_TIME
 .text.MIN_SINT
                0x08015440       0x2c C:\PROGRA~2\VT3_8920\VT3\RESOUR~1\targets\CANVIEW4\lib\vt3_common\libvt3_common.a(IEC_Lib.o)
                0x08015440                MIN_SINT
 .text.MIN_INT  0x0801546c       0x30 C:\PROGRA~2\VT3_8920\VT3\RESOUR~1\targets\CANVIEW4\lib\vt3_common\libvt3_common.a(IEC_Lib.o)
                0x0801546c                MIN_INT
 .text.MIN_DINT
                0x0801549c       0x24 C:\PROGRA~2\VT3_8920\VT3\RESOUR~1\targets\CANVIEW4\lib\vt3_common\libvt3_common.a(IEC_Lib.o)
                0x0801549c                MIN_DINT
 .text.MIN_USINT
                0x080154c0       0x2c C:\PROGRA~2\VT3_8920\VT3\RESOUR~1\targets\CANVIEW4\lib\vt3_common\libvt3_common.a(IEC_Lib.o)
                0x080154c0                MIN_USINT
 .text.MIN_UINT
                0x080154ec       0x2c C:\PROGRA~2\VT3_8920\VT3\RESOUR~1\targets\CANVIEW4\lib\vt3_common\libvt3_common.a(IEC_Lib.o)
                0x080154ec                MIN_UINT
 .text.MIN_UDINT
                0x08015518       0x24 C:\PROGRA~2\VT3_8920\VT3\RESOUR~1\targets\CANVIEW4\lib\vt3_common\libvt3_common.a(IEC_Lib.o)
                0x08015518                MIN_UDINT
 .text.MIN_BOOL
                0x0801553c       0x2c C:\PROGRA~2\VT3_8920\VT3\RESOUR~1\targets\CANVIEW4\lib\vt3_common\libvt3_common.a(IEC_Lib.o)
                0x0801553c                MIN_BOOL
 .text.MIN_BYTE
                0x08015568       0x2c C:\PROGRA~2\VT3_8920\VT3\RESOUR~1\targets\CANVIEW4\lib\vt3_common\libvt3_common.a(IEC_Lib.o)
                0x08015568                MIN_BYTE
 .text.MIN_WORD
                0x08015594       0x30 C:\PROGRA~2\VT3_8920\VT3\RESOUR~1\targets\CANVIEW4\lib\vt3_common\libvt3_common.a(IEC_Lib.o)
                0x08015594                MIN_WORD
 .text.MIN_DWORD
                0x080155c4       0x24 C:\PROGRA~2\VT3_8920\VT3\RESOUR~1\targets\CANVIEW4\lib\vt3_common\libvt3_common.a(IEC_Lib.o)
                0x080155c4                MIN_DWORD
 .text.MIN_REAL
                0x080155e8       0x38 C:\PROGRA~2\VT3_8920\VT3\RESOUR~1\targets\CANVIEW4\lib\vt3_common\libvt3_common.a(IEC_Lib.o)
                0x080155e8                MIN_REAL
 .text.MIN_TIME
                0x08015620       0x24 C:\PROGRA~2\VT3_8920\VT3\RESOUR~1\targets\CANVIEW4\lib\vt3_common\libvt3_common.a(IEC_Lib.o)
                0x08015620                MIN_TIME
 .text.MIN_DATE
                0x08015644       0x24 C:\PROGRA~2\VT3_8920\VT3\RESOUR~1\targets\CANVIEW4\lib\vt3_common\libvt3_common.a(IEC_Lib.o)
                0x08015644                MIN_DATE
 .text.MIN_TIME_OF_DAY
                0x08015668       0x24 C:\PROGRA~2\VT3_8920\VT3\RESOUR~1\targets\CANVIEW4\lib\vt3_common\libvt3_common.a(IEC_Lib.o)
                0x08015668                MIN_TIME_OF_DAY
 .text.MIN_DATE_AND_TIME
                0x0801568c       0x58 C:\PROGRA~2\VT3_8920\VT3\RESOUR~1\targets\CANVIEW4\lib\vt3_common\libvt3_common.a(IEC_Lib.o)
                0x0801568c                MIN_DATE_AND_TIME
 .text.LIMIT_SINT
                0x080156e4       0x38 C:\PROGRA~2\VT3_8920\VT3\RESOUR~1\targets\CANVIEW4\lib\vt3_common\libvt3_common.a(IEC_Lib.o)
                0x080156e4                LIMIT_SINT
 .text.LIMIT_INT
                0x0801571c       0x44 C:\PROGRA~2\VT3_8920\VT3\RESOUR~1\targets\CANVIEW4\lib\vt3_common\libvt3_common.a(IEC_Lib.o)
                0x0801571c                LIMIT_INT
 .text.LIMIT_DINT
                0x08015760       0x34 C:\PROGRA~2\VT3_8920\VT3\RESOUR~1\targets\CANVIEW4\lib\vt3_common\libvt3_common.a(IEC_Lib.o)
                0x08015760                LIMIT_DINT
 .text.LIMIT_USINT
                0x08015794       0x38 C:\PROGRA~2\VT3_8920\VT3\RESOUR~1\targets\CANVIEW4\lib\vt3_common\libvt3_common.a(IEC_Lib.o)
                0x08015794                LIMIT_USINT
 .text.LIMIT_UINT
                0x080157cc       0x38 C:\PROGRA~2\VT3_8920\VT3\RESOUR~1\targets\CANVIEW4\lib\vt3_common\libvt3_common.a(IEC_Lib.o)
                0x080157cc                LIMIT_UINT
 .text.LIMIT_UDINT
                0x08015804       0x34 C:\PROGRA~2\VT3_8920\VT3\RESOUR~1\targets\CANVIEW4\lib\vt3_common\libvt3_common.a(IEC_Lib.o)
                0x08015804                LIMIT_UDINT
 .text.LIMIT_BOOL
                0x08015838       0x38 C:\PROGRA~2\VT3_8920\VT3\RESOUR~1\targets\CANVIEW4\lib\vt3_common\libvt3_common.a(IEC_Lib.o)
                0x08015838                LIMIT_BOOL
 .text.LIMIT_BYTE
                0x08015870       0x38 C:\PROGRA~2\VT3_8920\VT3\RESOUR~1\targets\CANVIEW4\lib\vt3_common\libvt3_common.a(IEC_Lib.o)
                0x08015870                LIMIT_BYTE
 .text.LIMIT_WORD
                0x080158a8       0x44 C:\PROGRA~2\VT3_8920\VT3\RESOUR~1\targets\CANVIEW4\lib\vt3_common\libvt3_common.a(IEC_Lib.o)
                0x080158a8                LIMIT_WORD
 .text.LIMIT_DWORD
                0x080158ec       0x34 C:\PROGRA~2\VT3_8920\VT3\RESOUR~1\targets\CANVIEW4\lib\vt3_common\libvt3_common.a(IEC_Lib.o)
                0x080158ec                LIMIT_DWORD
 .text.LIMIT_REAL
                0x08015920       0x54 C:\PROGRA~2\VT3_8920\VT3\RESOUR~1\targets\CANVIEW4\lib\vt3_common\libvt3_common.a(IEC_Lib.o)
                0x08015920                LIMIT_REAL
 .text.LIMIT_TIME
                0x08015974       0x34 C:\PROGRA~2\VT3_8920\VT3\RESOUR~1\targets\CANVIEW4\lib\vt3_common\libvt3_common.a(IEC_Lib.o)
                0x08015974                LIMIT_TIME
 .text.LIMIT_DATE
                0x080159a8       0x34 C:\PROGRA~2\VT3_8920\VT3\RESOUR~1\targets\CANVIEW4\lib\vt3_common\libvt3_common.a(IEC_Lib.o)
                0x080159a8                LIMIT_DATE
 .text.LIMIT_TIME_OF_DAY
                0x080159dc       0x34 C:\PROGRA~2\VT3_8920\VT3\RESOUR~1\targets\CANVIEW4\lib\vt3_common\libvt3_common.a(IEC_Lib.o)
                0x080159dc                LIMIT_TIME_OF_DAY
 .text.LIMIT_DATE_AND_TIME
                0x08015a10       0x80 C:\PROGRA~2\VT3_8920\VT3\RESOUR~1\targets\CANVIEW4\lib\vt3_common\libvt3_common.a(IEC_Lib.o)
                0x08015a10                LIMIT_DATE_AND_TIME
 .text.MUX_BOOL
                0x08015a90       0x88 C:\PROGRA~2\VT3_8920\VT3\RESOUR~1\targets\CANVIEW4\lib\vt3_common\libvt3_common.a(IEC_Lib.o)
                0x08015a90                MUX_BOOL
 .text.MUX_SINT
                0x08015b18       0xa4 C:\PROGRA~2\VT3_8920\VT3\RESOUR~1\targets\CANVIEW4\lib\vt3_common\libvt3_common.a(IEC_Lib.o)
                0x08015b18                MUX_SINT
 .text.MUX_INT  0x08015bbc       0xa4 C:\PROGRA~2\VT3_8920\VT3\RESOUR~1\targets\CANVIEW4\lib\vt3_common\libvt3_common.a(IEC_Lib.o)
                0x08015bbc                MUX_INT
 .text.MUX_DINT
                0x08015c60       0xa4 C:\PROGRA~2\VT3_8920\VT3\RESOUR~1\targets\CANVIEW4\lib\vt3_common\libvt3_common.a(IEC_Lib.o)
                0x08015c60                MUX_DINT
 .text.MUX_USINT
                0x08015d04       0xa4 C:\PROGRA~2\VT3_8920\VT3\RESOUR~1\targets\CANVIEW4\lib\vt3_common\libvt3_common.a(IEC_Lib.o)
                0x08015d04                MUX_USINT
 .text.MUX_UINT
                0x08015da8       0x88 C:\PROGRA~2\VT3_8920\VT3\RESOUR~1\targets\CANVIEW4\lib\vt3_common\libvt3_common.a(IEC_Lib.o)
                0x08015da8                MUX_UINT
 .text.MUX_UDINT
                0x08015e30       0xa4 C:\PROGRA~2\VT3_8920\VT3\RESOUR~1\targets\CANVIEW4\lib\vt3_common\libvt3_common.a(IEC_Lib.o)
                0x08015e30                MUX_UDINT
 .text.MUX_REAL
                0x08015ed4       0x8c C:\PROGRA~2\VT3_8920\VT3\RESOUR~1\targets\CANVIEW4\lib\vt3_common\libvt3_common.a(IEC_Lib.o)
                0x08015ed4                MUX_REAL
 .text.MUX_TIME
                0x08015f60       0xa4 C:\PROGRA~2\VT3_8920\VT3\RESOUR~1\targets\CANVIEW4\lib\vt3_common\libvt3_common.a(IEC_Lib.o)
                0x08015f60                MUX_TIME
 .text.MUX_DATE
                0x08016004       0xa0 C:\PROGRA~2\VT3_8920\VT3\RESOUR~1\targets\CANVIEW4\lib\vt3_common\libvt3_common.a(IEC_Lib.o)
                0x08016004                MUX_DATE
 .text.MUX_TIME_OF_DAY
                0x080160a4       0xa0 C:\PROGRA~2\VT3_8920\VT3\RESOUR~1\targets\CANVIEW4\lib\vt3_common\libvt3_common.a(IEC_Lib.o)
                0x080160a4                MUX_TIME_OF_DAY
 .text.MUX_DATE_AND_TIME
                0x08016144       0xc8 C:\PROGRA~2\VT3_8920\VT3\RESOUR~1\targets\CANVIEW4\lib\vt3_common\libvt3_common.a(IEC_Lib.o)
                0x08016144                MUX_DATE_AND_TIME
 .text.MUX_STRING
                0x0801620c       0xa0 C:\PROGRA~2\VT3_8920\VT3\RESOUR~1\targets\CANVIEW4\lib\vt3_common\libvt3_common.a(IEC_Lib.o)
                0x0801620c                MUX_STRING
 .text.MUX_WSTRING
                0x080162ac       0xa0 C:\PROGRA~2\VT3_8920\VT3\RESOUR~1\targets\CANVIEW4\lib\vt3_common\libvt3_common.a(IEC_Lib.o)
                0x080162ac                MUX_WSTRING
 .text.MUX_BYTE
                0x0801634c       0xa0 C:\PROGRA~2\VT3_8920\VT3\RESOUR~1\targets\CANVIEW4\lib\vt3_common\libvt3_common.a(IEC_Lib.o)
                0x0801634c                MUX_BYTE
 .text.MUX_WORD
                0x080163ec       0xa0 C:\PROGRA~2\VT3_8920\VT3\RESOUR~1\targets\CANVIEW4\lib\vt3_common\libvt3_common.a(IEC_Lib.o)
                0x080163ec                MUX_WORD
 .text.MUX_DWORD
                0x0801648c       0xa4 C:\PROGRA~2\VT3_8920\VT3\RESOUR~1\targets\CANVIEW4\lib\vt3_common\libvt3_common.a(IEC_Lib.o)
                0x0801648c                MUX_DWORD
 .text.GT_DATE_AND_TIME_2
                0x08016530       0x44 C:\PROGRA~2\VT3_8920\VT3\RESOUR~1\targets\CANVIEW4\lib\vt3_common\libvt3_common.a(IEC_Lib.o)
                0x08016530                GT_DATE_AND_TIME_2
 .text.GT_STRING_2
                0x08016574       0xcc C:\PROGRA~2\VT3_8920\VT3\RESOUR~1\targets\CANVIEW4\lib\vt3_common\libvt3_common.a(IEC_Lib.o)
                0x08016574                GT_STRING_2
 .text.GT_WSTRING_2
                0x08016640       0xd0 C:\PROGRA~2\VT3_8920\VT3\RESOUR~1\targets\CANVIEW4\lib\vt3_common\libvt3_common.a(IEC_Lib.o)
                0x08016640                GT_WSTRING_2
 .text.GE_DATE_AND_TIME_2
                0x08016710       0x44 C:\PROGRA~2\VT3_8920\VT3\RESOUR~1\targets\CANVIEW4\lib\vt3_common\libvt3_common.a(IEC_Lib.o)
                0x08016710                GE_DATE_AND_TIME_2
 .text.GE_STRING_2
                0x08016754       0xe0 C:\PROGRA~2\VT3_8920\VT3\RESOUR~1\targets\CANVIEW4\lib\vt3_common\libvt3_common.a(IEC_Lib.o)
                0x08016754                GE_STRING_2
 .text.GE_WSTRING_2
                0x08016834       0xe4 C:\PROGRA~2\VT3_8920\VT3\RESOUR~1\targets\CANVIEW4\lib\vt3_common\libvt3_common.a(IEC_Lib.o)
                0x08016834                GE_WSTRING_2
 .text.EQ_DATE_AND_TIME_2
                0x08016918       0x38 C:\PROGRA~2\VT3_8920\VT3\RESOUR~1\targets\CANVIEW4\lib\vt3_common\libvt3_common.a(IEC_Lib.o)
                0x08016918                EQ_DATE_AND_TIME_2
 .text.EQ_STRING_2
                0x08016950       0xc4 C:\PROGRA~2\VT3_8920\VT3\RESOUR~1\targets\CANVIEW4\lib\vt3_common\libvt3_common.a(IEC_Lib.o)
                0x08016950                EQ_STRING_2
 .text.EQ_WSTRING_2
                0x08016a14       0xc8 C:\PROGRA~2\VT3_8920\VT3\RESOUR~1\targets\CANVIEW4\lib\vt3_common\libvt3_common.a(IEC_Lib.o)
                0x08016a14                EQ_WSTRING_2
 .text.LE_DATE_AND_TIME_2
                0x08016adc       0x44 C:\PROGRA~2\VT3_8920\VT3\RESOUR~1\targets\CANVIEW4\lib\vt3_common\libvt3_common.a(IEC_Lib.o)
                0x08016adc                LE_DATE_AND_TIME_2
 .text.LE_STRING_2
                0x08016b20       0xcc C:\PROGRA~2\VT3_8920\VT3\RESOUR~1\targets\CANVIEW4\lib\vt3_common\libvt3_common.a(IEC_Lib.o)
                0x08016b20                LE_STRING_2
 .text.LE_WSTRING_2
                0x08016bec       0xd0 C:\PROGRA~2\VT3_8920\VT3\RESOUR~1\targets\CANVIEW4\lib\vt3_common\libvt3_common.a(IEC_Lib.o)
                0x08016bec                LE_WSTRING_2
 .text.LT_DATE_AND_TIME_2
                0x08016cbc       0x44 C:\PROGRA~2\VT3_8920\VT3\RESOUR~1\targets\CANVIEW4\lib\vt3_common\libvt3_common.a(IEC_Lib.o)
                0x08016cbc                LT_DATE_AND_TIME_2
 .text.LT_STRING_2
                0x08016d00       0xe0 C:\PROGRA~2\VT3_8920\VT3\RESOUR~1\targets\CANVIEW4\lib\vt3_common\libvt3_common.a(IEC_Lib.o)
                0x08016d00                LT_STRING_2
 .text.LT_WSTRING_2
                0x08016de0       0xe4 C:\PROGRA~2\VT3_8920\VT3\RESOUR~1\targets\CANVIEW4\lib\vt3_common\libvt3_common.a(IEC_Lib.o)
                0x08016de0                LT_WSTRING_2
 .text.NE_DATE_AND_TIME
                0x08016ec4       0x38 C:\PROGRA~2\VT3_8920\VT3\RESOUR~1\targets\CANVIEW4\lib\vt3_common\libvt3_common.a(IEC_Lib.o)
                0x08016ec4                NE_DATE_AND_TIME
 .text.NE_STRING
                0x08016efc       0xc4 C:\PROGRA~2\VT3_8920\VT3\RESOUR~1\targets\CANVIEW4\lib\vt3_common\libvt3_common.a(IEC_Lib.o)
                0x08016efc                NE_STRING
 .text.NE_WSTRING
                0x08016fc0       0xc8 C:\PROGRA~2\VT3_8920\VT3\RESOUR~1\targets\CANVIEW4\lib\vt3_common\libvt3_common.a(IEC_Lib.o)
                0x08016fc0                NE_WSTRING
 .text.GT_BOOL_N
                0x08017088       0x2c C:\PROGRA~2\VT3_8920\VT3\RESOUR~1\targets\CANVIEW4\lib\vt3_common\libvt3_common.a(IEC_Lib.o)
                0x08017088                GT_BOOL_N
 .text.GT_SINT_N
                0x080170b4       0x2c C:\PROGRA~2\VT3_8920\VT3\RESOUR~1\targets\CANVIEW4\lib\vt3_common\libvt3_common.a(IEC_Lib.o)
                0x080170b4                GT_SINT_N
 .text.GT_INT_N
                0x080170e0       0x2c C:\PROGRA~2\VT3_8920\VT3\RESOUR~1\targets\CANVIEW4\lib\vt3_common\libvt3_common.a(IEC_Lib.o)
                0x080170e0                GT_INT_N
 .text.GT_DINT_N
                0x0801710c       0x4c C:\PROGRA~2\VT3_8920\VT3\RESOUR~1\targets\CANVIEW4\lib\vt3_common\libvt3_common.a(IEC_Lib.o)
                0x0801710c                GT_DINT_N
 .text.GT_USINT_N
                0x08017158       0x2c C:\PROGRA~2\VT3_8920\VT3\RESOUR~1\targets\CANVIEW4\lib\vt3_common\libvt3_common.a(IEC_Lib.o)
                0x08017158                GT_USINT_N
 .text.GT_UINT_N
                0x08017184       0x2c C:\PROGRA~2\VT3_8920\VT3\RESOUR~1\targets\CANVIEW4\lib\vt3_common\libvt3_common.a(IEC_Lib.o)
                0x08017184                GT_UINT_N
 .text.GT_UDINT_N
                0x080171b0       0x4c C:\PROGRA~2\VT3_8920\VT3\RESOUR~1\targets\CANVIEW4\lib\vt3_common\libvt3_common.a(IEC_Lib.o)
                0x080171b0                GT_UDINT_N
 .text.GT_BYTE_N
                0x080171fc       0x2c C:\PROGRA~2\VT3_8920\VT3\RESOUR~1\targets\CANVIEW4\lib\vt3_common\libvt3_common.a(IEC_Lib.o)
                0x080171fc                GT_BYTE_N
 .text.GT_WORD_N
                0x08017228       0x2c C:\PROGRA~2\VT3_8920\VT3\RESOUR~1\targets\CANVIEW4\lib\vt3_common\libvt3_common.a(IEC_Lib.o)
                0x08017228                GT_WORD_N
 .text.GT_DWORD_N
                0x08017254       0x4c C:\PROGRA~2\VT3_8920\VT3\RESOUR~1\targets\CANVIEW4\lib\vt3_common\libvt3_common.a(IEC_Lib.o)
                0x08017254                GT_DWORD_N
 .text.GT_REAL_N
                0x080172a0       0x2c C:\PROGRA~2\VT3_8920\VT3\RESOUR~1\targets\CANVIEW4\lib\vt3_common\libvt3_common.a(IEC_Lib.o)
                0x080172a0                GT_REAL_N
 .text.GT_TIME_N
                0x080172cc       0x4c C:\PROGRA~2\VT3_8920\VT3\RESOUR~1\targets\CANVIEW4\lib\vt3_common\libvt3_common.a(IEC_Lib.o)
                0x080172cc                GT_TIME_N
 .text.GT_DATE_N
                0x08017318       0x4c C:\PROGRA~2\VT3_8920\VT3\RESOUR~1\targets\CANVIEW4\lib\vt3_common\libvt3_common.a(IEC_Lib.o)
                0x08017318                GT_DATE_N
 .text.GT_TIME_OF_DAY_N
                0x08017364       0x4c C:\PROGRA~2\VT3_8920\VT3\RESOUR~1\targets\CANVIEW4\lib\vt3_common\libvt3_common.a(IEC_Lib.o)
                0x08017364                GT_TIME_OF_DAY_N
 .text.GT_DATE_AND_TIME_N
                0x080173b0       0x74 C:\PROGRA~2\VT3_8920\VT3\RESOUR~1\targets\CANVIEW4\lib\vt3_common\libvt3_common.a(IEC_Lib.o)
                0x080173b0                GT_DATE_AND_TIME_N
 .text.GT_STRING_N
                0x08017424       0x54 C:\PROGRA~2\VT3_8920\VT3\RESOUR~1\targets\CANVIEW4\lib\vt3_common\libvt3_common.a(IEC_Lib.o)
                0x08017424                GT_STRING_N
 .text.GT_WSTRING_N
                0x08017478       0x54 C:\PROGRA~2\VT3_8920\VT3\RESOUR~1\targets\CANVIEW4\lib\vt3_common\libvt3_common.a(IEC_Lib.o)
                0x08017478                GT_WSTRING_N
 .text.GE_BOOL_N
                0x080174cc       0x2c C:\PROGRA~2\VT3_8920\VT3\RESOUR~1\targets\CANVIEW4\lib\vt3_common\libvt3_common.a(IEC_Lib.o)
                0x080174cc                GE_BOOL_N
 .text.GE_SINT_N
                0x080174f8       0x2c C:\PROGRA~2\VT3_8920\VT3\RESOUR~1\targets\CANVIEW4\lib\vt3_common\libvt3_common.a(IEC_Lib.o)
                0x080174f8                GE_SINT_N
 .text.GE_INT_N
                0x08017524       0x2c C:\PROGRA~2\VT3_8920\VT3\RESOUR~1\targets\CANVIEW4\lib\vt3_common\libvt3_common.a(IEC_Lib.o)
                0x08017524                GE_INT_N
 .text.GE_DINT_N
                0x08017550       0x4c C:\PROGRA~2\VT3_8920\VT3\RESOUR~1\targets\CANVIEW4\lib\vt3_common\libvt3_common.a(IEC_Lib.o)
                0x08017550                GE_DINT_N
 .text.GE_USINT_N
                0x0801759c       0x2c C:\PROGRA~2\VT3_8920\VT3\RESOUR~1\targets\CANVIEW4\lib\vt3_common\libvt3_common.a(IEC_Lib.o)
                0x0801759c                GE_USINT_N
 .text.GE_UINT_N
                0x080175c8       0x2c C:\PROGRA~2\VT3_8920\VT3\RESOUR~1\targets\CANVIEW4\lib\vt3_common\libvt3_common.a(IEC_Lib.o)
                0x080175c8                GE_UINT_N
 .text.GE_UDINT_N
                0x080175f4       0x4c C:\PROGRA~2\VT3_8920\VT3\RESOUR~1\targets\CANVIEW4\lib\vt3_common\libvt3_common.a(IEC_Lib.o)
                0x080175f4                GE_UDINT_N
 .text.GE_BYTE_N
                0x08017640       0x2c C:\PROGRA~2\VT3_8920\VT3\RESOUR~1\targets\CANVIEW4\lib\vt3_common\libvt3_common.a(IEC_Lib.o)
                0x08017640                GE_BYTE_N
 .text.GE_WORD_N
                0x0801766c       0x2c C:\PROGRA~2\VT3_8920\VT3\RESOUR~1\targets\CANVIEW4\lib\vt3_common\libvt3_common.a(IEC_Lib.o)
                0x0801766c                GE_WORD_N
 .text.GE_DWORD_N
                0x08017698       0x4c C:\PROGRA~2\VT3_8920\VT3\RESOUR~1\targets\CANVIEW4\lib\vt3_common\libvt3_common.a(IEC_Lib.o)
                0x08017698                GE_DWORD_N
 .text.GE_REAL_N
                0x080176e4       0x2c C:\PROGRA~2\VT3_8920\VT3\RESOUR~1\targets\CANVIEW4\lib\vt3_common\libvt3_common.a(IEC_Lib.o)
                0x080176e4                GE_REAL_N
 .text.GE_TIME_N
                0x08017710       0x4c C:\PROGRA~2\VT3_8920\VT3\RESOUR~1\targets\CANVIEW4\lib\vt3_common\libvt3_common.a(IEC_Lib.o)
                0x08017710                GE_TIME_N
 .text.GE_DATE_N
                0x0801775c       0x4c C:\PROGRA~2\VT3_8920\VT3\RESOUR~1\targets\CANVIEW4\lib\vt3_common\libvt3_common.a(IEC_Lib.o)
                0x0801775c                GE_DATE_N
 .text.GE_TIME_OF_DAY_N
                0x080177a8       0x4c C:\PROGRA~2\VT3_8920\VT3\RESOUR~1\targets\CANVIEW4\lib\vt3_common\libvt3_common.a(IEC_Lib.o)
                0x080177a8                GE_TIME_OF_DAY_N
 .text.GE_DATE_AND_TIME_N
                0x080177f4       0x74 C:\PROGRA~2\VT3_8920\VT3\RESOUR~1\targets\CANVIEW4\lib\vt3_common\libvt3_common.a(IEC_Lib.o)
                0x080177f4                GE_DATE_AND_TIME_N
 .text.GE_STRING_N
                0x08017868       0x54 C:\PROGRA~2\VT3_8920\VT3\RESOUR~1\targets\CANVIEW4\lib\vt3_common\libvt3_common.a(IEC_Lib.o)
                0x08017868                GE_STRING_N
 .text.GE_WSTRING_N
                0x080178bc       0x54 C:\PROGRA~2\VT3_8920\VT3\RESOUR~1\targets\CANVIEW4\lib\vt3_common\libvt3_common.a(IEC_Lib.o)
                0x080178bc                GE_WSTRING_N
 .text.EQ_BOOL_N
                0x08017910       0x2c C:\PROGRA~2\VT3_8920\VT3\RESOUR~1\targets\CANVIEW4\lib\vt3_common\libvt3_common.a(IEC_Lib.o)
                0x08017910                EQ_BOOL_N
 .text.EQ_SINT_N
                0x0801793c       0x2c C:\PROGRA~2\VT3_8920\VT3\RESOUR~1\targets\CANVIEW4\lib\vt3_common\libvt3_common.a(IEC_Lib.o)
                0x0801793c                EQ_SINT_N
 .text.EQ_INT_N
                0x08017968       0x2c C:\PROGRA~2\VT3_8920\VT3\RESOUR~1\targets\CANVIEW4\lib\vt3_common\libvt3_common.a(IEC_Lib.o)
                0x08017968                EQ_INT_N
 .text.EQ_DINT_N
                0x08017994       0x4c C:\PROGRA~2\VT3_8920\VT3\RESOUR~1\targets\CANVIEW4\lib\vt3_common\libvt3_common.a(IEC_Lib.o)
                0x08017994                EQ_DINT_N
 .text.EQ_USINT_N
                0x080179e0       0x2c C:\PROGRA~2\VT3_8920\VT3\RESOUR~1\targets\CANVIEW4\lib\vt3_common\libvt3_common.a(IEC_Lib.o)
                0x080179e0                EQ_USINT_N
 .text.EQ_UINT_N
                0x08017a0c       0x2c C:\PROGRA~2\VT3_8920\VT3\RESOUR~1\targets\CANVIEW4\lib\vt3_common\libvt3_common.a(IEC_Lib.o)
                0x08017a0c                EQ_UINT_N
 .text.EQ_UDINT_N
                0x08017a38       0x4c C:\PROGRA~2\VT3_8920\VT3\RESOUR~1\targets\CANVIEW4\lib\vt3_common\libvt3_common.a(IEC_Lib.o)
                0x08017a38                EQ_UDINT_N
 .text.EQ_BYTE_N
                0x08017a84       0x2c C:\PROGRA~2\VT3_8920\VT3\RESOUR~1\targets\CANVIEW4\lib\vt3_common\libvt3_common.a(IEC_Lib.o)
                0x08017a84                EQ_BYTE_N
 .text.EQ_WORD_N
                0x08017ab0       0x2c C:\PROGRA~2\VT3_8920\VT3\RESOUR~1\targets\CANVIEW4\lib\vt3_common\libvt3_common.a(IEC_Lib.o)
                0x08017ab0                EQ_WORD_N
 .text.EQ_DWORD_N
                0x08017adc       0x4c C:\PROGRA~2\VT3_8920\VT3\RESOUR~1\targets\CANVIEW4\lib\vt3_common\libvt3_common.a(IEC_Lib.o)
                0x08017adc                EQ_DWORD_N
 .text.EQ_REAL_N
                0x08017b28       0x2c C:\PROGRA~2\VT3_8920\VT3\RESOUR~1\targets\CANVIEW4\lib\vt3_common\libvt3_common.a(IEC_Lib.o)
                0x08017b28                EQ_REAL_N
 .text.EQ_TIME_N
                0x08017b54       0x4c C:\PROGRA~2\VT3_8920\VT3\RESOUR~1\targets\CANVIEW4\lib\vt3_common\libvt3_common.a(IEC_Lib.o)
                0x08017b54                EQ_TIME_N
 .text.EQ_DATE_N
                0x08017ba0       0x4c C:\PROGRA~2\VT3_8920\VT3\RESOUR~1\targets\CANVIEW4\lib\vt3_common\libvt3_common.a(IEC_Lib.o)
                0x08017ba0                EQ_DATE_N
 .text.EQ_TIME_OF_DAY_N
                0x08017bec       0x4c C:\PROGRA~2\VT3_8920\VT3\RESOUR~1\targets\CANVIEW4\lib\vt3_common\libvt3_common.a(IEC_Lib.o)
                0x08017bec                EQ_TIME_OF_DAY_N
 .text.EQ_DATE_AND_TIME_N
                0x08017c38       0x68 C:\PROGRA~2\VT3_8920\VT3\RESOUR~1\targets\CANVIEW4\lib\vt3_common\libvt3_common.a(IEC_Lib.o)
                0x08017c38                EQ_DATE_AND_TIME_N
 .text.EQ_STRING_N
                0x08017ca0       0x54 C:\PROGRA~2\VT3_8920\VT3\RESOUR~1\targets\CANVIEW4\lib\vt3_common\libvt3_common.a(IEC_Lib.o)
                0x08017ca0                EQ_STRING_N
 .text.EQ_WSTRING_N
                0x08017cf4       0x54 C:\PROGRA~2\VT3_8920\VT3\RESOUR~1\targets\CANVIEW4\lib\vt3_common\libvt3_common.a(IEC_Lib.o)
                0x08017cf4                EQ_WSTRING_N
 .text.LE_BOOL_N
                0x08017d48       0x2c C:\PROGRA~2\VT3_8920\VT3\RESOUR~1\targets\CANVIEW4\lib\vt3_common\libvt3_common.a(IEC_Lib.o)
                0x08017d48                LE_BOOL_N
 .text.LE_SINT_N
                0x08017d74       0x2c C:\PROGRA~2\VT3_8920\VT3\RESOUR~1\targets\CANVIEW4\lib\vt3_common\libvt3_common.a(IEC_Lib.o)
                0x08017d74                LE_SINT_N
 .text.LE_INT_N
                0x08017da0       0x2c C:\PROGRA~2\VT3_8920\VT3\RESOUR~1\targets\CANVIEW4\lib\vt3_common\libvt3_common.a(IEC_Lib.o)
                0x08017da0                LE_INT_N
 .text.LE_DINT_N
                0x08017dcc       0x4c C:\PROGRA~2\VT3_8920\VT3\RESOUR~1\targets\CANVIEW4\lib\vt3_common\libvt3_common.a(IEC_Lib.o)
                0x08017dcc                LE_DINT_N
 .text.LE_USINT_N
                0x08017e18       0x2c C:\PROGRA~2\VT3_8920\VT3\RESOUR~1\targets\CANVIEW4\lib\vt3_common\libvt3_common.a(IEC_Lib.o)
                0x08017e18                LE_USINT_N
 .text.LE_UINT_N
                0x08017e44       0x2c C:\PROGRA~2\VT3_8920\VT3\RESOUR~1\targets\CANVIEW4\lib\vt3_common\libvt3_common.a(IEC_Lib.o)
                0x08017e44                LE_UINT_N
 .text.LE_UDINT_N
                0x08017e70       0x4c C:\PROGRA~2\VT3_8920\VT3\RESOUR~1\targets\CANVIEW4\lib\vt3_common\libvt3_common.a(IEC_Lib.o)
                0x08017e70                LE_UDINT_N
 .text.LE_BYTE_N
                0x08017ebc       0x2c C:\PROGRA~2\VT3_8920\VT3\RESOUR~1\targets\CANVIEW4\lib\vt3_common\libvt3_common.a(IEC_Lib.o)
                0x08017ebc                LE_BYTE_N
 .text.LE_WORD_N
                0x08017ee8       0x2c C:\PROGRA~2\VT3_8920\VT3\RESOUR~1\targets\CANVIEW4\lib\vt3_common\libvt3_common.a(IEC_Lib.o)
                0x08017ee8                LE_WORD_N
 .text.LE_DWORD_N
                0x08017f14       0x4c C:\PROGRA~2\VT3_8920\VT3\RESOUR~1\targets\CANVIEW4\lib\vt3_common\libvt3_common.a(IEC_Lib.o)
                0x08017f14                LE_DWORD_N
 .text.LE_REAL_N
                0x08017f60       0x2c C:\PROGRA~2\VT3_8920\VT3\RESOUR~1\targets\CANVIEW4\lib\vt3_common\libvt3_common.a(IEC_Lib.o)
                0x08017f60                LE_REAL_N
 .text.LE_TIME_N
                0x08017f8c       0x4c C:\PROGRA~2\VT3_8920\VT3\RESOUR~1\targets\CANVIEW4\lib\vt3_common\libvt3_common.a(IEC_Lib.o)
                0x08017f8c                LE_TIME_N
 .text.LE_DATE_N
                0x08017fd8       0x4c C:\PROGRA~2\VT3_8920\VT3\RESOUR~1\targets\CANVIEW4\lib\vt3_common\libvt3_common.a(IEC_Lib.o)
                0x08017fd8                LE_DATE_N
 .text.LE_TIME_OF_DAY_N
                0x08018024       0x4c C:\PROGRA~2\VT3_8920\VT3\RESOUR~1\targets\CANVIEW4\lib\vt3_common\libvt3_common.a(IEC_Lib.o)
                0x08018024                LE_TIME_OF_DAY_N
 .text.LE_DATE_AND_TIME_N
                0x08018070       0x74 C:\PROGRA~2\VT3_8920\VT3\RESOUR~1\targets\CANVIEW4\lib\vt3_common\libvt3_common.a(IEC_Lib.o)
                0x08018070                LE_DATE_AND_TIME_N
 .text.LE_STRING_N
                0x080180e4       0x54 C:\PROGRA~2\VT3_8920\VT3\RESOUR~1\targets\CANVIEW4\lib\vt3_common\libvt3_common.a(IEC_Lib.o)
                0x080180e4                LE_STRING_N
 .text.LE_WSTRING_N
                0x08018138       0x54 C:\PROGRA~2\VT3_8920\VT3\RESOUR~1\targets\CANVIEW4\lib\vt3_common\libvt3_common.a(IEC_Lib.o)
                0x08018138                LE_WSTRING_N
 .text.LT_BOOL_N
                0x0801818c       0x2c C:\PROGRA~2\VT3_8920\VT3\RESOUR~1\targets\CANVIEW4\lib\vt3_common\libvt3_common.a(IEC_Lib.o)
                0x0801818c                LT_BOOL_N
 .text.LT_SINT_N
                0x080181b8       0x2c C:\PROGRA~2\VT3_8920\VT3\RESOUR~1\targets\CANVIEW4\lib\vt3_common\libvt3_common.a(IEC_Lib.o)
                0x080181b8                LT_SINT_N
 .text.LT_INT_N
                0x080181e4       0x2c C:\PROGRA~2\VT3_8920\VT3\RESOUR~1\targets\CANVIEW4\lib\vt3_common\libvt3_common.a(IEC_Lib.o)
                0x080181e4                LT_INT_N
 .text.LT_DINT_N
                0x08018210       0x4c C:\PROGRA~2\VT3_8920\VT3\RESOUR~1\targets\CANVIEW4\lib\vt3_common\libvt3_common.a(IEC_Lib.o)
                0x08018210                LT_DINT_N
 .text.LT_USINT_N
                0x0801825c       0x2c C:\PROGRA~2\VT3_8920\VT3\RESOUR~1\targets\CANVIEW4\lib\vt3_common\libvt3_common.a(IEC_Lib.o)
                0x0801825c                LT_USINT_N
 .text.LT_UINT_N
                0x08018288       0x2c C:\PROGRA~2\VT3_8920\VT3\RESOUR~1\targets\CANVIEW4\lib\vt3_common\libvt3_common.a(IEC_Lib.o)
                0x08018288                LT_UINT_N
 .text.LT_UDINT_N
                0x080182b4       0x4c C:\PROGRA~2\VT3_8920\VT3\RESOUR~1\targets\CANVIEW4\lib\vt3_common\libvt3_common.a(IEC_Lib.o)
                0x080182b4                LT_UDINT_N
 .text.LT_BYTE_N
                0x08018300       0x2c C:\PROGRA~2\VT3_8920\VT3\RESOUR~1\targets\CANVIEW4\lib\vt3_common\libvt3_common.a(IEC_Lib.o)
                0x08018300                LT_BYTE_N
 .text.LT_WORD_N
                0x0801832c       0x2c C:\PROGRA~2\VT3_8920\VT3\RESOUR~1\targets\CANVIEW4\lib\vt3_common\libvt3_common.a(IEC_Lib.o)
                0x0801832c                LT_WORD_N
 .text.LT_DWORD_N
                0x08018358       0x4c C:\PROGRA~2\VT3_8920\VT3\RESOUR~1\targets\CANVIEW4\lib\vt3_common\libvt3_common.a(IEC_Lib.o)
                0x08018358                LT_DWORD_N
 .text.LT_REAL_N
                0x080183a4       0x2c C:\PROGRA~2\VT3_8920\VT3\RESOUR~1\targets\CANVIEW4\lib\vt3_common\libvt3_common.a(IEC_Lib.o)
                0x080183a4                LT_REAL_N
 .text.LT_TIME_N
                0x080183d0       0x4c C:\PROGRA~2\VT3_8920\VT3\RESOUR~1\targets\CANVIEW4\lib\vt3_common\libvt3_common.a(IEC_Lib.o)
                0x080183d0                LT_TIME_N
 .text.LT_DATE_N
                0x0801841c       0x4c C:\PROGRA~2\VT3_8920\VT3\RESOUR~1\targets\CANVIEW4\lib\vt3_common\libvt3_common.a(IEC_Lib.o)
                0x0801841c                LT_DATE_N
 .text.LT_TIME_OF_DAY_N
                0x08018468       0x4c C:\PROGRA~2\VT3_8920\VT3\RESOUR~1\targets\CANVIEW4\lib\vt3_common\libvt3_common.a(IEC_Lib.o)
                0x08018468                LT_TIME_OF_DAY_N
 .text.LT_DATE_AND_TIME_N
                0x080184b4       0x74 C:\PROGRA~2\VT3_8920\VT3\RESOUR~1\targets\CANVIEW4\lib\vt3_common\libvt3_common.a(IEC_Lib.o)
                0x080184b4                LT_DATE_AND_TIME_N
 .text.LT_STRING_N
                0x08018528       0x54 C:\PROGRA~2\VT3_8920\VT3\RESOUR~1\targets\CANVIEW4\lib\vt3_common\libvt3_common.a(IEC_Lib.o)
                0x08018528                LT_STRING_N
 .text.LT_WSTRING_N
                0x0801857c       0x54 C:\PROGRA~2\VT3_8920\VT3\RESOUR~1\targets\CANVIEW4\lib\vt3_common\libvt3_common.a(IEC_Lib.o)
                0x0801857c                LT_WSTRING_N
 .text.MAX_STRING
                0x080185d0       0x70 C:\PROGRA~2\VT3_8920\VT3\RESOUR~1\targets\CANVIEW4\lib\vt3_common\libvt3_common.a(IEC_Lib.o)
                0x080185d0                MAX_STRING
 .text.MIN_STRING
                0x08018640       0x70 C:\PROGRA~2\VT3_8920\VT3\RESOUR~1\targets\CANVIEW4\lib\vt3_common\libvt3_common.a(IEC_Lib.o)
                0x08018640                MIN_STRING
 .text.LIMIT_STRING
                0x080186b0       0xa8 C:\PROGRA~2\VT3_8920\VT3\RESOUR~1\targets\CANVIEW4\lib\vt3_common\libvt3_common.a(IEC_Lib.o)
                0x080186b0                LIMIT_STRING
 .text.MAX_WSTRING
                0x08018758       0x70 C:\PROGRA~2\VT3_8920\VT3\RESOUR~1\targets\CANVIEW4\lib\vt3_common\libvt3_common.a(IEC_Lib.o)
                0x08018758                MAX_WSTRING
 .text.MIN_WSTRING
                0x080187c8       0x70 C:\PROGRA~2\VT3_8920\VT3\RESOUR~1\targets\CANVIEW4\lib\vt3_common\libvt3_common.a(IEC_Lib.o)
                0x080187c8                MIN_WSTRING
 .text.LIMIT_WSTRING
                0x08018838       0xa8 C:\PROGRA~2\VT3_8920\VT3\RESOUR~1\targets\CANVIEW4\lib\vt3_common\libvt3_common.a(IEC_Lib.o)
                0x08018838                LIMIT_WSTRING
 .text.vt3_fix_string_sizes
                0x080188e0       0x50 C:\PROGRA~2\VT3_8920\VT3\RESOUR~1\targets\CANVIEW4\lib\vt3_common\libvt3_common.a(IEC_Lib.o)
                0x080188e0                vt3_fix_string_sizes
 .text.vt3_free_temporary_strings
                0x08018930       0x44 C:\PROGRA~2\VT3_8920\VT3\RESOUR~1\targets\CANVIEW4\lib\vt3_common\libvt3_common.a(IEC_Lib.o)
                0x08018930                vt3_free_temporary_strings
 .text.vt3_alloc_string
                0x08018974       0x84 C:\PROGRA~2\VT3_8920\VT3\RESOUR~1\targets\CANVIEW4\lib\vt3_common\libvt3_common.a(IEC_Lib.o)
                0x08018974                vt3_alloc_string
 .text.vt3_alloc_wstring
                0x080189f8       0x84 C:\PROGRA~2\VT3_8920\VT3\RESOUR~1\targets\CANVIEW4\lib\vt3_common\libvt3_common.a(IEC_Lib.o)
                0x080189f8                vt3_alloc_wstring
 .text.LEN_STRING
                0x08018a7c       0x3c C:\PROGRA~2\VT3_8920\VT3\RESOUR~1\targets\CANVIEW4\lib\vt3_common\libvt3_common.a(IEC_Lib.o)
                0x08018a7c                LEN_STRING
 .text.LEN_WSTRING
                0x08018ab8       0x3c C:\PROGRA~2\VT3_8920\VT3\RESOUR~1\targets\CANVIEW4\lib\vt3_common\libvt3_common.a(IEC_Lib.o)
                0x08018ab8                LEN_WSTRING
 .text.MOVE_STRING
                0x08018af4       0xa8 C:\PROGRA~2\VT3_8920\VT3\RESOUR~1\targets\CANVIEW4\lib\vt3_common\libvt3_common.a(IEC_Lib.o)
                0x08018af4                MOVE_STRING
 .text.MOVE_WSTRING
                0x08018b9c       0xac C:\PROGRA~2\VT3_8920\VT3\RESOUR~1\targets\CANVIEW4\lib\vt3_common\libvt3_common.a(IEC_Lib.o)
                0x08018b9c                MOVE_WSTRING
 .text.LEFT_STRING
                0x08018c48       0x88 C:\PROGRA~2\VT3_8920\VT3\RESOUR~1\targets\CANVIEW4\lib\vt3_common\libvt3_common.a(IEC_Lib.o)
                0x08018c48                LEFT_STRING
 .text.LEFT_WSTRING
                0x08018cd0       0x88 C:\PROGRA~2\VT3_8920\VT3\RESOUR~1\targets\CANVIEW4\lib\vt3_common\libvt3_common.a(IEC_Lib.o)
                0x08018cd0                LEFT_WSTRING
 .text.RIGHT_STRING
                0x08018d58       0x94 C:\PROGRA~2\VT3_8920\VT3\RESOUR~1\targets\CANVIEW4\lib\vt3_common\libvt3_common.a(IEC_Lib.o)
                0x08018d58                RIGHT_STRING
 .text.RIGHT_WSTRING
                0x08018dec       0x98 C:\PROGRA~2\VT3_8920\VT3\RESOUR~1\targets\CANVIEW4\lib\vt3_common\libvt3_common.a(IEC_Lib.o)
                0x08018dec                RIGHT_WSTRING
 .text.MID_STRING
                0x08018e84       0xa0 C:\PROGRA~2\VT3_8920\VT3\RESOUR~1\targets\CANVIEW4\lib\vt3_common\libvt3_common.a(IEC_Lib.o)
                0x08018e84                MID_STRING
 .text.MID_WSTRING
                0x08018f24       0xa4 C:\PROGRA~2\VT3_8920\VT3\RESOUR~1\targets\CANVIEW4\lib\vt3_common\libvt3_common.a(IEC_Lib.o)
                0x08018f24                MID_WSTRING
 .text.CONCAT_STRING
                0x08018fc8      0x114 C:\PROGRA~2\VT3_8920\VT3\RESOUR~1\targets\CANVIEW4\lib\vt3_common\libvt3_common.a(IEC_Lib.o)
                0x08018fc8                CONCAT_STRING
 .text.CONCAT_WSTRING
                0x080190dc      0x118 C:\PROGRA~2\VT3_8920\VT3\RESOUR~1\targets\CANVIEW4\lib\vt3_common\libvt3_common.a(IEC_Lib.o)
                0x080190dc                CONCAT_WSTRING
 .text.INSERT_STRING
                0x080191f4       0xf8 C:\PROGRA~2\VT3_8920\VT3\RESOUR~1\targets\CANVIEW4\lib\vt3_common\libvt3_common.a(IEC_Lib.o)
                0x080191f4                INSERT_STRING
 .text.INSERT_WSTRING
                0x080192ec      0x104 C:\PROGRA~2\VT3_8920\VT3\RESOUR~1\targets\CANVIEW4\lib\vt3_common\libvt3_common.a(IEC_Lib.o)
                0x080192ec                INSERT_WSTRING
 .text.DELETE_STRING
                0x080193f0       0xcc C:\PROGRA~2\VT3_8920\VT3\RESOUR~1\targets\CANVIEW4\lib\vt3_common\libvt3_common.a(IEC_Lib.o)
                0x080193f0                DELETE_STRING
 .text.DELETE_WSTRING
                0x080194bc       0xd4 C:\PROGRA~2\VT3_8920\VT3\RESOUR~1\targets\CANVIEW4\lib\vt3_common\libvt3_common.a(IEC_Lib.o)
                0x080194bc                DELETE_WSTRING
 .text.REPLACE_STRING
                0x08019590      0x124 C:\PROGRA~2\VT3_8920\VT3\RESOUR~1\targets\CANVIEW4\lib\vt3_common\libvt3_common.a(IEC_Lib.o)
                0x08019590                REPLACE_STRING
 .text.REPLACE_WSTRING
                0x080196b4      0x130 C:\PROGRA~2\VT3_8920\VT3\RESOUR~1\targets\CANVIEW4\lib\vt3_common\libvt3_common.a(IEC_Lib.o)
                0x080196b4                REPLACE_WSTRING
 .text.FIND_STRING
                0x080197e4       0xa4 C:\PROGRA~2\VT3_8920\VT3\RESOUR~1\targets\CANVIEW4\lib\vt3_common\libvt3_common.a(IEC_Lib.o)
                0x080197e4                FIND_STRING
 .text.FIND_WSTRING
                0x08019888       0xa8 C:\PROGRA~2\VT3_8920\VT3\RESOUR~1\targets\CANVIEW4\lib\vt3_common\libvt3_common.a(IEC_Lib.o)
                0x08019888                FIND_WSTRING
 .text.WSTRING_TO_STRING
                0x08019930      0x144 C:\PROGRA~2\VT3_8920\VT3\RESOUR~1\targets\CANVIEW4\lib\vt3_common\libvt3_common.a(IEC_Lib.o)
                0x08019930                WSTRING_TO_STRING
 .text.STRING_TO_WSTRING
                0x08019a74       0x70 C:\PROGRA~2\VT3_8920\VT3\RESOUR~1\targets\CANVIEW4\lib\vt3_common\libvt3_common.a(IEC_Lib.o)
                0x08019a74                STRING_TO_WSTRING
 .text.NUMINT_TO_STRING
                0x08019ae4       0x58 C:\PROGRA~2\VT3_8920\VT3\RESOUR~1\targets\CANVIEW4\lib\vt3_common\libvt3_common.a(IEC_Lib.o)
 .text.NUMREAL_TO_STRING
                0x08019b3c       0x64 C:\PROGRA~2\VT3_8920\VT3\RESOUR~1\targets\CANVIEW4\lib\vt3_common\libvt3_common.a(IEC_Lib.o)
 .text.BOOL_TO_STRING
                0x08019ba0       0x1c C:\PROGRA~2\VT3_8920\VT3\RESOUR~1\targets\CANVIEW4\lib\vt3_common\libvt3_common.a(IEC_Lib.o)
                0x08019ba0                BOOL_TO_STRING
 .text.BYTE_TO_STRING
                0x08019bbc       0x1c C:\PROGRA~2\VT3_8920\VT3\RESOUR~1\targets\CANVIEW4\lib\vt3_common\libvt3_common.a(IEC_Lib.o)
                0x08019bbc                BYTE_TO_STRING
 .text.WORD_TO_STRING
                0x08019bd8       0x20 C:\PROGRA~2\VT3_8920\VT3\RESOUR~1\targets\CANVIEW4\lib\vt3_common\libvt3_common.a(IEC_Lib.o)
                0x08019bd8                WORD_TO_STRING
 .text.DWORD_TO_STRING
                0x08019bf8       0x1c C:\PROGRA~2\VT3_8920\VT3\RESOUR~1\targets\CANVIEW4\lib\vt3_common\libvt3_common.a(IEC_Lib.o)
                0x08019bf8                DWORD_TO_STRING
 .text.SINT_TO_STRING
                0x08019c14       0x1c C:\PROGRA~2\VT3_8920\VT3\RESOUR~1\targets\CANVIEW4\lib\vt3_common\libvt3_common.a(IEC_Lib.o)
                0x08019c14                SINT_TO_STRING
 .text.USINT_TO_STRING
                0x08019c30       0x1c C:\PROGRA~2\VT3_8920\VT3\RESOUR~1\targets\CANVIEW4\lib\vt3_common\libvt3_common.a(IEC_Lib.o)
                0x08019c30                USINT_TO_STRING
 .text.INT_TO_STRING
                0x08019c4c       0x20 C:\PROGRA~2\VT3_8920\VT3\RESOUR~1\targets\CANVIEW4\lib\vt3_common\libvt3_common.a(IEC_Lib.o)
                0x08019c4c                INT_TO_STRING
 .text.UINT_TO_STRING
                0x08019c6c       0x1c C:\PROGRA~2\VT3_8920\VT3\RESOUR~1\targets\CANVIEW4\lib\vt3_common\libvt3_common.a(IEC_Lib.o)
                0x08019c6c                UINT_TO_STRING
 .text.DINT_TO_STRING
                0x08019c88       0x18 C:\PROGRA~2\VT3_8920\VT3\RESOUR~1\targets\CANVIEW4\lib\vt3_common\libvt3_common.a(IEC_Lib.o)
                0x08019c88                DINT_TO_STRING
 .text.UDINT_TO_STRING
                0x08019ca0       0x58 C:\PROGRA~2\VT3_8920\VT3\RESOUR~1\targets\CANVIEW4\lib\vt3_common\libvt3_common.a(IEC_Lib.o)
                0x08019ca0                UDINT_TO_STRING
 .text.REAL_TO_STRING
                0x08019cf8       0x1c C:\PROGRA~2\VT3_8920\VT3\RESOUR~1\targets\CANVIEW4\lib\vt3_common\libvt3_common.a(IEC_Lib.o)
                0x08019cf8                REAL_TO_STRING
 .text.STRING_TO_BOOL
                0x08019d14       0x80 C:\PROGRA~2\VT3_8920\VT3\RESOUR~1\targets\CANVIEW4\lib\vt3_common\libvt3_common.a(IEC_Lib.o)
                0x08019d14                STRING_TO_BOOL
 .text.STRING_TO_BYTE
                0x08019d94       0x80 C:\PROGRA~2\VT3_8920\VT3\RESOUR~1\targets\CANVIEW4\lib\vt3_common\libvt3_common.a(IEC_Lib.o)
                0x08019d94                STRING_TO_BYTE
 .text.STRING_TO_WORD
                0x08019e14       0x84 C:\PROGRA~2\VT3_8920\VT3\RESOUR~1\targets\CANVIEW4\lib\vt3_common\libvt3_common.a(IEC_Lib.o)
                0x08019e14                STRING_TO_WORD
 .text.STRING_TO_DWORD
                0x08019e98       0x60 C:\PROGRA~2\VT3_8920\VT3\RESOUR~1\targets\CANVIEW4\lib\vt3_common\libvt3_common.a(IEC_Lib.o)
                0x08019e98                STRING_TO_DWORD
 .text.STRING_TO_SINT
                0x08019ef8       0x80 C:\PROGRA~2\VT3_8920\VT3\RESOUR~1\targets\CANVIEW4\lib\vt3_common\libvt3_common.a(IEC_Lib.o)
                0x08019ef8                STRING_TO_SINT
 .text.STRING_TO_USINT
                0x08019f78       0x80 C:\PROGRA~2\VT3_8920\VT3\RESOUR~1\targets\CANVIEW4\lib\vt3_common\libvt3_common.a(IEC_Lib.o)
                0x08019f78                STRING_TO_USINT
 .text.STRING_TO_INT
                0x08019ff8       0x84 C:\PROGRA~2\VT3_8920\VT3\RESOUR~1\targets\CANVIEW4\lib\vt3_common\libvt3_common.a(IEC_Lib.o)
                0x08019ff8                STRING_TO_INT
 .text.STRING_TO_UINT
                0x0801a07c       0x80 C:\PROGRA~2\VT3_8920\VT3\RESOUR~1\targets\CANVIEW4\lib\vt3_common\libvt3_common.a(IEC_Lib.o)
                0x0801a07c                STRING_TO_UINT
 .text.STRING_TO_DINT
                0x0801a0fc       0x60 C:\PROGRA~2\VT3_8920\VT3\RESOUR~1\targets\CANVIEW4\lib\vt3_common\libvt3_common.a(IEC_Lib.o)
                0x0801a0fc                STRING_TO_DINT
 .text.STRING_TO_UDINT
                0x0801a15c       0x60 C:\PROGRA~2\VT3_8920\VT3\RESOUR~1\targets\CANVIEW4\lib\vt3_common\libvt3_common.a(IEC_Lib.o)
                0x0801a15c                STRING_TO_UDINT
 .text.STRING_TO_REAL
                0x0801a1bc       0x74 C:\PROGRA~2\VT3_8920\VT3\RESOUR~1\targets\CANVIEW4\lib\vt3_common\libvt3_common.a(IEC_Lib.o)
                0x0801a1bc                STRING_TO_REAL
 .text.ADD_TIME
                0x0801a230       0x1c C:\PROGRA~2\VT3_8920\VT3\RESOUR~1\targets\CANVIEW4\lib\vt3_common\libvt3_common.a(IEC_Lib.o)
                0x0801a230                ADD_TIME
 .text.ADD_TOD_TIME
                0x0801a24c       0x1c C:\PROGRA~2\VT3_8920\VT3\RESOUR~1\targets\CANVIEW4\lib\vt3_common\libvt3_common.a(IEC_Lib.o)
                0x0801a24c                ADD_TOD_TIME
 .text.ADD_DT_TIME
                0x0801a268       0x6c C:\PROGRA~2\VT3_8920\VT3\RESOUR~1\targets\CANVIEW4\lib\vt3_common\libvt3_common.a(IEC_Lib.o)
                0x0801a268                ADD_DT_TIME
 .text.SUB_TIME
                0x0801a2d4       0x1c C:\PROGRA~2\VT3_8920\VT3\RESOUR~1\targets\CANVIEW4\lib\vt3_common\libvt3_common.a(IEC_Lib.o)
                0x0801a2d4                SUB_TIME
 .text.SUB_DATE_DATE
                0x0801a2f0       0x4c C:\PROGRA~2\VT3_8920\VT3\RESOUR~1\targets\CANVIEW4\lib\vt3_common\libvt3_common.a(IEC_Lib.o)
                0x0801a2f0                SUB_DATE_DATE
 .text.SUB_TOD_TIME
                0x0801a33c       0x64 C:\PROGRA~2\VT3_8920\VT3\RESOUR~1\targets\CANVIEW4\lib\vt3_common\libvt3_common.a(IEC_Lib.o)
                0x0801a33c                SUB_TOD_TIME
 .text.SUB_TOD_TOD
                0x0801a3a0       0x1c C:\PROGRA~2\VT3_8920\VT3\RESOUR~1\targets\CANVIEW4\lib\vt3_common\libvt3_common.a(IEC_Lib.o)
                0x0801a3a0                SUB_TOD_TOD
 .text.SUB_DT_TIME
                0x0801a3bc       0x2c C:\PROGRA~2\VT3_8920\VT3\RESOUR~1\targets\CANVIEW4\lib\vt3_common\libvt3_common.a(IEC_Lib.o)
                0x0801a3bc                SUB_DT_TIME
 .text.SUB_DT_DT
                0x0801a3e8       0x60 C:\PROGRA~2\VT3_8920\VT3\RESOUR~1\targets\CANVIEW4\lib\vt3_common\libvt3_common.a(IEC_Lib.o)
                0x0801a3e8                SUB_DT_DT
 .text.MULTIME  0x0801a448       0x24 C:\PROGRA~2\VT3_8920\VT3\RESOUR~1\targets\CANVIEW4\lib\vt3_common\libvt3_common.a(IEC_Lib.o)
                0x0801a448                MULTIME
 .text.DIVTIME  0x0801a46c       0x24 C:\PROGRA~2\VT3_8920\VT3\RESOUR~1\targets\CANVIEW4\lib\vt3_common\libvt3_common.a(IEC_Lib.o)
                0x0801a46c                DIVTIME
 .text.CONCAT_DATE_TOD
                0x0801a490       0x30 C:\PROGRA~2\VT3_8920\VT3\RESOUR~1\targets\CANVIEW4\lib\vt3_common\libvt3_common.a(IEC_Lib.o)
                0x0801a490                CONCAT_DATE_TOD
 .text.DT_TO_TOD
                0x0801a4c0       0x1c C:\PROGRA~2\VT3_8920\VT3\RESOUR~1\targets\CANVIEW4\lib\vt3_common\libvt3_common.a(IEC_Lib.o)
                0x0801a4c0                DT_TO_TOD
 .text.DT_TO_DATE
                0x0801a4dc       0x1c C:\PROGRA~2\VT3_8920\VT3\RESOUR~1\targets\CANVIEW4\lib\vt3_common\libvt3_common.a(IEC_Lib.o)
                0x0801a4dc                DT_TO_DATE
 .text.DATE_TO_YEAR
                0x0801a4f8      0x188 C:\PROGRA~2\VT3_8920\VT3\RESOUR~1\targets\CANVIEW4\lib\vt3_common\libvt3_common.a(IEC_Lib.o)
                0x0801a4f8                DATE_TO_YEAR
 .text.DATE_TO_MONTH
                0x0801a680      0x188 C:\PROGRA~2\VT3_8920\VT3\RESOUR~1\targets\CANVIEW4\lib\vt3_common\libvt3_common.a(IEC_Lib.o)
                0x0801a680                DATE_TO_MONTH
 .text.DATE_TO_DAY
                0x0801a808      0x16c C:\PROGRA~2\VT3_8920\VT3\RESOUR~1\targets\CANVIEW4\lib\vt3_common\libvt3_common.a(IEC_Lib.o)
                0x0801a808                DATE_TO_DAY
 .text.YMD_TO_DATE
                0x0801a974      0x144 C:\PROGRA~2\VT3_8920\VT3\RESOUR~1\targets\CANVIEW4\lib\vt3_common\libvt3_common.a(IEC_Lib.o)
                0x0801a974                YMD_TO_DATE
 .text.TOD_TO_HOUR
                0x0801aab8       0x28 C:\PROGRA~2\VT3_8920\VT3\RESOUR~1\targets\CANVIEW4\lib\vt3_common\libvt3_common.a(IEC_Lib.o)
                0x0801aab8                TOD_TO_HOUR
 .text.TOD_TO_MINUTE
                0x0801aae0       0x40 C:\PROGRA~2\VT3_8920\VT3\RESOUR~1\targets\CANVIEW4\lib\vt3_common\libvt3_common.a(IEC_Lib.o)
                0x0801aae0                TOD_TO_MINUTE
 .text.TOD_TO_SECOND
                0x0801ab20       0x3c C:\PROGRA~2\VT3_8920\VT3\RESOUR~1\targets\CANVIEW4\lib\vt3_common\libvt3_common.a(IEC_Lib.o)
                0x0801ab20                TOD_TO_SECOND
 .text.TOD_TO_MS
                0x0801ab5c       0x30 C:\PROGRA~2\VT3_8920\VT3\RESOUR~1\targets\CANVIEW4\lib\vt3_common\libvt3_common.a(IEC_Lib.o)
                0x0801ab5c                TOD_TO_MS
 .text.HMS_TO_TOD
                0x0801ab8c       0xe4 C:\PROGRA~2\VT3_8920\VT3\RESOUR~1\targets\CANVIEW4\lib\vt3_common\libvt3_common.a(IEC_Lib.o)
                0x0801ab8c                HMS_TO_TOD
 .text.SET_CURRENT_DATE_AND_TIME
                0x0801ac70       0x88 C:\PROGRA~2\VT3_8920\VT3\RESOUR~1\targets\CANVIEW4\lib\vt3_common\libvt3_common.a(IEC_Lib.o)
                0x0801ac70                SET_CURRENT_DATE_AND_TIME
 .text.GET_CURRENT_DATE_AND_TIME
                0x0801acf8       0xb0 C:\PROGRA~2\VT3_8920\VT3\RESOUR~1\targets\CANVIEW4\lib\vt3_common\libvt3_common.a(IEC_Lib.o)
                0x0801acf8                GET_CURRENT_DATE_AND_TIME
 .text.SR__init
                0x0801ada8       0x28 C:\PROGRA~2\VT3_8920\VT3\RESOUR~1\targets\CANVIEW4\lib\vt3_common\libvt3_common.a(IEC_Lib.o)
                0x0801ada8                SR__init
 .text.SR__call
                0x0801add0       0x48 C:\PROGRA~2\VT3_8920\VT3\RESOUR~1\targets\CANVIEW4\lib\vt3_common\libvt3_common.a(IEC_Lib.o)
                0x0801add0                SR__call
 .text.RS__init
                0x0801ae18       0x28 C:\PROGRA~2\VT3_8920\VT3\RESOUR~1\targets\CANVIEW4\lib\vt3_common\libvt3_common.a(IEC_Lib.o)
                0x0801ae18                RS__init
 .text.RS__call
                0x0801ae40       0x48 C:\PROGRA~2\VT3_8920\VT3\RESOUR~1\targets\CANVIEW4\lib\vt3_common\libvt3_common.a(IEC_Lib.o)
                0x0801ae40                RS__call
 .text.R_TRIG__init
                0x0801ae88       0x28 C:\PROGRA~2\VT3_8920\VT3\RESOUR~1\targets\CANVIEW4\lib\vt3_common\libvt3_common.a(IEC_Lib.o)
                0x0801ae88                R_TRIG__init
 .text.R_TRIG__call
                0x0801aeb0       0x48 C:\PROGRA~2\VT3_8920\VT3\RESOUR~1\targets\CANVIEW4\lib\vt3_common\libvt3_common.a(IEC_Lib.o)
                0x0801aeb0                R_TRIG__call
 .text.F_TRIG__init
                0x0801aef8       0x28 C:\PROGRA~2\VT3_8920\VT3\RESOUR~1\targets\CANVIEW4\lib\vt3_common\libvt3_common.a(IEC_Lib.o)
                0x0801aef8                F_TRIG__init
 .text.F_TRIG__call
                0x0801af20       0x48 C:\PROGRA~2\VT3_8920\VT3\RESOUR~1\targets\CANVIEW4\lib\vt3_common\libvt3_common.a(IEC_Lib.o)
                0x0801af20                F_TRIG__call
 .text.CTU__init
                0x0801af68       0x28 C:\PROGRA~2\VT3_8920\VT3\RESOUR~1\targets\CANVIEW4\lib\vt3_common\libvt3_common.a(IEC_Lib.o)
                0x0801af68                CTU__init
 .text.CTU__call
                0x0801af90       0x7c C:\PROGRA~2\VT3_8920\VT3\RESOUR~1\targets\CANVIEW4\lib\vt3_common\libvt3_common.a(IEC_Lib.o)
                0x0801af90                CTU__call
 .text.CTU_DINT__init
                0x0801b00c       0x28 C:\PROGRA~2\VT3_8920\VT3\RESOUR~1\targets\CANVIEW4\lib\vt3_common\libvt3_common.a(IEC_Lib.o)
                0x0801b00c                CTU_DINT__init
 .text.CTU_DINT__call
                0x0801b034       0x6c C:\PROGRA~2\VT3_8920\VT3\RESOUR~1\targets\CANVIEW4\lib\vt3_common\libvt3_common.a(IEC_Lib.o)
                0x0801b034                CTU_DINT__call
 .text.CTU_UDINT__init
                0x0801b0a0       0x28 C:\PROGRA~2\VT3_8920\VT3\RESOUR~1\targets\CANVIEW4\lib\vt3_common\libvt3_common.a(IEC_Lib.o)
                0x0801b0a0                CTU_UDINT__init
 .text.CTU_UDINT__call
                0x0801b0c8       0x6c C:\PROGRA~2\VT3_8920\VT3\RESOUR~1\targets\CANVIEW4\lib\vt3_common\libvt3_common.a(IEC_Lib.o)
                0x0801b0c8                CTU_UDINT__call
 .text.CTD__init
                0x0801b134       0x28 C:\PROGRA~2\VT3_8920\VT3\RESOUR~1\targets\CANVIEW4\lib\vt3_common\libvt3_common.a(IEC_Lib.o)
                0x0801b134                CTD__init
 .text.CTD__call
                0x0801b15c       0x70 C:\PROGRA~2\VT3_8920\VT3\RESOUR~1\targets\CANVIEW4\lib\vt3_common\libvt3_common.a(IEC_Lib.o)
                0x0801b15c                CTD__call
 .text.CTD_DINT__init
                0x0801b1cc       0x28 C:\PROGRA~2\VT3_8920\VT3\RESOUR~1\targets\CANVIEW4\lib\vt3_common\libvt3_common.a(IEC_Lib.o)
                0x0801b1cc                CTD_DINT__init
 .text.CTD_DINT__call
                0x0801b1f4       0x64 C:\PROGRA~2\VT3_8920\VT3\RESOUR~1\targets\CANVIEW4\lib\vt3_common\libvt3_common.a(IEC_Lib.o)
                0x0801b1f4                CTD_DINT__call
 .text.CTD_UDINT__init
                0x0801b258       0x28 C:\PROGRA~2\VT3_8920\VT3\RESOUR~1\targets\CANVIEW4\lib\vt3_common\libvt3_common.a(IEC_Lib.o)
                0x0801b258                CTD_UDINT__init
 .text.CTD_UDINT__call
                0x0801b280       0x64 C:\PROGRA~2\VT3_8920\VT3\RESOUR~1\targets\CANVIEW4\lib\vt3_common\libvt3_common.a(IEC_Lib.o)
                0x0801b280                CTD_UDINT__call
 .text.CTUD__init
                0x0801b2e4       0x28 C:\PROGRA~2\VT3_8920\VT3\RESOUR~1\targets\CANVIEW4\lib\vt3_common\libvt3_common.a(IEC_Lib.o)
                0x0801b2e4                CTUD__init
 .text.CTUD__call
                0x0801b30c       0xd8 C:\PROGRA~2\VT3_8920\VT3\RESOUR~1\targets\CANVIEW4\lib\vt3_common\libvt3_common.a(IEC_Lib.o)
                0x0801b30c                CTUD__call
 .text.CTUD_DINT__init
                0x0801b3e4       0x28 C:\PROGRA~2\VT3_8920\VT3\RESOUR~1\targets\CANVIEW4\lib\vt3_common\libvt3_common.a(IEC_Lib.o)
                0x0801b3e4                CTUD_DINT__init
 .text.CTUD_DINT__call
                0x0801b40c       0xbc C:\PROGRA~2\VT3_8920\VT3\RESOUR~1\targets\CANVIEW4\lib\vt3_common\libvt3_common.a(IEC_Lib.o)
                0x0801b40c                CTUD_DINT__call
 .text.CTUD_UDINT__init
                0x0801b4c8       0x28 C:\PROGRA~2\VT3_8920\VT3\RESOUR~1\targets\CANVIEW4\lib\vt3_common\libvt3_common.a(IEC_Lib.o)
                0x0801b4c8                CTUD_UDINT__init
 .text.CTUD_UDINT__call
                0x0801b4f0       0xbc C:\PROGRA~2\VT3_8920\VT3\RESOUR~1\targets\CANVIEW4\lib\vt3_common\libvt3_common.a(IEC_Lib.o)
                0x0801b4f0                CTUD_UDINT__call
 .text.TP__init
                0x0801b5ac       0x28 C:\PROGRA~2\VT3_8920\VT3\RESOUR~1\targets\CANVIEW4\lib\vt3_common\libvt3_common.a(IEC_Lib.o)
                0x0801b5ac                TP__init
 .text.TP__call
                0x0801b5d4       0xb4 C:\PROGRA~2\VT3_8920\VT3\RESOUR~1\targets\CANVIEW4\lib\vt3_common\libvt3_common.a(IEC_Lib.o)
                0x0801b5d4                TP__call
 .text.TON__init
                0x0801b688       0x28 C:\PROGRA~2\VT3_8920\VT3\RESOUR~1\targets\CANVIEW4\lib\vt3_common\libvt3_common.a(IEC_Lib.o)
                0x0801b688                TON__init
 .text.TON__call
                0x0801b6b0       0x9c C:\PROGRA~2\VT3_8920\VT3\RESOUR~1\targets\CANVIEW4\lib\vt3_common\libvt3_common.a(IEC_Lib.o)
                0x0801b6b0                TON__call
 .text.TOF__init
                0x0801b74c       0x28 C:\PROGRA~2\VT3_8920\VT3\RESOUR~1\targets\CANVIEW4\lib\vt3_common\libvt3_common.a(IEC_Lib.o)
                0x0801b74c                TOF__init
 .text.TOF__call
                0x0801b774       0xac C:\PROGRA~2\VT3_8920\VT3\RESOUR~1\targets\CANVIEW4\lib\vt3_common\libvt3_common.a(IEC_Lib.o)
                0x0801b774                TOF__call
 .text.vt3_atomic_read_dint
                0x0801b820       0x20 C:\PROGRA~2\VT3_8920\VT3\RESOUR~1\targets\CANVIEW4\lib\vt3_common\libvt3_common.a(IEC_Lib.o)
                0x0801b820                vt3_atomic_read_dint
 .text.vt3_atomic_read_udint
                0x0801b840       0x20 C:\PROGRA~2\VT3_8920\VT3\RESOUR~1\targets\CANVIEW4\lib\vt3_common\libvt3_common.a(IEC_Lib.o)
                0x0801b840                vt3_atomic_read_udint
 .text.vt3_atomic_read_real
                0x0801b860       0x28 C:\PROGRA~2\VT3_8920\VT3\RESOUR~1\targets\CANVIEW4\lib\vt3_common\libvt3_common.a(IEC_Lib.o)
                0x0801b860                vt3_atomic_read_real
 .text.vt3_atomic_read_dword
                0x0801b888       0x20 C:\PROGRA~2\VT3_8920\VT3\RESOUR~1\targets\CANVIEW4\lib\vt3_common\libvt3_common.a(IEC_Lib.o)
                0x0801b888                vt3_atomic_read_dword
 .text.vt3_atomic_read_time
                0x0801b8a8       0x20 C:\PROGRA~2\VT3_8920\VT3\RESOUR~1\targets\CANVIEW4\lib\vt3_common\libvt3_common.a(IEC_Lib.o)
                0x0801b8a8                vt3_atomic_read_time
 .text.vt3_atomic_read_date
                0x0801b8c8       0x20 C:\PROGRA~2\VT3_8920\VT3\RESOUR~1\targets\CANVIEW4\lib\vt3_common\libvt3_common.a(IEC_Lib.o)
                0x0801b8c8                vt3_atomic_read_date
 .text.vt3_atomic_read_time_of_day
                0x0801b8e8       0x20 C:\PROGRA~2\VT3_8920\VT3\RESOUR~1\targets\CANVIEW4\lib\vt3_common\libvt3_common.a(IEC_Lib.o)
                0x0801b8e8                vt3_atomic_read_time_of_day
 .text.vt3_atomic_read_date_and_time
                0x0801b908       0x38 C:\PROGRA~2\VT3_8920\VT3\RESOUR~1\targets\CANVIEW4\lib\vt3_common\libvt3_common.a(IEC_Lib.o)
                0x0801b908                vt3_atomic_read_date_and_time
 .text.regression_error_handler
                0x0801b940       0x2c C:\PROGRA~2\VT3_8920\VT3\RESOUR~1\targets\CANVIEW4\lib\vt3_common\libvt3_common.a(IEC_Lib.o)
                0x0801b940                regression_error_handler
 .text.vt3_ieclib_test_conversion
                0x0801b96c      0x788 C:\PROGRA~2\VT3_8920\VT3\RESOUR~1\targets\CANVIEW4\lib\vt3_common\libvt3_common.a(IEC_Lib.o)
 .text.vt3_ieclib_test_numeric
                0x0801c0f4      0x4dc C:\PROGRA~2\VT3_8920\VT3\RESOUR~1\targets\CANVIEW4\lib\vt3_common\libvt3_common.a(IEC_Lib.o)
 .text.vt3_ieclib_test_bit_string
                0x0801c5d0       0x34 C:\PROGRA~2\VT3_8920\VT3\RESOUR~1\targets\CANVIEW4\lib\vt3_common\libvt3_common.a(IEC_Lib.o)
 .text.vt3_ieclib_test_selection
                0x0801c604      0x2f8 C:\PROGRA~2\VT3_8920\VT3\RESOUR~1\targets\CANVIEW4\lib\vt3_common\libvt3_common.a(IEC_Lib.o)
 *fill*         0x0801c8fc        0x4 
 .text.vt3_ieclib_test_comparison
                0x0801c900     0x3060 C:\PROGRA~2\VT3_8920\VT3\RESOUR~1\targets\CANVIEW4\lib\vt3_common\libvt3_common.a(IEC_Lib.o)
 .text.vt3_ieclib_test_string
                0x0801f960      0x208 C:\PROGRA~2\VT3_8920\VT3\RESOUR~1\targets\CANVIEW4\lib\vt3_common\libvt3_common.a(IEC_Lib.o)
 .text.vt3_ieclib_test_datetime
                0x0801fb68      0x340 C:\PROGRA~2\VT3_8920\VT3\RESOUR~1\targets\CANVIEW4\lib\vt3_common\libvt3_common.a(IEC_Lib.o)
 .text.vt3_ieclib_test
                0x0801fea8       0x80 C:\PROGRA~2\VT3_8920\VT3\RESOUR~1\targets\CANVIEW4\lib\vt3_common\libvt3_common.a(IEC_Lib.o)
                0x0801fea8                vt3_ieclib_test
 .text.vt3_check_alive_nodes
                0x0801ff28       0x74 C:\PROGRA~2\VT3_8920\VT3\RESOUR~1\targets\CANVIEW4\lib\vt3_common\libvt3_common.a(VT3_CAN_debug.o)
                0x0801ff28                vt3_check_alive_nodes
 .text.vt3_set_node_alive_flag
                0x0801ff9c       0x40 C:\PROGRA~2\VT3_8920\VT3\RESOUR~1\targets\CANVIEW4\lib\vt3_common\libvt3_common.a(VT3_CAN_debug.o)
                0x0801ff9c                vt3_set_node_alive_flag
 .text.isEndian
                0x0801ffdc       0x54 C:\PROGRA~2\VT3_8920\VT3\RESOUR~1\targets\CANVIEW4\lib\vt3_common\libvt3_common.a(VT3_CAN_debug.o)
                0x0801ffdc                isEndian
 .text.RemoteRead_Init
                0x08020030       0x94 C:\PROGRA~2\VT3_8920\VT3\RESOUR~1\targets\CANVIEW4\lib\vt3_common\libvt3_common.a(VT3_CAN_debug.o)
                0x08020030                RemoteRead_Init
 .text.RemoteRead_New
                0x080200c4      0x12c C:\PROGRA~2\VT3_8920\VT3\RESOUR~1\targets\CANVIEW4\lib\vt3_common\libvt3_common.a(VT3_CAN_debug.o)
                0x080200c4                RemoteRead_New
 .text.RemoteRead_Get
                0x080201f0       0x48 C:\PROGRA~2\VT3_8920\VT3\RESOUR~1\targets\CANVIEW4\lib\vt3_common\libvt3_common.a(VT3_CAN_debug.o)
                0x080201f0                RemoteRead_Get
 .text.License  0x08020238       0x60 C:\PROGRA~2\VT3_8920\VT3\RESOUR~1\targets\CANVIEW4\lib\vt3_common\libvt3_common.a(VT3_CAN_debug.o)
 .text.BitField_Get
                0x08020298       0x40 C:\PROGRA~2\VT3_8920\VT3\RESOUR~1\targets\CANVIEW4\lib\vt3_common\libvt3_common.a(VT3_CAN_debug.o)
                0x08020298                BitField_Get
 .text.BitField_Set
                0x080202d8       0x6c C:\PROGRA~2\VT3_8920\VT3\RESOUR~1\targets\CANVIEW4\lib\vt3_common\libvt3_common.a(VT3_CAN_debug.o)
                0x080202d8                BitField_Set
 .text.SetLogged
                0x08020344       0x1c C:\PROGRA~2\VT3_8920\VT3\RESOUR~1\targets\CANVIEW4\lib\vt3_common\libvt3_common.a(VT3_CAN_debug.o)
                0x08020344                SetLogged
 .text.RemoveLogged
                0x08020360       0x1c C:\PROGRA~2\VT3_8920\VT3\RESOUR~1\targets\CANVIEW4\lib\vt3_common\libvt3_common.a(VT3_CAN_debug.o)
 .text.IsLogged
                0x0802037c       0x1c C:\PROGRA~2\VT3_8920\VT3\RESOUR~1\targets\CANVIEW4\lib\vt3_common\libvt3_common.a(VT3_CAN_debug.o)
 .text.vt3_is_node_alive
                0x08020398       0x50 C:\PROGRA~2\VT3_8920\VT3\RESOUR~1\targets\CANVIEW4\lib\vt3_common\libvt3_common.a(VT3_CAN_debug.o)
                0x08020398                vt3_is_node_alive
 .text.SetChallenge
                0x080203e8       0xd0 C:\PROGRA~2\VT3_8920\VT3\RESOUR~1\targets\CANVIEW4\lib\vt3_common\libvt3_common.a(VT3_CAN_debug.o)
 .text.GetChallenge
                0x080204b8       0x6c C:\PROGRA~2\VT3_8920\VT3\RESOUR~1\targets\CANVIEW4\lib\vt3_common\libvt3_common.a(VT3_CAN_debug.o)
 .text.FreeChallenge
                0x08020524       0x78 C:\PROGRA~2\VT3_8920\VT3\RESOUR~1\targets\CANVIEW4\lib\vt3_common\libvt3_common.a(VT3_CAN_debug.o)
                0x08020524                FreeChallenge
 .text.pMemoryArray
                0x0802059c      0x3b8 C:\PROGRA~2\VT3_8920\VT3\RESOUR~1\targets\CANVIEW4\lib\vt3_common\libvt3_common.a(VT3_CAN_debug.o)
 .text.SendNACK
                0x08020954       0x64 C:\PROGRA~2\VT3_8920\VT3\RESOUR~1\targets\CANVIEW4\lib\vt3_common\libvt3_common.a(VT3_CAN_debug.o)
 .text.RxNACK   0x080209b8       0x24 C:\PROGRA~2\VT3_8920\VT3\RESOUR~1\targets\CANVIEW4\lib\vt3_common\libvt3_common.a(VT3_CAN_debug.o)
 .text.Func_Read_Memory
                0x080209dc       0xd0 C:\PROGRA~2\VT3_8920\VT3\RESOUR~1\targets\CANVIEW4\lib\vt3_common\libvt3_common.a(VT3_CAN_debug.o)
 .text.Func_Write_Memory
                0x08020aac       0xe4 C:\PROGRA~2\VT3_8920\VT3\RESOUR~1\targets\CANVIEW4\lib\vt3_common\libvt3_common.a(VT3_CAN_debug.o)
 .text.Func_Read_Variable_Array
                0x08020b90      0x140 C:\PROGRA~2\VT3_8920\VT3\RESOUR~1\targets\CANVIEW4\lib\vt3_common\libvt3_common.a(VT3_CAN_debug.o)
 .text.Func_Write_Variable_Array
                0x08020cd0      0x134 C:\PROGRA~2\VT3_8920\VT3\RESOUR~1\targets\CANVIEW4\lib\vt3_common\libvt3_common.a(VT3_CAN_debug.o)
 .text.LoginVt3Error
                0x08020e04       0x90 C:\PROGRA~2\VT3_8920\VT3\RESOUR~1\targets\CANVIEW4\lib\vt3_common\libvt3_common.a(VT3_CAN_debug.o)
 .text.LoginVt3
                0x08020e94      0x164 C:\PROGRA~2\VT3_8920\VT3\RESOUR~1\targets\CANVIEW4\lib\vt3_common\libvt3_common.a(VT3_CAN_debug.o)
 .text.MultiPacketTx20
                0x08020ff8      0x1a8 C:\PROGRA~2\VT3_8920\VT3\RESOUR~1\targets\CANVIEW4\lib\vt3_common\libvt3_common.a(VT3_CAN_debug.o)
 .text.MultiPacketTx
                0x080211a0       0x90 C:\PROGRA~2\VT3_8920\VT3\RESOUR~1\targets\CANVIEW4\lib\vt3_common\libvt3_common.a(VT3_CAN_debug.o)
 .text.MultiPacketRx
                0x08021230      0x364 C:\PROGRA~2\VT3_8920\VT3\RESOUR~1\targets\CANVIEW4\lib\vt3_common\libvt3_common.a(VT3_CAN_debug.o)
 .text.WL_Init  0x08021594       0x50 C:\PROGRA~2\VT3_8920\VT3\RESOUR~1\targets\CANVIEW4\lib\vt3_common\libvt3_common.a(VT3_CAN_debug.o)
 .text.WL_New   0x080215e4       0xfc C:\PROGRA~2\VT3_8920\VT3\RESOUR~1\targets\CANVIEW4\lib\vt3_common\libvt3_common.a(VT3_CAN_debug.o)
 .text.WL_Get   0x080216e0       0x60 C:\PROGRA~2\VT3_8920\VT3\RESOUR~1\targets\CANVIEW4\lib\vt3_common\libvt3_common.a(VT3_CAN_debug.o)
 .text.J1939_free_slot
                0x08021740       0x28 C:\PROGRA~2\VT3_8920\VT3\RESOUR~1\targets\CANVIEW4\lib\vt3_common\libvt3_common.a(VT3_CAN_debug.o)
 .text.J1939_is_slot_free_for_BAM
                0x08021768       0x78 C:\PROGRA~2\VT3_8920\VT3\RESOUR~1\targets\CANVIEW4\lib\vt3_common\libvt3_common.a(VT3_CAN_debug.o)
 .text.J1939_find_slot_for_DT
                0x080217e0       0x6c C:\PROGRA~2\VT3_8920\VT3\RESOUR~1\targets\CANVIEW4\lib\vt3_common\libvt3_common.a(VT3_CAN_debug.o)
 .text.J1939_rx_BAM
                0x0802184c      0x17c C:\PROGRA~2\VT3_8920\VT3\RESOUR~1\targets\CANVIEW4\lib\vt3_common\libvt3_common.a(VT3_CAN_debug.o)
 .text.J1939_rx_DT
                0x080219c8      0x18c C:\PROGRA~2\VT3_8920\VT3\RESOUR~1\targets\CANVIEW4\lib\vt3_common\libvt3_common.a(VT3_CAN_debug.o)
 .text.Func_Read_Watch_List
                0x08021b54      0x180 C:\PROGRA~2\VT3_8920\VT3\RESOUR~1\targets\CANVIEW4\lib\vt3_common\libvt3_common.a(VT3_CAN_debug.o)
 .text.Func_Set_Watch_List
                0x08021cd4      0x1e4 C:\PROGRA~2\VT3_8920\VT3\RESOUR~1\targets\CANVIEW4\lib\vt3_common\libvt3_common.a(VT3_CAN_debug.o)
 .text.Func_Write_Event_Log_Answer
                0x08021eb8       0x4c C:\PROGRA~2\VT3_8920\VT3\RESOUR~1\targets\CANVIEW4\lib\vt3_common\libvt3_common.a(VT3_CAN_debug.o)
 .text.Func_Read_Event_Log
                0x08021f04      0x110 C:\PROGRA~2\VT3_8920\VT3\RESOUR~1\targets\CANVIEW4\lib\vt3_common\libvt3_common.a(VT3_CAN_debug.o)
 .text.Func_request_Read_Event_Log
                0x08022014       0xc8 C:\PROGRA~2\VT3_8920\VT3\RESOUR~1\targets\CANVIEW4\lib\vt3_common\libvt3_common.a(VT3_CAN_debug.o)
                0x08022014                Func_request_Read_Event_Log
 .text.Func_answer_Read_Event_Log
                0x080220dc       0x54 C:\PROGRA~2\VT3_8920\VT3\RESOUR~1\targets\CANVIEW4\lib\vt3_common\libvt3_common.a(VT3_CAN_debug.o)
 .text.Func_answer_Read_Alarm_Status
                0x08022130       0x54 C:\PROGRA~2\VT3_8920\VT3\RESOUR~1\targets\CANVIEW4\lib\vt3_common\libvt3_common.a(VT3_CAN_debug.o)
 .text.Func_request_Acknowledge_Alarm
                0x08022184       0xa8 C:\PROGRA~2\VT3_8920\VT3\RESOUR~1\targets\CANVIEW4\lib\vt3_common\libvt3_common.a(VT3_CAN_debug.o)
                0x08022184                Func_request_Acknowledge_Alarm
 .text.Func_request_Read_Alarm_Status
                0x0802222c       0xd8 C:\PROGRA~2\VT3_8920\VT3\RESOUR~1\targets\CANVIEW4\lib\vt3_common\libvt3_common.a(VT3_CAN_debug.o)
                0x0802222c                Func_request_Read_Alarm_Status
 .text.Func_Read_Alarm_Status
                0x08022304      0x11c C:\PROGRA~2\VT3_8920\VT3\RESOUR~1\targets\CANVIEW4\lib\vt3_common\libvt3_common.a(VT3_CAN_debug.o)
 .text.Func_Acknowledge_Alarm
                0x08022420       0xf8 C:\PROGRA~2\VT3_8920\VT3\RESOUR~1\targets\CANVIEW4\lib\vt3_common\libvt3_common.a(VT3_CAN_debug.o)
 .text.Func_Write_Event_Log
                0x08022518      0x174 C:\PROGRA~2\VT3_8920\VT3\RESOUR~1\targets\CANVIEW4\lib\vt3_common\libvt3_common.a(VT3_CAN_debug.o)
 .text.FuncResetDevice
                0x0802268c        0xc C:\PROGRA~2\VT3_8920\VT3\RESOUR~1\targets\CANVIEW4\lib\vt3_common\libvt3_common.a(VT3_CAN_debug.o)
 .text.login_client
                0x08022698       0x74 C:\PROGRA~2\VT3_8920\VT3\RESOUR~1\targets\CANVIEW4\lib\vt3_common\libvt3_common.a(VT3_CAN_debug.o)
 .text.login_answer
                0x0802270c       0x84 C:\PROGRA~2\VT3_8920\VT3\RESOUR~1\targets\CANVIEW4\lib\vt3_common\libvt3_common.a(VT3_CAN_debug.o)
 .text.rx_cyclic_message_alarm
                0x08022790       0xa8 C:\PROGRA~2\VT3_8920\VT3\RESOUR~1\targets\CANVIEW4\lib\vt3_common\libvt3_common.a(VT3_CAN_debug.o)
 .text.REMOTE_WRITE
                0x08022838      0x208 C:\PROGRA~2\VT3_8920\VT3\RESOUR~1\targets\CANVIEW4\lib\vt3_common\libvt3_common.a(VT3_CAN_debug.o)
                0x08022838                REMOTE_WRITE
 .text.REMOTE_WRITE_BOOL
                0x08022a40       0x20 C:\PROGRA~2\VT3_8920\VT3\RESOUR~1\targets\CANVIEW4\lib\vt3_common\libvt3_common.a(VT3_CAN_debug.o)
                0x08022a40                REMOTE_WRITE_BOOL
 .text.REMOTE_WRITE_INT32
                0x08022a60       0x1c C:\PROGRA~2\VT3_8920\VT3\RESOUR~1\targets\CANVIEW4\lib\vt3_common\libvt3_common.a(VT3_CAN_debug.o)
                0x08022a60                REMOTE_WRITE_INT32
 .text.REMOTE_WRITE_WORD
                0x08022a7c       0x20 C:\PROGRA~2\VT3_8920\VT3\RESOUR~1\targets\CANVIEW4\lib\vt3_common\libvt3_common.a(VT3_CAN_debug.o)
                0x08022a7c                REMOTE_WRITE_WORD
 .text.REMOTE_WRITE_BYTE
                0x08022a9c       0x20 C:\PROGRA~2\VT3_8920\VT3\RESOUR~1\targets\CANVIEW4\lib\vt3_common\libvt3_common.a(VT3_CAN_debug.o)
                0x08022a9c                REMOTE_WRITE_BYTE
 .text.REMOTE_WRITE_DINT
                0x08022abc       0x1c C:\PROGRA~2\VT3_8920\VT3\RESOUR~1\targets\CANVIEW4\lib\vt3_common\libvt3_common.a(VT3_CAN_debug.o)
                0x08022abc                REMOTE_WRITE_DINT
 .text.REMOTE_WRITE_INT
                0x08022ad8       0x20 C:\PROGRA~2\VT3_8920\VT3\RESOUR~1\targets\CANVIEW4\lib\vt3_common\libvt3_common.a(VT3_CAN_debug.o)
                0x08022ad8                REMOTE_WRITE_INT
 .text.REMOTE_WRITE_SINT
                0x08022af8       0x20 C:\PROGRA~2\VT3_8920\VT3\RESOUR~1\targets\CANVIEW4\lib\vt3_common\libvt3_common.a(VT3_CAN_debug.o)
                0x08022af8                REMOTE_WRITE_SINT
 .text.REMOTE_WRITE_UDINT
                0x08022b18       0x1c C:\PROGRA~2\VT3_8920\VT3\RESOUR~1\targets\CANVIEW4\lib\vt3_common\libvt3_common.a(VT3_CAN_debug.o)
                0x08022b18                REMOTE_WRITE_UDINT
 .text.REMOTE_WRITE_UINT
                0x08022b34       0x20 C:\PROGRA~2\VT3_8920\VT3\RESOUR~1\targets\CANVIEW4\lib\vt3_common\libvt3_common.a(VT3_CAN_debug.o)
                0x08022b34                REMOTE_WRITE_UINT
 .text.REMOTE_WRITE_USINT
                0x08022b54       0x20 C:\PROGRA~2\VT3_8920\VT3\RESOUR~1\targets\CANVIEW4\lib\vt3_common\libvt3_common.a(VT3_CAN_debug.o)
                0x08022b54                REMOTE_WRITE_USINT
 .text.REMOTE_WRITE_REAL
                0x08022b74       0x30 C:\PROGRA~2\VT3_8920\VT3\RESOUR~1\targets\CANVIEW4\lib\vt3_common\libvt3_common.a(VT3_CAN_debug.o)
                0x08022b74                REMOTE_WRITE_REAL
 .text.REMOTE_WRITE_DATE
                0x08022ba4       0x1c C:\PROGRA~2\VT3_8920\VT3\RESOUR~1\targets\CANVIEW4\lib\vt3_common\libvt3_common.a(VT3_CAN_debug.o)
                0x08022ba4                REMOTE_WRITE_DATE
 .text.REMOTE_WRITE_TIME
                0x08022bc0       0x1c C:\PROGRA~2\VT3_8920\VT3\RESOUR~1\targets\CANVIEW4\lib\vt3_common\libvt3_common.a(VT3_CAN_debug.o)
                0x08022bc0                REMOTE_WRITE_TIME
 .text.REMOTE_WRITE_TIME_OF_DAY
                0x08022bdc       0x1c C:\PROGRA~2\VT3_8920\VT3\RESOUR~1\targets\CANVIEW4\lib\vt3_common\libvt3_common.a(VT3_CAN_debug.o)
                0x08022bdc                REMOTE_WRITE_TIME_OF_DAY
 .text.J1939_tx_DP
                0x08022bf8       0xf0 C:\PROGRA~2\VT3_8920\VT3\RESOUR~1\targets\CANVIEW4\lib\vt3_common\libvt3_common.a(VT3_CAN_debug.o)
 .text.Func_answer_read_variables_array
                0x08022ce8      0x2b8 C:\PROGRA~2\VT3_8920\VT3\RESOUR~1\targets\CANVIEW4\lib\vt3_common\libvt3_common.a(VT3_CAN_debug.o)
                0x08022ce8                Func_answer_read_variables_array
 .text.remote_var_timer
                0x08022fa0      0x184 C:\PROGRA~2\VT3_8920\VT3\RESOUR~1\targets\CANVIEW4\lib\vt3_common\libvt3_common.a(VT3_CAN_debug.o)
                0x08022fa0                remote_var_timer
 .text.REMOTE_STATUS
                0x08023124       0x3c C:\PROGRA~2\VT3_8920\VT3\RESOUR~1\targets\CANVIEW4\lib\vt3_common\libvt3_common.a(VT3_CAN_debug.o)
                0x08023124                REMOTE_STATUS
 .text.REMOTE_DEVICE_STATUS
                0x08023160       0x28 C:\PROGRA~2\VT3_8920\VT3\RESOUR~1\targets\CANVIEW4\lib\vt3_common\libvt3_common.a(VT3_CAN_debug.o)
                0x08023160                REMOTE_DEVICE_STATUS
 .text.REMOTE_READ
                0x08023188      0x15c C:\PROGRA~2\VT3_8920\VT3\RESOUR~1\targets\CANVIEW4\lib\vt3_common\libvt3_common.a(VT3_CAN_debug.o)
                0x08023188                REMOTE_READ
 .text.REMOTE_READ_BOOL
                0x080232e4       0x1c C:\PROGRA~2\VT3_8920\VT3\RESOUR~1\targets\CANVIEW4\lib\vt3_common\libvt3_common.a(VT3_CAN_debug.o)
                0x080232e4                REMOTE_READ_BOOL
 .text.REMOTE_READ_INT32
                0x08023300       0x1c C:\PROGRA~2\VT3_8920\VT3\RESOUR~1\targets\CANVIEW4\lib\vt3_common\libvt3_common.a(VT3_CAN_debug.o)
                0x08023300                REMOTE_READ_INT32
 .text.REMOTE_READ_WORD
                0x0802331c       0x20 C:\PROGRA~2\VT3_8920\VT3\RESOUR~1\targets\CANVIEW4\lib\vt3_common\libvt3_common.a(VT3_CAN_debug.o)
                0x0802331c                REMOTE_READ_WORD
 .text.REMOTE_READ_BYTE
                0x0802333c       0x1c C:\PROGRA~2\VT3_8920\VT3\RESOUR~1\targets\CANVIEW4\lib\vt3_common\libvt3_common.a(VT3_CAN_debug.o)
                0x0802333c                REMOTE_READ_BYTE
 .text.REMOTE_READ_DINT
                0x08023358       0x1c C:\PROGRA~2\VT3_8920\VT3\RESOUR~1\targets\CANVIEW4\lib\vt3_common\libvt3_common.a(VT3_CAN_debug.o)
                0x08023358                REMOTE_READ_DINT
 .text.REMOTE_READ_INT
                0x08023374       0x20 C:\PROGRA~2\VT3_8920\VT3\RESOUR~1\targets\CANVIEW4\lib\vt3_common\libvt3_common.a(VT3_CAN_debug.o)
                0x08023374                REMOTE_READ_INT
 .text.REMOTE_READ_SINT
                0x08023394       0x1c C:\PROGRA~2\VT3_8920\VT3\RESOUR~1\targets\CANVIEW4\lib\vt3_common\libvt3_common.a(VT3_CAN_debug.o)
                0x08023394                REMOTE_READ_SINT
 .text.REMOTE_READ_UDINT
                0x080233b0       0x1c C:\PROGRA~2\VT3_8920\VT3\RESOUR~1\targets\CANVIEW4\lib\vt3_common\libvt3_common.a(VT3_CAN_debug.o)
                0x080233b0                REMOTE_READ_UDINT
 .text.REMOTE_READ_UINT
                0x080233cc       0x1c C:\PROGRA~2\VT3_8920\VT3\RESOUR~1\targets\CANVIEW4\lib\vt3_common\libvt3_common.a(VT3_CAN_debug.o)
                0x080233cc                REMOTE_READ_UINT
 .text.REMOTE_READ_USINT
                0x080233e8       0x1c C:\PROGRA~2\VT3_8920\VT3\RESOUR~1\targets\CANVIEW4\lib\vt3_common\libvt3_common.a(VT3_CAN_debug.o)
                0x080233e8                REMOTE_READ_USINT
 .text.REMOTE_READ_REAL
                0x08023404       0x38 C:\PROGRA~2\VT3_8920\VT3\RESOUR~1\targets\CANVIEW4\lib\vt3_common\libvt3_common.a(VT3_CAN_debug.o)
                0x08023404                REMOTE_READ_REAL
 .text.REMOTE_READ_DATE
                0x0802343c       0x1c C:\PROGRA~2\VT3_8920\VT3\RESOUR~1\targets\CANVIEW4\lib\vt3_common\libvt3_common.a(VT3_CAN_debug.o)
                0x0802343c                REMOTE_READ_DATE
 .text.REMOTE_READ_TIME
                0x08023458       0x1c C:\PROGRA~2\VT3_8920\VT3\RESOUR~1\targets\CANVIEW4\lib\vt3_common\libvt3_common.a(VT3_CAN_debug.o)
                0x08023458                REMOTE_READ_TIME
 .text.REMOTE_READ_TIME_OF_DAY
                0x08023474       0x1c C:\PROGRA~2\VT3_8920\VT3\RESOUR~1\targets\CANVIEW4\lib\vt3_common\libvt3_common.a(VT3_CAN_debug.o)
                0x08023474                REMOTE_READ_TIME_OF_DAY
 .text.CAN_OnReceiveVt3DebuggerMessage
                0x08023490      0x3a4 C:\PROGRA~2\VT3_8920\VT3\RESOUR~1\targets\CANVIEW4\lib\vt3_common\libvt3_common.a(VT3_CAN_debug.o)
 .text.CAN_debug_init
                0x08023834      0x18c C:\PROGRA~2\VT3_8920\VT3\RESOUR~1\targets\CANVIEW4\lib\vt3_common\libvt3_common.a(VT3_CAN_debug.o)
                0x08023834                CAN_debug_init
 .text.vt3_debug_cycle
                0x080239c0      0x2f8 C:\PROGRA~2\VT3_8920\VT3\RESOUR~1\targets\CANVIEW4\lib\vt3_common\libvt3_common.a(VT3_CAN_debug.o)
                0x080239c0                vt3_debug_cycle
 .text.vt3_transmit_EL_write
                0x08023cb8      0x19c C:\PROGRA~2\VT3_8920\VT3\RESOUR~1\targets\CANVIEW4\lib\vt3_common\libvt3_common.a(VT3_CAN_debug.o)
                0x08023cb8                vt3_transmit_EL_write
 .text.convert_vt3_color_to_UINT32
                0x08023e54       0x28 C:\PROGRA~2\VT3_8920\VT3\RESOUR~1\targets\CANVIEW4\lib\vt3_common\libvt3_common.a(VT3_Draw.o)
                0x08023e54                convert_vt3_color_to_UINT32
 .text.convert_UINT32_to_vt3_color
                0x08023e7c       0x50 C:\PROGRA~2\VT3_8920\VT3\RESOUR~1\targets\CANVIEW4\lib\vt3_common\libvt3_common.a(VT3_Draw.o)
 .text.vt3_translate
                0x08023ecc       0x38 C:\PROGRA~2\VT3_8920\VT3\RESOUR~1\targets\CANVIEW4\lib\vt3_common\libvt3_common.a(VT3_Draw.o)
 .text.vt3_dummy_set_focus
                0x08023f04       0x14 C:\PROGRA~2\VT3_8920\VT3\RESOUR~1\targets\CANVIEW4\lib\vt3_common\libvt3_common.a(VT3_Draw.o)
 .text.vt3_dummy_kill_focus
                0x08023f18       0x14 C:\PROGRA~2\VT3_8920\VT3\RESOUR~1\targets\CANVIEW4\lib\vt3_common\libvt3_common.a(VT3_Draw.o)
 .text.vt3_dummy_has_focus
                0x08023f2c       0x18 C:\PROGRA~2\VT3_8920\VT3\RESOUR~1\targets\CANVIEW4\lib\vt3_common\libvt3_common.a(VT3_Draw.o)
 .text.vt3_dummy_is_touch_point_inside
                0x08023f44       0x1c C:\PROGRA~2\VT3_8920\VT3\RESOUR~1\targets\CANVIEW4\lib\vt3_common\libvt3_common.a(VT3_Draw.o)
 .text.vt3_dummy_is_enabled
                0x08023f60       0x18 C:\PROGRA~2\VT3_8920\VT3\RESOUR~1\targets\CANVIEW4\lib\vt3_common\libvt3_common.a(VT3_Draw.o)
 .text.vt3Interpolate
                0x08023f78       0x94 C:\PROGRA~2\VT3_8920\VT3\RESOUR~1\targets\CANVIEW4\lib\vt3_common\libvt3_common.a(VT3_Draw.o)
                0x08023f78                vt3Interpolate
 .text.LcdDrawPropText
                0x0802400c       0xb4 C:\PROGRA~2\VT3_8920\VT3\RESOUR~1\targets\CANVIEW4\lib\vt3_common\libvt3_common.a(VT3_Draw.o)
                0x0802400c                LcdDrawPropText
 .text.LcdDrawPropTextLength
                0x080240c0       0xc8 C:\PROGRA~2\VT3_8920\VT3\RESOUR~1\targets\CANVIEW4\lib\vt3_common\libvt3_common.a(VT3_Draw.o)
                0x080240c0                LcdDrawPropTextLength
 .text.LcdDrawNonPropText
                0x08024188      0x130 C:\PROGRA~2\VT3_8920\VT3\RESOUR~1\targets\CANVIEW4\lib\vt3_common\libvt3_common.a(VT3_Draw.o)
                0x08024188                LcdDrawNonPropText
 .text.GetUnicodeFromUTF8
                0x080242b8      0x138 C:\PROGRA~2\VT3_8920\VT3\RESOUR~1\targets\CANVIEW4\lib\vt3_common\libvt3_common.a(VT3_Draw.o)
                0x080242b8                GetUnicodeFromUTF8
 .text.GetStringPixelLength
                0x080243f0       0xe0 C:\PROGRA~2\VT3_8920\VT3\RESOUR~1\targets\CANVIEW4\lib\vt3_common\libvt3_common.a(VT3_Draw.o)
                0x080243f0                GetStringPixelLength
 .text.GetStringLenPixelLength
                0x080244d0       0xe0 C:\PROGRA~2\VT3_8920\VT3\RESOUR~1\targets\CANVIEW4\lib\vt3_common\libvt3_common.a(VT3_Draw.o)
                0x080244d0                GetStringLenPixelLength
 .text.GetStrLenFromPixelLen
                0x080245b0       0x94 C:\PROGRA~2\VT3_8920\VT3\RESOUR~1\targets\CANVIEW4\lib\vt3_common\libvt3_common.a(VT3_Draw.o)
                0x080245b0                GetStrLenFromPixelLen
 .text.GetMaxNumberWidth
                0x08024644       0x48 C:\PROGRA~2\VT3_8920\VT3\RESOUR~1\targets\CANVIEW4\lib\vt3_common\libvt3_common.a(VT3_Draw.o)
                0x08024644                GetMaxNumberWidth
 .text.vt3_FormatDecimalNum
                0x0802468c      0x280 C:\PROGRA~2\VT3_8920\VT3\RESOUR~1\targets\CANVIEW4\lib\vt3_common\libvt3_common.a(VT3_Draw.o)
                0x0802468c                vt3_FormatDecimalNum
 .text.vt3_draw_image
                0x0802490c      0x444 C:\PROGRA~2\VT3_8920\VT3\RESOUR~1\targets\CANVIEW4\lib\vt3_common\libvt3_common.a(VT3_Draw.o)
                0x0802490c                vt3_draw_image
 .text.vt3_draw_indicator_SimpleLine
                0x08024d50       0x74 C:\PROGRA~2\VT3_8920\VT3\RESOUR~1\targets\CANVIEW4\lib\vt3_common\libvt3_common.a(VT3_Draw.o)
                0x08024d50                vt3_draw_indicator_SimpleLine
 .text.vt3_draw_indicator_SimpleRect
                0x08024dc4      0x354 C:\PROGRA~2\VT3_8920\VT3\RESOUR~1\targets\CANVIEW4\lib\vt3_common\libvt3_common.a(VT3_Draw.o)
                0x08024dc4                vt3_draw_indicator_SimpleRect
 .text.vt3_draw_indicator_PlaceHolder
                0x08025118       0x2c C:\PROGRA~2\VT3_8920\VT3\RESOUR~1\targets\CANVIEW4\lib\vt3_common\libvt3_common.a(VT3_Draw.o)
                0x08025118                vt3_draw_indicator_PlaceHolder
 .text.vt3_draw_image_internal
                0x08025144      0x634 C:\PROGRA~2\VT3_8920\VT3\RESOUR~1\targets\CANVIEW4\lib\vt3_common\libvt3_common.a(VT3_Draw.o)
                0x08025144                vt3_draw_image_internal
 .text.vt3_draw_indicator_GaugeBar
                0x08025778      0x950 C:\PROGRA~2\VT3_8920\VT3\RESOUR~1\targets\CANVIEW4\lib\vt3_common\libvt3_common.a(VT3_Draw.o)
                0x08025778                vt3_draw_indicator_GaugeBar
 .text.vt3_draw_indicator_CircularGauge
                0x080260c8      0x3e0 C:\PROGRA~2\VT3_8920\VT3\RESOUR~1\targets\CANVIEW4\lib\vt3_common\libvt3_common.a(VT3_Draw.o)
                0x080260c8                vt3_draw_indicator_CircularGauge
 .text.vt3_draw_indicator_MultiBitmap
                0x080264a8       0x70 C:\PROGRA~2\VT3_8920\VT3\RESOUR~1\targets\CANVIEW4\lib\vt3_common\libvt3_common.a(VT3_Draw.o)
                0x080264a8                vt3_draw_indicator_MultiBitmap
 .text.vt3_draw_indicator_SubScreen
                0x08026518       0x60 C:\PROGRA~2\VT3_8920\VT3\RESOUR~1\targets\CANVIEW4\lib\vt3_common\libvt3_common.a(VT3_Draw.o)
                0x08026518                vt3_draw_indicator_SubScreen
 .text.vt3_draw_indicator_Number
                0x08026578      0x6f8 C:\PROGRA~2\VT3_8920\VT3\RESOUR~1\targets\CANVIEW4\lib\vt3_common\libvt3_common.a(VT3_Draw.o)
                0x08026578                vt3_draw_indicator_Number
 .text.vt3_num_digits
                0x08026c70       0x48 C:\PROGRA~2\VT3_8920\VT3\RESOUR~1\targets\CANVIEW4\lib\vt3_common\libvt3_common.a(VT3_Draw.o)
                0x08026c70                vt3_num_digits
 .text.addNegativeSign
                0x08026cb8       0x8c C:\PROGRA~2\VT3_8920\VT3\RESOUR~1\targets\CANVIEW4\lib\vt3_common\libvt3_common.a(VT3_Draw.o)
 .text.substitutePaddingCharsInString
                0x08026d44       0x48 C:\PROGRA~2\VT3_8920\VT3\RESOUR~1\targets\CANVIEW4\lib\vt3_common\libvt3_common.a(VT3_Draw.o)
 .text.pow_int  0x08026d8c       0x3c C:\PROGRA~2\VT3_8920\VT3\RESOUR~1\targets\CANVIEW4\lib\vt3_common\libvt3_common.a(VT3_Draw.o)
 .text.vt3_FormatDecimalNumEditable
                0x08026dc8      0x1f4 C:\PROGRA~2\VT3_8920\VT3\RESOUR~1\targets\CANVIEW4\lib\vt3_common\libvt3_common.a(VT3_Draw.o)
                0x08026dc8                vt3_FormatDecimalNumEditable
 .text.numberEditableClampCurrentValue
                0x08026fbc       0x3c C:\PROGRA~2\VT3_8920\VT3\RESOUR~1\targets\CANVIEW4\lib\vt3_common\libvt3_common.a(VT3_Draw.o)
 .text.vt3_draw_indicator_NumberEditable
                0x08026ff8      0xd40 C:\PROGRA~2\VT3_8920\VT3\RESOUR~1\targets\CANVIEW4\lib\vt3_common\libvt3_common.a(VT3_Draw.o)
                0x08026ff8                vt3_draw_indicator_NumberEditable
 .text.vt3_draw_indicator_SimpleText
                0x08027d38      0x12c C:\PROGRA~2\VT3_8920\VT3\RESOUR~1\targets\CANVIEW4\lib\vt3_common\libvt3_common.a(VT3_Draw.o)
                0x08027d38                vt3_draw_indicator_SimpleText
 .text.vt3_manage_MultiLinesText
                0x08027e64      0x350 C:\PROGRA~2\VT3_8920\VT3\RESOUR~1\targets\CANVIEW4\lib\vt3_common\libvt3_common.a(VT3_Draw.o)
 .text.vt3_draw_indicator_MultiText
                0x080281b4      0x14c C:\PROGRA~2\VT3_8920\VT3\RESOUR~1\targets\CANVIEW4\lib\vt3_common\libvt3_common.a(VT3_Draw.o)
                0x080281b4                vt3_draw_indicator_MultiText
 .text.vt3_draw_indicator_Grid
                0x08028300      0x4a8 C:\PROGRA~2\VT3_8920\VT3\RESOUR~1\targets\CANVIEW4\lib\vt3_common\libvt3_common.a(VT3_Draw.o)
                0x08028300                vt3_draw_indicator_Grid
 .text.vt3_draw_indicator_SimpleCircle
                0x080287a8      0x138 C:\PROGRA~2\VT3_8920\VT3\RESOUR~1\targets\CANVIEW4\lib\vt3_common\libvt3_common.a(VT3_Draw.o)
                0x080287a8                vt3_draw_indicator_SimpleCircle
 .text.vt3_draw_indicator_SimpleTriangle
                0x080288e0      0x144 C:\PROGRA~2\VT3_8920\VT3\RESOUR~1\targets\CANVIEW4\lib\vt3_common\libvt3_common.a(VT3_Draw.o)
                0x080288e0                vt3_draw_indicator_SimpleTriangle
 .text.vt3_draw_indicator_Screen
                0x08028a24       0x38 C:\PROGRA~2\VT3_8920\VT3\RESOUR~1\targets\CANVIEW4\lib\vt3_common\libvt3_common.a(VT3_Draw.o)
                0x08028a24                vt3_draw_indicator_Screen
 .text.vt3_get_num_focus_indicator_screen
                0x08028a5c       0x38 C:\PROGRA~2\VT3_8920\VT3\RESOUR~1\targets\CANVIEW4\lib\vt3_common\libvt3_common.a(VT3_Draw.o)
 .text.vt3_set_focus_null
                0x08028a94       0x30 C:\PROGRA~2\VT3_8920\VT3\RESOUR~1\targets\CANVIEW4\lib\vt3_common\libvt3_common.a(VT3_Draw.o)
                0x08028a94                vt3_set_focus_null
 .text.vt3_set_focus_first
                0x08028ac4       0x14 C:\PROGRA~2\VT3_8920\VT3\RESOUR~1\targets\CANVIEW4\lib\vt3_common\libvt3_common.a(VT3_Draw.o)
                0x08028ac4                vt3_set_focus_first
 .text.vt3_set_focus_indicator
                0x08028ad8       0x40 C:\PROGRA~2\VT3_8920\VT3\RESOUR~1\targets\CANVIEW4\lib\vt3_common\libvt3_common.a(VT3_Draw.o)
                0x08028ad8                vt3_set_focus_indicator
 .text.vt3_set_focus_next
                0x08028b18       0x7c C:\PROGRA~2\VT3_8920\VT3\RESOUR~1\targets\CANVIEW4\lib\vt3_common\libvt3_common.a(VT3_Draw.o)
                0x08028b18                vt3_set_focus_next
 .text.vt3_set_focus_prev
                0x08028b94       0x7c C:\PROGRA~2\VT3_8920\VT3\RESOUR~1\targets\CANVIEW4\lib\vt3_common\libvt3_common.a(VT3_Draw.o)
                0x08028b94                vt3_set_focus_prev
 .text.GetWidthOfSingleGlyph
                0x08028c10       0x50 C:\PROGRA~2\VT3_8920\VT3\RESOUR~1\targets\CANVIEW4\lib\vt3_common\libvt3_common.a(VT3_Draw.o)
                0x08028c10                GetWidthOfSingleGlyph
 .text.vt3_look_for_focus_index
                0x08028c60       0x80 C:\PROGRA~2\VT3_8920\VT3\RESOUR~1\targets\CANVIEW4\lib\vt3_common\libvt3_common.a(VT3_Draw.o)
                0x08028c60                vt3_look_for_focus_index
 .text.vt3_set_focus_index
                0x08028ce0       0x20 C:\PROGRA~2\VT3_8920\VT3\RESOUR~1\targets\CANVIEW4\lib\vt3_common\libvt3_common.a(VT3_Draw.o)
                0x08028ce0                vt3_set_focus_index
 .text.vt3_has_focus
                0x08028d00       0x30 C:\PROGRA~2\VT3_8920\VT3\RESOUR~1\targets\CANVIEW4\lib\vt3_common\libvt3_common.a(VT3_Draw.o)
                0x08028d00                vt3_has_focus
 .text.vt3_GenericEditable_is_touch_point_inside
                0x08028d30       0x1c C:\PROGRA~2\VT3_8920\VT3\RESOUR~1\targets\CANVIEW4\lib\vt3_common\libvt3_common.a(VT3_Draw.o)
 .text.vt3_GenericEditable_set_focus
                0x08028d4c       0x14 C:\PROGRA~2\VT3_8920\VT3\RESOUR~1\targets\CANVIEW4\lib\vt3_common\libvt3_common.a(VT3_Draw.o)
 .text.vt3_GenericEditable_kill_focus
                0x08028d60       0x14 C:\PROGRA~2\VT3_8920\VT3\RESOUR~1\targets\CANVIEW4\lib\vt3_common\libvt3_common.a(VT3_Draw.o)
 .text.vt3_SimpleTextEditable_is_enabled
                0x08028d74       0x20 C:\PROGRA~2\VT3_8920\VT3\RESOUR~1\targets\CANVIEW4\lib\vt3_common\libvt3_common.a(VT3_Draw.o)
 .text.vt3_NumberEditable_is_enabled
                0x08028d94       0x20 C:\PROGRA~2\VT3_8920\VT3\RESOUR~1\targets\CANVIEW4\lib\vt3_common\libvt3_common.a(VT3_Draw.o)
 .text.vt3_focus_indicator_search_forward
                0x08028db4      0x10c C:\PROGRA~2\VT3_8920\VT3\RESOUR~1\targets\CANVIEW4\lib\vt3_common\libvt3_common.a(VT3_Draw.o)
                0x08028db4                vt3_focus_indicator_search_forward
 .text.vt3_focus_indicator_search_backward
                0x08028ec0      0x10c C:\PROGRA~2\VT3_8920\VT3\RESOUR~1\targets\CANVIEW4\lib\vt3_common\libvt3_common.a(VT3_Draw.o)
                0x08028ec0                vt3_focus_indicator_search_backward
 .text.key_apply_editable
                0x08028fcc       0xa4 C:\PROGRA~2\VT3_8920\VT3\RESOUR~1\targets\CANVIEW4\lib\vt3_common\libvt3_common.a(VT3_Draw.o)
 .text.vt3_draw_indicator_SimpleTextEditable
                0x08029070      0xd18 C:\PROGRA~2\VT3_8920\VT3\RESOUR~1\targets\CANVIEW4\lib\vt3_common\libvt3_common.a(VT3_Draw.o)
                0x08029070                vt3_draw_indicator_SimpleTextEditable
 .text.vt3_process_data_numeric_input_mask
                0x08029d88      0x274 C:\PROGRA~2\VT3_8920\VT3\RESOUR~1\targets\CANVIEW4\lib\vt3_common\libvt3_common.a(VT3_Draw.o)
 .text.alphaUpperLower
                0x08029ffc       0x64 C:\PROGRA~2\VT3_8920\VT3\RESOUR~1\targets\CANVIEW4\lib\vt3_common\libvt3_common.a(VT3_Draw.o)
 .text.vt3_process_data_input_mask
                0x0802a060      0x4d8 C:\PROGRA~2\VT3_8920\VT3\RESOUR~1\targets\CANVIEW4\lib\vt3_common\libvt3_common.a(VT3_Draw.o)
 .text.vt3_convert_string_with_mask_to_number
                0x0802a538      0x17c C:\PROGRA~2\VT3_8920\VT3\RESOUR~1\targets\CANVIEW4\lib\vt3_common\libvt3_common.a(VT3_Draw.o)
                0x0802a538                vt3_convert_string_with_mask_to_number
 .text.vt3_convert_number_to_string_with_mask
                0x0802a6b4      0x2f0 C:\PROGRA~2\VT3_8920\VT3\RESOUR~1\targets\CANVIEW4\lib\vt3_common\libvt3_common.a(VT3_Draw.o)
                0x0802a6b4                vt3_convert_number_to_string_with_mask
 .text.vt3_AlarmQuick_Draw_counter
                0x0802a9a4      0x2b4 C:\PROGRA~2\VT3_8920\VT3\RESOUR~1\targets\CANVIEW4\lib\vt3_common\libvt3_common.a(VT3_Draw.o)
 .text.translate_alarm_status
                0x0802ac58       0x7c C:\PROGRA~2\VT3_8920\VT3\RESOUR~1\targets\CANVIEW4\lib\vt3_common\libvt3_common.a(VT3_Draw.o)
                0x0802ac58                translate_alarm_status
 .text.strlcpy_local
                0x0802acd4       0x4c C:\PROGRA~2\VT3_8920\VT3\RESOUR~1\targets\CANVIEW4\lib\vt3_common\libvt3_common.a(VT3_Draw.o)
 .text.draw_text_string
                0x0802ad20      0x594 C:\PROGRA~2\VT3_8920\VT3\RESOUR~1\targets\CANVIEW4\lib\vt3_common\libvt3_common.a(VT3_Draw.o)
 .text.vt3_draw_indicator_AlarmQuick
                0x0802b2b4      0xba4 C:\PROGRA~2\VT3_8920\VT3\RESOUR~1\targets\CANVIEW4\lib\vt3_common\libvt3_common.a(VT3_Draw.o)
                0x0802b2b4                vt3_draw_indicator_AlarmQuick
 .text.draw_text_string_AlarmSummary
                0x0802be58      0x15c C:\PROGRA~2\VT3_8920\VT3\RESOUR~1\targets\CANVIEW4\lib\vt3_common\libvt3_common.a(VT3_Draw.o)
 .text.vt3_draw_indicator_AlarmSummary
                0x0802bfb4     0x1e80 C:\PROGRA~2\VT3_8920\VT3\RESOUR~1\targets\CANVIEW4\lib\vt3_common\libvt3_common.a(VT3_Draw.o)
                0x0802bfb4                vt3_draw_indicator_AlarmSummary
 .text.draw_text_string_alarmlogtable
                0x0802de34      0x4b0 C:\PROGRA~2\VT3_8920\VT3\RESOUR~1\targets\CANVIEW4\lib\vt3_common\libvt3_common.a(VT3_Draw.o)
 .text.vt3_draw_indicator_AlarmLogTable
                0x0802e2e4     0x1708 C:\PROGRA~2\VT3_8920\VT3\RESOUR~1\targets\CANVIEW4\lib\vt3_common\libvt3_common.a(VT3_Draw.o)
                0x0802e2e4                vt3_draw_indicator_AlarmLogTable
 .text.compare_aguid
                0x0802f9ec       0x44 C:\PROGRA~2\VT3_8920\VT3\RESOUR~1\targets\CANVIEW4\lib\vt3_common\libvt3_common.a(VT3_Draw.o)
 .text.vt3_draw_indicator_AlarmLogDetail
                0x0802fa30     0x1320 C:\PROGRA~2\VT3_8920\VT3\RESOUR~1\targets\CANVIEW4\lib\vt3_common\libvt3_common.a(VT3_Draw.o)
                0x0802fa30                vt3_draw_indicator_AlarmLogDetail
 .text.vt3_follow_invalid_chain
                0x08030d50       0x2c C:\PROGRA~2\VT3_8920\VT3\RESOUR~1\targets\CANVIEW4\lib\vt3_common\libvt3_common.a(VT3_Draw.o)
                0x08030d50                vt3_follow_invalid_chain
 .text.vt3_schedule
                0x08030d7c       0x4c C:\PROGRA~2\VT3_8920\VT3\RESOUR~1\targets\CANVIEW4\lib\vt3_common\libvt3_common.a(VT3_Runtime_Common.o)
                0x08030d7c                vt3_schedule
 .text.vt3_can_schedule
                0x08030dc8       0x48 C:\PROGRA~2\VT3_8920\VT3\RESOUR~1\targets\CANVIEW4\lib\vt3_common\libvt3_common.a(VT3_Runtime_Common.o)
                0x08030dc8                vt3_can_schedule
 .text.vt3_apply_cobid_change
                0x08030e10       0xe4 C:\PROGRA~2\VT3_8920\VT3\RESOUR~1\targets\CANVIEW4\lib\vt3_common\libvt3_common.a(VT3_Runtime_Common.o)
                0x08030e10                vt3_apply_cobid_change
 .text.vt3_init_interface
                0x08030ef4       0xe0 C:\PROGRA~2\VT3_8920\VT3\RESOUR~1\targets\CANVIEW4\lib\vt3_common\libvt3_common.a(VT3_Runtime_Common.o)
                0x08030ef4                vt3_init_interface
 .text.vt3_get_canmsg
                0x08030fd4       0x28 C:\PROGRA~2\VT3_8920\VT3\RESOUR~1\targets\CANVIEW4\lib\vt3_common\libvt3_common.a(VT3_Runtime_Common.o)
                0x08030fd4                vt3_get_canmsg
 .text.vt3_send_canmsg
                0x08030ffc       0x44 C:\PROGRA~2\VT3_8920\VT3\RESOUR~1\targets\CANVIEW4\lib\vt3_common\libvt3_common.a(VT3_Runtime_Common.o)
                0x08030ffc                vt3_send_canmsg
 .text.vt3_can_check_busoff
                0x08031040       0x18 C:\PROGRA~2\VT3_8920\VT3\RESOUR~1\targets\CANVIEW4\lib\vt3_common\libvt3_common.a(VT3_Runtime_Common.o)
                0x08031040                vt3_can_check_busoff
 .text.vt3_change_cobid
                0x08031058       0x70 C:\PROGRA~2\VT3_8920\VT3\RESOUR~1\targets\CANVIEW4\lib\vt3_common\libvt3_common.a(VT3_Runtime_Common.o)
 .text.vt3_change_cobid_rx
                0x080310c8       0x3c C:\PROGRA~2\VT3_8920\VT3\RESOUR~1\targets\CANVIEW4\lib\vt3_common\libvt3_common.a(VT3_Runtime_Common.o)
                0x080310c8                vt3_change_cobid_rx
 .text.vt3_change_cobid_tx
                0x08031104       0x3c C:\PROGRA~2\VT3_8920\VT3\RESOUR~1\targets\CANVIEW4\lib\vt3_common\libvt3_common.a(VT3_Runtime_Common.o)
                0x08031104                vt3_change_cobid_tx
 .text.vt3_start_tasks
                0x08031140       0x74 C:\PROGRA~2\VT3_8920\VT3\RESOUR~1\targets\CANVIEW4\lib\vt3_common\libvt3_common.a(VT3_Runtime_Common.o)
                0x08031140                vt3_start_tasks
 .text.vt3_get_ms_since_start
                0x080311b4       0x1c C:\PROGRA~2\VT3_8920\VT3\RESOUR~1\targets\CANVIEW4\lib\vt3_common\libvt3_common.a(VT3_Runtime_Common.o)
                0x080311b4                vt3_get_ms_since_start
 .text.vt3_get_system_ticks
                0x080311d0       0x10 C:\PROGRA~2\VT3_8920\VT3\RESOUR~1\targets\CANVIEW4\lib\vt3_common\libvt3_common.a(VT3_Runtime_Common.o)
                0x080311d0                vt3_get_system_ticks
 .text.ALM_poll_cycles_dec
                0x080311e0      0x1a0 C:\PROGRA~2\VT3_8920\VT3\RESOUR~1\targets\CANVIEW4\lib\vt3_common\libvt3_common.a(VT3_elog.o)
 .text.ALM_IDS_index_Comp_WORD
                0x08031380       0x48 C:\PROGRA~2\VT3_8920\VT3\RESOUR~1\targets\CANVIEW4\lib\vt3_common\libvt3_common.a(VT3_elog.o)
 .text.ALM_IDS_index_Comp_SPN
                0x080313c8       0x44 C:\PROGRA~2\VT3_8920\VT3\RESOUR~1\targets\CANVIEW4\lib\vt3_common\libvt3_common.a(VT3_elog.o)
 .text.ALM_Fmi_To_IDS_index
                0x0803140c       0x5c C:\PROGRA~2\VT3_8920\VT3\RESOUR~1\targets\CANVIEW4\lib\vt3_common\libvt3_common.a(VT3_elog.o)
                0x0803140c                ALM_Fmi_To_IDS_index
 .text.ALM_FMI_To_IDS_index
                0x08031468       0x1c C:\PROGRA~2\VT3_8920\VT3\RESOUR~1\targets\CANVIEW4\lib\vt3_common\libvt3_common.a(VT3_elog.o)
                0x08031468                ALM_FMI_To_IDS_index
 .text.ALM_spn_To_IDS_index
                0x08031484       0x4c C:\PROGRA~2\VT3_8920\VT3\RESOUR~1\targets\CANVIEW4\lib\vt3_common\libvt3_common.a(VT3_elog.o)
                0x08031484                ALM_spn_To_IDS_index
 .text.ALM_SPN_To_IDS_index
                0x080314d0       0x18 C:\PROGRA~2\VT3_8920\VT3\RESOUR~1\targets\CANVIEW4\lib\vt3_common\libvt3_common.a(VT3_elog.o)
                0x080314d0                ALM_SPN_To_IDS_index
 .text.ALM_Priority_To_IDS_index
                0x080314e8       0x5c C:\PROGRA~2\VT3_8920\VT3\RESOUR~1\targets\CANVIEW4\lib\vt3_common\libvt3_common.a(VT3_elog.o)
                0x080314e8                ALM_Priority_To_IDS_index
 .text.ALM_Group_To_IDS_index
                0x08031544       0x5c C:\PROGRA~2\VT3_8920\VT3\RESOUR~1\targets\CANVIEW4\lib\vt3_common\libvt3_common.a(VT3_elog.o)
                0x08031544                ALM_Group_To_IDS_index
 .text.EL_initialize
                0x080315a0       0x70 C:\PROGRA~2\VT3_8920\VT3\RESOUR~1\targets\CANVIEW4\lib\vt3_common\libvt3_common.a(VT3_elog.o)
                0x080315a0                EL_initialize
 .text.EL_find_index
                0x08031610       0x70 C:\PROGRA~2\VT3_8920\VT3\RESOUR~1\targets\CANVIEW4\lib\vt3_common\libvt3_common.a(VT3_elog.o)
 .text.EL_format_local
                0x08031680      0x154 C:\PROGRA~2\VT3_8920\VT3\RESOUR~1\targets\CANVIEW4\lib\vt3_common\libvt3_common.a(VT3_elog.o)
                0x08031680                EL_format_local
 .text.EL_open_local
                0x080317d4      0x174 C:\PROGRA~2\VT3_8920\VT3\RESOUR~1\targets\CANVIEW4\lib\vt3_common\libvt3_common.a(VT3_elog.o)
 .text.SA_debug_to_index
                0x08031948       0x4c C:\PROGRA~2\VT3_8920\VT3\RESOUR~1\targets\CANVIEW4\lib\vt3_common\libvt3_common.a(VT3_elog.o)
 .text.ALM_login_state
                0x08031994       0x3c C:\PROGRA~2\VT3_8920\VT3\RESOUR~1\targets\CANVIEW4\lib\vt3_common\libvt3_common.a(VT3_elog.o)
                0x08031994                ALM_login_state
 .text.ALM_set_login_state
                0x080319d0       0x58 C:\PROGRA~2\VT3_8920\VT3\RESOUR~1\targets\CANVIEW4\lib\vt3_common\libvt3_common.a(VT3_elog.o)
                0x080319d0                ALM_set_login_state
 .text.ALM_init_login_cycles_timeout
                0x08031a28       0x50 C:\PROGRA~2\VT3_8920\VT3\RESOUR~1\targets\CANVIEW4\lib\vt3_common\libvt3_common.a(VT3_elog.o)
                0x08031a28                ALM_init_login_cycles_timeout
 .text.ALM_get_timeout
                0x08031a78       0x3c C:\PROGRA~2\VT3_8920\VT3\RESOUR~1\targets\CANVIEW4\lib\vt3_common\libvt3_common.a(VT3_elog.o)
                0x08031a78                ALM_get_timeout
 .text.write_vt3_devices_alarm_status
                0x08031ab4       0x70 C:\PROGRA~2\VT3_8920\VT3\RESOUR~1\targets\CANVIEW4\lib\vt3_common\libvt3_common.a(VT3_elog.o)
                0x08031ab4                write_vt3_devices_alarm_status
 .text.alarm_cycle
                0x08031b24      0x604 C:\PROGRA~2\VT3_8920\VT3\RESOUR~1\targets\CANVIEW4\lib\vt3_common\libvt3_common.a(VT3_elog.o)
 .text.ALM_all_sum
                0x08032128       0xc0 C:\PROGRA~2\VT3_8920\VT3\RESOUR~1\targets\CANVIEW4\lib\vt3_common\libvt3_common.a(VT3_elog.o)
                0x08032128                ALM_all_sum
 .text.get_current_date_and_time
                0x080321e8       0x84 C:\PROGRA~2\VT3_8920\VT3\RESOUR~1\targets\CANVIEW4\lib\vt3_common\libvt3_common.a(VT3_elog.o)
 .text.prepare_alarm_record
                0x0803226c       0xcc C:\PROGRA~2\VT3_8920\VT3\RESOUR~1\targets\CANVIEW4\lib\vt3_common\libvt3_common.a(VT3_elog.o)
 .text.BB_transition_is_filtered
                0x08032338       0x5c C:\PROGRA~2\VT3_8920\VT3\RESOUR~1\targets\CANVIEW4\lib\vt3_common\libvt3_common.a(VT3_elog.o)
 .text.EL_task  0x08032394      0x3d0 C:\PROGRA~2\VT3_8920\VT3\RESOUR~1\targets\CANVIEW4\lib\vt3_common\libvt3_common.a(VT3_elog.o)
                0x08032394                EL_task
 .text.EL_write_local
                0x08032764      0x18c C:\PROGRA~2\VT3_8920\VT3\RESOUR~1\targets\CANVIEW4\lib\vt3_common\libvt3_common.a(VT3_elog.o)
                0x08032764                EL_write_local
 .text.EL_write
                0x080328f0       0xa0 C:\PROGRA~2\VT3_8920\VT3\RESOUR~1\targets\CANVIEW4\lib\vt3_common\libvt3_common.a(VT3_elog.o)
                0x080328f0                EL_write
 .text.EL_write_answer
                0x08032990       0x4c C:\PROGRA~2\VT3_8920\VT3\RESOUR~1\targets\CANVIEW4\lib\vt3_common\libvt3_common.a(VT3_elog.o)
                0x08032990                EL_write_answer
 .text.EL_read_local
                0x080329dc      0x444 C:\PROGRA~2\VT3_8920\VT3\RESOUR~1\targets\CANVIEW4\lib\vt3_common\libvt3_common.a(VT3_elog.o)
                0x080329dc                EL_read_local
 .text.EL_reset_vars
                0x08032e20       0x3c C:\PROGRA~2\VT3_8920\VT3\RESOUR~1\targets\CANVIEW4\lib\vt3_common\libvt3_common.a(VT3_elog.o)
                0x08032e20                EL_reset_vars
 .text.EL_read  0x08032e5c       0xd0 C:\PROGRA~2\VT3_8920\VT3\RESOUR~1\targets\CANVIEW4\lib\vt3_common\libvt3_common.a(VT3_elog.o)
                0x08032e5c                EL_read
 .text.EL_poll_read_set
                0x08032f2c       0x90 C:\PROGRA~2\VT3_8920\VT3\RESOUR~1\targets\CANVIEW4\lib\vt3_common\libvt3_common.a(VT3_elog.o)
                0x08032f2c                EL_poll_read_set
 .text.EL_poll_read
                0x08032fbc       0x98 C:\PROGRA~2\VT3_8920\VT3\RESOUR~1\targets\CANVIEW4\lib\vt3_common\libvt3_common.a(VT3_elog.o)
                0x08032fbc                EL_poll_read
 .text.EL_poll_write
                0x08033054       0x98 C:\PROGRA~2\VT3_8920\VT3\RESOUR~1\targets\CANVIEW4\lib\vt3_common\libvt3_common.a(VT3_elog.o)
                0x08033054                EL_poll_write
 .text.EL_get_failure_count
                0x080330ec       0x40 C:\PROGRA~2\VT3_8920\VT3\RESOUR~1\targets\CANVIEW4\lib\vt3_common\libvt3_common.a(VT3_elog.o)
                0x080330ec                EL_get_failure_count
 .text.ALM_set  0x0803312c       0x9c C:\PROGRA~2\VT3_8920\VT3\RESOUR~1\targets\CANVIEW4\lib\vt3_common\libvt3_common.a(VT3_elog.o)
                0x0803312c                ALM_set
 .text.ALM_rtn  0x080331c8       0xac C:\PROGRA~2\VT3_8920\VT3\RESOUR~1\targets\CANVIEW4\lib\vt3_common\libvt3_common.a(VT3_elog.o)
                0x080331c8                ALM_rtn
 .text.ALM_ack_AGUID
                0x08033274       0x5c C:\PROGRA~2\VT3_8920\VT3\RESOUR~1\targets\CANVIEW4\lib\vt3_common\libvt3_common.a(VT3_elog.o)
                0x08033274                ALM_ack_AGUID
 .text.CompAguid
                0x080332d0       0x44 C:\PROGRA~2\VT3_8920\VT3\RESOUR~1\targets\CANVIEW4\lib\vt3_common\libvt3_common.a(VT3_elog.o)
 .text.ALM_seek_local_AGUID
                0x08033314       0x5c C:\PROGRA~2\VT3_8920\VT3\RESOUR~1\targets\CANVIEW4\lib\vt3_common\libvt3_common.a(VT3_elog.o)
                0x08033314                ALM_seek_local_AGUID
 .text.comp_index_spn_fmi
                0x08033370       0x80 C:\PROGRA~2\VT3_8920\VT3\RESOUR~1\targets\CANVIEW4\lib\vt3_common\libvt3_common.a(VT3_elog.o)
 .text.ALM_seek_local_SPN_FMI
                0x080333f0       0xdc C:\PROGRA~2\VT3_8920\VT3\RESOUR~1\targets\CANVIEW4\lib\vt3_common\libvt3_common.a(VT3_elog.o)
                0x080333f0                ALM_seek_local_SPN_FMI
 .text.ALM_ack_local
                0x080334cc       0x60 C:\PROGRA~2\VT3_8920\VT3\RESOUR~1\targets\CANVIEW4\lib\vt3_common\libvt3_common.a(VT3_elog.o)
                0x080334cc                ALM_ack_local
 .text.ALM_get  0x0803352c       0x44 C:\PROGRA~2\VT3_8920\VT3\RESOUR~1\targets\CANVIEW4\lib\vt3_common\libvt3_common.a(VT3_elog.o)
                0x0803352c                ALM_get
 .text.ALM_filter
                0x08033570      0x1b4 C:\PROGRA~2\VT3_8920\VT3\RESOUR~1\targets\CANVIEW4\lib\vt3_common\libvt3_common.a(VT3_elog.o)
                0x08033570                ALM_filter
 .text.ALM_poll_set
                0x08033724       0x84 C:\PROGRA~2\VT3_8920\VT3\RESOUR~1\targets\CANVIEW4\lib\vt3_common\libvt3_common.a(VT3_elog.o)
                0x08033724                ALM_poll_set
 .text.ALM_slot_free
                0x080337a8       0x3c C:\PROGRA~2\VT3_8920\VT3\RESOUR~1\targets\CANVIEW4\lib\vt3_common\libvt3_common.a(VT3_elog.o)
                0x080337a8                ALM_slot_free
 .text.ALM_poll
                0x080337e4       0xc8 C:\PROGRA~2\VT3_8920\VT3\RESOUR~1\targets\CANVIEW4\lib\vt3_common\libvt3_common.a(VT3_elog.o)
                0x080337e4                ALM_poll
 .text.ALM_filter_local
                0x080338ac      0x2d0 C:\PROGRA~2\VT3_8920\VT3\RESOUR~1\targets\CANVIEW4\lib\vt3_common\libvt3_common.a(VT3_elog.o)
                0x080338ac                ALM_filter_local
 .text.ALM_SPN_FMI_PRI_TO_AGUID
                0x08033b7c       0x44 C:\PROGRA~2\VT3_8920\VT3\RESOUR~1\targets\CANVIEW4\lib\vt3_common\libvt3_common.a(VT3_elog.o)
                0x08033b7c                ALM_SPN_FMI_PRI_TO_AGUID
 .text.ALM_AGUID_TO_SPN
                0x08033bc0       0x1c C:\PROGRA~2\VT3_8920\VT3\RESOUR~1\targets\CANVIEW4\lib\vt3_common\libvt3_common.a(VT3_elog.o)
                0x08033bc0                ALM_AGUID_TO_SPN
 .text.ALM_AGUID_TO_FMI
                0x08033bdc       0x18 C:\PROGRA~2\VT3_8920\VT3\RESOUR~1\targets\CANVIEW4\lib\vt3_common\libvt3_common.a(VT3_elog.o)
                0x08033bdc                ALM_AGUID_TO_FMI
 .text.ALM_AGUID_TO_PRI
                0x08033bf4       0x1c C:\PROGRA~2\VT3_8920\VT3\RESOUR~1\targets\CANVIEW4\lib\vt3_common\libvt3_common.a(VT3_elog.o)
                0x08033bf4                ALM_AGUID_TO_PRI
 .text.Reset_Handler
                0x08033c10       0x50 C:\PROGRA~2\VT3_8920\VT3\RESOUR~1\targets\CANVIEW4\lib\lld\libCANView4.a(startup_stm32f429xx.o)
                0x08033c10                Reset_Handler
 .text.Default_Handler
                0x08033c60        0x2 C:\PROGRA~2\VT3_8920\VT3\RESOUR~1\targets\CANVIEW4\lib\lld\libCANView4.a(startup_stm32f429xx.o)
                0x08033c60                RTC_Alarm_IRQHandler
                0x08033c60                HASH_RNG_IRQHandler
                0x08033c60                EXTI2_IRQHandler
                0x08033c60                TIM8_CC_IRQHandler
                0x08033c60                DebugMon_Handler
                0x08033c60                UART8_IRQHandler
                0x08033c60                SPI4_IRQHandler
                0x08033c60                TIM1_CC_IRQHandler
                0x08033c60                DMA2_Stream5_IRQHandler
                0x08033c60                DMA1_Stream5_IRQHandler
                0x08033c60                PVD_IRQHandler
                0x08033c60                SDIO_IRQHandler
                0x08033c60                TAMP_STAMP_IRQHandler
                0x08033c60                NMI_Handler
                0x08033c60                EXTI3_IRQHandler
                0x08033c60                TIM8_TRG_COM_TIM14_IRQHandler
                0x08033c60                TIM1_UP_TIM10_IRQHandler
                0x08033c60                TIM8_UP_TIM13_IRQHandler
                0x08033c60                I2C3_ER_IRQHandler
                0x08033c60                EXTI0_IRQHandler
                0x08033c60                I2C2_EV_IRQHandler
                0x08033c60                DMA1_Stream2_IRQHandler
                0x08033c60                FPU_IRQHandler
                0x08033c60                OTG_HS_WKUP_IRQHandler
                0x08033c60                UsageFault_Handler
                0x08033c60                LTDC_ER_IRQHandler
                0x08033c60                CAN2_SCE_IRQHandler
                0x08033c60                DMA2_Stream2_IRQHandler
                0x08033c60                SPI1_IRQHandler
                0x08033c60                TIM6_DAC_IRQHandler
                0x08033c60                TIM1_BRK_TIM9_IRQHandler
                0x08033c60                USART6_IRQHandler
                0x08033c60                USART3_IRQHandler
                0x08033c60                UART5_IRQHandler
                0x08033c60                DMA2_Stream0_IRQHandler
                0x08033c60                I2C1_EV_IRQHandler
                0x08033c60                DMA1_Stream6_IRQHandler
                0x08033c60                DMA1_Stream1_IRQHandler
                0x08033c60                UART4_IRQHandler
                0x08033c60                TIM3_IRQHandler
                0x08033c60                RCC_IRQHandler
                0x08033c60                TIM8_BRK_TIM12_IRQHandler
                0x08033c60                Default_Handler
                0x08033c60                ADC_IRQHandler
                0x08033c60                DMA1_Stream7_IRQHandler
                0x08033c60                TIM7_IRQHandler
                0x08033c60                TIM5_IRQHandler
                0x08033c60                DMA2_Stream7_IRQHandler
                0x08033c60                I2C3_EV_IRQHandler
                0x08033c60                EXTI9_5_IRQHandler
                0x08033c60                RTC_WKUP_IRQHandler
                0x08033c60                LTDC_IRQHandler
                0x08033c60                ETH_WKUP_IRQHandler
                0x08033c60                SPI2_IRQHandler
                0x08033c60                OTG_HS_EP1_IN_IRQHandler
                0x08033c60                MemManage_Handler
                0x08033c60                DMA1_Stream0_IRQHandler
                0x08033c60                EXTI4_IRQHandler
                0x08033c60                ETH_IRQHandler
                0x08033c60                OTG_HS_EP1_OUT_IRQHandler
                0x08033c60                WWDG_IRQHandler
                0x08033c60                SPI6_IRQHandler
                0x08033c60                TIM2_IRQHandler
                0x08033c60                OTG_FS_WKUP_IRQHandler
                0x08033c60                TIM1_TRG_COM_TIM11_IRQHandler
                0x08033c60                DMA2D_IRQHandler
                0x08033c60                EXTI1_IRQHandler
                0x08033c60                UART7_IRQHandler
                0x08033c60                I2C2_ER_IRQHandler
                0x08033c60                CAN1_SCE_IRQHandler
                0x08033c60                FLASH_IRQHandler
                0x08033c60                BusFault_Handler
                0x08033c60                USART1_IRQHandler
                0x08033c60                OTG_FS_IRQHandler
                0x08033c60                SPI3_IRQHandler
                0x08033c60                DMA1_Stream4_IRQHandler
                0x08033c60                I2C1_ER_IRQHandler
                0x08033c60                FMC_IRQHandler
                0x08033c60                DMA2_Stream6_IRQHandler
                0x08033c60                SAI1_IRQHandler
                0x08033c60                DMA1_Stream3_IRQHandler
 .text.SysTick_Handler
                0x08033c62       0x10 C:\PROGRA~2\VT3_8920\VT3\RESOUR~1\targets\CANVIEW4\lib\lld\libCANView4.a(stm32f4xx_it.o)
                0x08033c62                SysTick_Handler
 *fill*         0x08033c72        0x2 
 .text.OTG_HS_IRQHandler
                0x08033c74       0x14 C:\PROGRA~2\VT3_8920\VT3\RESOUR~1\targets\CANVIEW4\lib\lld\libCANView4.a(stm32f4xx_it.o)
                0x08033c74                OTG_HS_IRQHandler
 .text.TIM4_IRQHandler
                0x08033c88       0x14 C:\PROGRA~2\VT3_8920\VT3\RESOUR~1\targets\CANVIEW4\lib\lld\libCANView4.a(stm32f4xx_it.o)
                0x08033c88                TIM4_IRQHandler
 .text.DMA2_Stream1_IRQHandler
                0x08033c9c       0x18 C:\PROGRA~2\VT3_8920\VT3\RESOUR~1\targets\CANVIEW4\lib\lld\libCANView4.a(stm32f4xx_it.o)
                0x08033c9c                DMA2_Stream1_IRQHandler
 .text.DCMI_IRQHandler
                0x08033cb4       0x14 C:\PROGRA~2\VT3_8920\VT3\RESOUR~1\targets\CANVIEW4\lib\lld\libCANView4.a(stm32f4xx_it.o)
                0x08033cb4                DCMI_IRQHandler
 .text.EXTI15_10_IRQHandler
                0x08033cc8       0x10 C:\PROGRA~2\VT3_8920\VT3\RESOUR~1\targets\CANVIEW4\lib\lld\libCANView4.a(stm32f4xx_it.o)
                0x08033cc8                EXTI15_10_IRQHandler
 .text.HAL_TIM_PeriodElapsedCallback
                0x08033cd8       0x28 C:\PROGRA~2\VT3_8920\VT3\RESOUR~1\targets\CANVIEW4\lib\lld\libCANView4.a(stm32f4xx_it.o)
                0x08033cd8                HAL_TIM_PeriodElapsedCallback
 .text.DMA2_Stream3_IRQHandler
                0x08033d00       0x14 C:\PROGRA~2\VT3_8920\VT3\RESOUR~1\targets\CANVIEW4\lib\lld\libCANView4.a(stm32f4xx_it.o)
                0x08033d00                DMA2_Stream3_IRQHandler
 .text.DMA2_Stream4_IRQHandler
                0x08033d14       0x14 C:\PROGRA~2\VT3_8920\VT3\RESOUR~1\targets\CANVIEW4\lib\lld\libCANView4.a(stm32f4xx_it.o)
                0x08033d14                DMA2_Stream4_IRQHandler
 .text.USART2_IRQHandler
                0x08033d28       0x14 C:\PROGRA~2\VT3_8920\VT3\RESOUR~1\targets\CANVIEW4\lib\lld\libCANView4.a(stm32f4xx_it.o)
                0x08033d28                USART2_IRQHandler
 .text.HAL_HCD_MspInit
                0x08033d3c       0x70 C:\PROGRA~2\VT3_8920\VT3\RESOUR~1\targets\CANVIEW4\lib\lld\libCANView4.a(usbh_conf.o)
                0x08033d3c                HAL_HCD_MspInit
 .text.HAL_HCD_MspDeInit
                0x08033dac       0x44 C:\PROGRA~2\VT3_8920\VT3\RESOUR~1\targets\CANVIEW4\lib\lld\libCANView4.a(usbh_conf.o)
                0x08033dac                HAL_HCD_MspDeInit
 .text.HAL_HCD_SOF_Callback
                0x08033df0       0x1c C:\PROGRA~2\VT3_8920\VT3\RESOUR~1\targets\CANVIEW4\lib\lld\libCANView4.a(usbh_conf.o)
                0x08033df0                HAL_HCD_SOF_Callback
 .text.HAL_HCD_Connect_Callback
                0x08033e0c       0x1c C:\PROGRA~2\VT3_8920\VT3\RESOUR~1\targets\CANVIEW4\lib\lld\libCANView4.a(usbh_conf.o)
                0x08033e0c                HAL_HCD_Connect_Callback
 .text.HAL_HCD_Disconnect_Callback
                0x08033e28       0x1c C:\PROGRA~2\VT3_8920\VT3\RESOUR~1\targets\CANVIEW4\lib\lld\libCANView4.a(usbh_conf.o)
                0x08033e28                HAL_HCD_Disconnect_Callback
 .text.HAL_HCD_HC_NotifyURBChange_Callback
                0x08033e44       0x24 C:\PROGRA~2\VT3_8920\VT3\RESOUR~1\targets\CANVIEW4\lib\lld\libCANView4.a(usbh_conf.o)
                0x08033e44                HAL_HCD_HC_NotifyURBChange_Callback
 .text.USBH_LL_Init
                0x08033e68       0x80 C:\PROGRA~2\VT3_8920\VT3\RESOUR~1\targets\CANVIEW4\lib\lld\libCANView4.a(usbh_conf.o)
                0x08033e68                USBH_LL_Init
 .text.USBH_LL_DeInit
                0x08033ee8       0x1e C:\PROGRA~2\VT3_8920\VT3\RESOUR~1\targets\CANVIEW4\lib\lld\libCANView4.a(usbh_conf.o)
                0x08033ee8                USBH_LL_DeInit
 .text.USBH_LL_Start
                0x08033f06       0x1e C:\PROGRA~2\VT3_8920\VT3\RESOUR~1\targets\CANVIEW4\lib\lld\libCANView4.a(usbh_conf.o)
                0x08033f06                USBH_LL_Start
 .text.USBH_LL_Stop
                0x08033f24       0x1e C:\PROGRA~2\VT3_8920\VT3\RESOUR~1\targets\CANVIEW4\lib\lld\libCANView4.a(usbh_conf.o)
                0x08033f24                USBH_LL_Stop
 .text.USBH_LL_GetSpeed
                0x08033f42       0x4a C:\PROGRA~2\VT3_8920\VT3\RESOUR~1\targets\CANVIEW4\lib\lld\libCANView4.a(usbh_conf.o)
                0x08033f42                USBH_LL_GetSpeed
 .text.USBH_LL_ResetPort
                0x08033f8c       0x1e C:\PROGRA~2\VT3_8920\VT3\RESOUR~1\targets\CANVIEW4\lib\lld\libCANView4.a(usbh_conf.o)
                0x08033f8c                USBH_LL_ResetPort
 .text.USBH_LL_GetLastXferSize
                0x08033faa       0x26 C:\PROGRA~2\VT3_8920\VT3\RESOUR~1\targets\CANVIEW4\lib\lld\libCANView4.a(usbh_conf.o)
                0x08033faa                USBH_LL_GetLastXferSize
 .text.USBH_LL_OpenPipe
                0x08033fd0       0x42 C:\PROGRA~2\VT3_8920\VT3\RESOUR~1\targets\CANVIEW4\lib\lld\libCANView4.a(usbh_conf.o)
                0x08033fd0                USBH_LL_OpenPipe
 .text.USBH_LL_ClosePipe
                0x08034012       0x26 C:\PROGRA~2\VT3_8920\VT3\RESOUR~1\targets\CANVIEW4\lib\lld\libCANView4.a(usbh_conf.o)
                0x08034012                USBH_LL_ClosePipe
 .text.USBH_LL_SubmitURB
                0x08034038       0x48 C:\PROGRA~2\VT3_8920\VT3\RESOUR~1\targets\CANVIEW4\lib\lld\libCANView4.a(usbh_conf.o)
                0x08034038                USBH_LL_SubmitURB
 .text.USBH_LL_GetURBState
                0x08034080       0x26 C:\PROGRA~2\VT3_8920\VT3\RESOUR~1\targets\CANVIEW4\lib\lld\libCANView4.a(usbh_conf.o)
                0x08034080                USBH_LL_GetURBState
 *fill*         0x080340a6        0x2 
 .text.USBH_LL_DriverVBUS
                0x080340a8       0x4c C:\PROGRA~2\VT3_8920\VT3\RESOUR~1\targets\CANVIEW4\lib\lld\libCANView4.a(usbh_conf.o)
                0x080340a8                USBH_LL_DriverVBUS
 .text.USBH_LL_SetToggle
                0x080340f4       0x66 C:\PROGRA~2\VT3_8920\VT3\RESOUR~1\targets\CANVIEW4\lib\lld\libCANView4.a(usbh_conf.o)
                0x080340f4                USBH_LL_SetToggle
 .text.USBH_LL_GetToggle
                0x0803415a       0x66 C:\PROGRA~2\VT3_8920\VT3\RESOUR~1\targets\CANVIEW4\lib\lld\libCANView4.a(usbh_conf.o)
                0x0803415a                USBH_LL_GetToggle
 .text.USBH_Delay
                0x080341c0       0x16 C:\PROGRA~2\VT3_8920\VT3\RESOUR~1\targets\CANVIEW4\lib\lld\libCANView4.a(usbh_conf.o)
                0x080341c0                USBH_Delay
 *fill*         0x080341d6        0x2 
 .text.SystemInit
                0x080341d8       0x70 C:\PROGRA~2\VT3_8920\VT3\RESOUR~1\targets\CANVIEW4\lib\lld\libCANView4.a(system_stm32f4xx.o)
                0x080341d8                SystemInit
 .text.SystemCoreClockUpdate
                0x08034248       0xf4 C:\PROGRA~2\VT3_8920\VT3\RESOUR~1\targets\CANVIEW4\lib\lld\libCANView4.a(system_stm32f4xx.o)
                0x08034248                SystemCoreClockUpdate
 .text.HAL_Init
                0x0803433c       0x44 C:\PROGRA~2\VT3_8920\VT3\RESOUR~1\targets\CANVIEW4\lib\lld\libCANView4.a(stm32f4xx_hal.o)
                0x0803433c                HAL_Init
 .text.HAL_DeInit
                0x08034380       0x58 C:\PROGRA~2\VT3_8920\VT3\RESOUR~1\targets\CANVIEW4\lib\lld\libCANView4.a(stm32f4xx_hal.o)
                0x08034380                HAL_DeInit
 .text.HAL_MspInit
                0x080343d8        0xe C:\PROGRA~2\VT3_8920\VT3\RESOUR~1\targets\CANVIEW4\lib\lld\libCANView4.a(stm32f4xx_hal.o)
 .text.HAL_MspDeInit
                0x080343e6        0xe C:\PROGRA~2\VT3_8920\VT3\RESOUR~1\targets\CANVIEW4\lib\lld\libCANView4.a(stm32f4xx_hal.o)
                0x080343e6                HAL_MspDeInit
 .text.HAL_InitTick
                0x080343f4       0x38 C:\PROGRA~2\VT3_8920\VT3\RESOUR~1\targets\CANVIEW4\lib\lld\libCANView4.a(stm32f4xx_hal.o)
                0x080343f4                HAL_InitTick
 .text.HAL_IncTick
                0x0803442c       0x1c C:\PROGRA~2\VT3_8920\VT3\RESOUR~1\targets\CANVIEW4\lib\lld\libCANView4.a(stm32f4xx_hal.o)
                0x0803442c                HAL_IncTick
 .text.HAL_GetTick
                0x08034448       0x18 C:\PROGRA~2\VT3_8920\VT3\RESOUR~1\targets\CANVIEW4\lib\lld\libCANView4.a(stm32f4xx_hal.o)
                0x08034448                HAL_GetTick
 .text.HAL_Delay
                0x08034460       0x2c C:\PROGRA~2\VT3_8920\VT3\RESOUR~1\targets\CANVIEW4\lib\lld\libCANView4.a(stm32f4xx_hal.o)
                0x08034460                HAL_Delay
 .text.HAL_SuspendTick
                0x0803448c       0x20 C:\PROGRA~2\VT3_8920\VT3\RESOUR~1\targets\CANVIEW4\lib\lld\libCANView4.a(stm32f4xx_hal.o)
                0x0803448c                HAL_SuspendTick
 .text.HAL_ResumeTick
                0x080344ac       0x20 C:\PROGRA~2\VT3_8920\VT3\RESOUR~1\targets\CANVIEW4\lib\lld\libCANView4.a(stm32f4xx_hal.o)
                0x080344ac                HAL_ResumeTick
 .text.HAL_GetHalVersion
                0x080344cc       0x14 C:\PROGRA~2\VT3_8920\VT3\RESOUR~1\targets\CANVIEW4\lib\lld\libCANView4.a(stm32f4xx_hal.o)
                0x080344cc                HAL_GetHalVersion
 .text.HAL_GetREVID
                0x080344e0       0x18 C:\PROGRA~2\VT3_8920\VT3\RESOUR~1\targets\CANVIEW4\lib\lld\libCANView4.a(stm32f4xx_hal.o)
                0x080344e0                HAL_GetREVID
 .text.HAL_GetDEVID
                0x080344f8       0x1c C:\PROGRA~2\VT3_8920\VT3\RESOUR~1\targets\CANVIEW4\lib\lld\libCANView4.a(stm32f4xx_hal.o)
                0x080344f8                HAL_GetDEVID
 .text.HAL_DBGMCU_EnableDBGSleepMode
                0x08034514       0x20 C:\PROGRA~2\VT3_8920\VT3\RESOUR~1\targets\CANVIEW4\lib\lld\libCANView4.a(stm32f4xx_hal.o)
                0x08034514                HAL_DBGMCU_EnableDBGSleepMode
 .text.HAL_DBGMCU_DisableDBGSleepMode
                0x08034534       0x20 C:\PROGRA~2\VT3_8920\VT3\RESOUR~1\targets\CANVIEW4\lib\lld\libCANView4.a(stm32f4xx_hal.o)
                0x08034534                HAL_DBGMCU_DisableDBGSleepMode
 .text.HAL_DBGMCU_EnableDBGStopMode
                0x08034554       0x20 C:\PROGRA~2\VT3_8920\VT3\RESOUR~1\targets\CANVIEW4\lib\lld\libCANView4.a(stm32f4xx_hal.o)
                0x08034554                HAL_DBGMCU_EnableDBGStopMode
 .text.HAL_DBGMCU_DisableDBGStopMode
                0x08034574       0x20 C:\PROGRA~2\VT3_8920\VT3\RESOUR~1\targets\CANVIEW4\lib\lld\libCANView4.a(stm32f4xx_hal.o)
                0x08034574                HAL_DBGMCU_DisableDBGStopMode
 .text.HAL_DBGMCU_EnableDBGStandbyMode
                0x08034594       0x20 C:\PROGRA~2\VT3_8920\VT3\RESOUR~1\targets\CANVIEW4\lib\lld\libCANView4.a(stm32f4xx_hal.o)
                0x08034594                HAL_DBGMCU_EnableDBGStandbyMode
 .text.HAL_DBGMCU_DisableDBGStandbyMode
                0x080345b4       0x20 C:\PROGRA~2\VT3_8920\VT3\RESOUR~1\targets\CANVIEW4\lib\lld\libCANView4.a(stm32f4xx_hal.o)
                0x080345b4                HAL_DBGMCU_DisableDBGStandbyMode
 .text.HAL_EnableCompensationCell
                0x080345d4       0x38 C:\PROGRA~2\VT3_8920\VT3\RESOUR~1\targets\CANVIEW4\lib\lld\libCANView4.a(stm32f4xx_hal.o)
                0x080345d4                HAL_EnableCompensationCell
 .text.HAL_DisableCompensationCell
                0x0803460c       0x38 C:\PROGRA~2\VT3_8920\VT3\RESOUR~1\targets\CANVIEW4\lib\lld\libCANView4.a(stm32f4xx_hal.o)
                0x0803460c                HAL_DisableCompensationCell
 .text.HAL_EnableMemorySwappingBank
                0x08034644       0x36 C:\PROGRA~2\VT3_8920\VT3\RESOUR~1\targets\CANVIEW4\lib\lld\libCANView4.a(stm32f4xx_hal.o)
                0x08034644                HAL_EnableMemorySwappingBank
 .text.HAL_DisableMemorySwappingBank
                0x0803467a       0x36 C:\PROGRA~2\VT3_8920\VT3\RESOUR~1\targets\CANVIEW4\lib\lld\libCANView4.a(stm32f4xx_hal.o)
                0x0803467a                HAL_DisableMemorySwappingBank
 .text.NVIC_SetPriorityGrouping
                0x080346b0       0x48 C:\PROGRA~2\VT3_8920\VT3\RESOUR~1\targets\CANVIEW4\lib\lld\libCANView4.a(stm32f4xx_hal_cortex.o)
 .text.NVIC_GetPriorityGrouping
                0x080346f8       0x1c C:\PROGRA~2\VT3_8920\VT3\RESOUR~1\targets\CANVIEW4\lib\lld\libCANView4.a(stm32f4xx_hal_cortex.o)
 .text.NVIC_EnableIRQ
                0x08034714       0x34 C:\PROGRA~2\VT3_8920\VT3\RESOUR~1\targets\CANVIEW4\lib\lld\libCANView4.a(stm32f4xx_hal_cortex.o)
 .text.NVIC_DisableIRQ
                0x08034748       0x34 C:\PROGRA~2\VT3_8920\VT3\RESOUR~1\targets\CANVIEW4\lib\lld\libCANView4.a(stm32f4xx_hal_cortex.o)
 .text.NVIC_GetPendingIRQ
                0x0803477c       0x38 C:\PROGRA~2\VT3_8920\VT3\RESOUR~1\targets\CANVIEW4\lib\lld\libCANView4.a(stm32f4xx_hal_cortex.o)
 .text.NVIC_SetPendingIRQ
                0x080347b4       0x34 C:\PROGRA~2\VT3_8920\VT3\RESOUR~1\targets\CANVIEW4\lib\lld\libCANView4.a(stm32f4xx_hal_cortex.o)
 .text.NVIC_ClearPendingIRQ
                0x080347e8       0x34 C:\PROGRA~2\VT3_8920\VT3\RESOUR~1\targets\CANVIEW4\lib\lld\libCANView4.a(stm32f4xx_hal_cortex.o)
 .text.NVIC_GetActive
                0x0803481c       0x38 C:\PROGRA~2\VT3_8920\VT3\RESOUR~1\targets\CANVIEW4\lib\lld\libCANView4.a(stm32f4xx_hal_cortex.o)
 .text.NVIC_SetPriority
                0x08034854       0x54 C:\PROGRA~2\VT3_8920\VT3\RESOUR~1\targets\CANVIEW4\lib\lld\libCANView4.a(stm32f4xx_hal_cortex.o)
 .text.NVIC_GetPriority
                0x080348a8       0x50 C:\PROGRA~2\VT3_8920\VT3\RESOUR~1\targets\CANVIEW4\lib\lld\libCANView4.a(stm32f4xx_hal_cortex.o)
 .text.NVIC_EncodePriority
                0x080348f8       0x66 C:\PROGRA~2\VT3_8920\VT3\RESOUR~1\targets\CANVIEW4\lib\lld\libCANView4.a(stm32f4xx_hal_cortex.o)
 .text.NVIC_DecodePriority
                0x0803495e       0x6e C:\PROGRA~2\VT3_8920\VT3\RESOUR~1\targets\CANVIEW4\lib\lld\libCANView4.a(stm32f4xx_hal_cortex.o)
 .text.NVIC_SystemReset
                0x080349cc       0x28 C:\PROGRA~2\VT3_8920\VT3\RESOUR~1\targets\CANVIEW4\lib\lld\libCANView4.a(stm32f4xx_hal_cortex.o)
 .text.SysTick_Config
                0x080349f4       0x44 C:\PROGRA~2\VT3_8920\VT3\RESOUR~1\targets\CANVIEW4\lib\lld\libCANView4.a(stm32f4xx_hal_cortex.o)
 .text.HAL_NVIC_SetPriorityGrouping
                0x08034a38       0x16 C:\PROGRA~2\VT3_8920\VT3\RESOUR~1\targets\CANVIEW4\lib\lld\libCANView4.a(stm32f4xx_hal_cortex.o)
                0x08034a38                HAL_NVIC_SetPriorityGrouping
 .text.HAL_NVIC_SetPriority
                0x08034a4e       0x38 C:\PROGRA~2\VT3_8920\VT3\RESOUR~1\targets\CANVIEW4\lib\lld\libCANView4.a(stm32f4xx_hal_cortex.o)
                0x08034a4e                HAL_NVIC_SetPriority
 .text.HAL_NVIC_EnableIRQ
                0x08034a86       0x1c C:\PROGRA~2\VT3_8920\VT3\RESOUR~1\targets\CANVIEW4\lib\lld\libCANView4.a(stm32f4xx_hal_cortex.o)
                0x08034a86                HAL_NVIC_EnableIRQ
 .text.HAL_NVIC_DisableIRQ
                0x08034aa2       0x1c C:\PROGRA~2\VT3_8920\VT3\RESOUR~1\targets\CANVIEW4\lib\lld\libCANView4.a(stm32f4xx_hal_cortex.o)
                0x08034aa2                HAL_NVIC_DisableIRQ
 .text.HAL_NVIC_SystemReset
                0x08034abe        0xc C:\PROGRA~2\VT3_8920\VT3\RESOUR~1\targets\CANVIEW4\lib\lld\libCANView4.a(stm32f4xx_hal_cortex.o)
                0x08034abe                HAL_NVIC_SystemReset
 .text.HAL_SYSTICK_Config
                0x08034aca       0x18 C:\PROGRA~2\VT3_8920\VT3\RESOUR~1\targets\CANVIEW4\lib\lld\libCANView4.a(stm32f4xx_hal_cortex.o)
                0x08034aca                HAL_SYSTICK_Config
 *fill*         0x08034ae2        0x2 
 .text.HAL_MPU_ConfigRegion
                0x08034ae4       0x88 C:\PROGRA~2\VT3_8920\VT3\RESOUR~1\targets\CANVIEW4\lib\lld\libCANView4.a(stm32f4xx_hal_cortex.o)
                0x08034ae4                HAL_MPU_ConfigRegion
 .text.HAL_NVIC_GetPriorityGrouping
                0x08034b6c        0xe C:\PROGRA~2\VT3_8920\VT3\RESOUR~1\targets\CANVIEW4\lib\lld\libCANView4.a(stm32f4xx_hal_cortex.o)
                0x08034b6c                HAL_NVIC_GetPriorityGrouping
 .text.HAL_NVIC_GetPriority
                0x08034b7a       0x2c C:\PROGRA~2\VT3_8920\VT3\RESOUR~1\targets\CANVIEW4\lib\lld\libCANView4.a(stm32f4xx_hal_cortex.o)
                0x08034b7a                HAL_NVIC_GetPriority
 .text.HAL_NVIC_SetPendingIRQ
                0x08034ba6       0x1c C:\PROGRA~2\VT3_8920\VT3\RESOUR~1\targets\CANVIEW4\lib\lld\libCANView4.a(stm32f4xx_hal_cortex.o)
                0x08034ba6                HAL_NVIC_SetPendingIRQ
 .text.HAL_NVIC_GetPendingIRQ
                0x08034bc2       0x1e C:\PROGRA~2\VT3_8920\VT3\RESOUR~1\targets\CANVIEW4\lib\lld\libCANView4.a(stm32f4xx_hal_cortex.o)
                0x08034bc2                HAL_NVIC_GetPendingIRQ
 .text.HAL_NVIC_ClearPendingIRQ
                0x08034be0       0x1c C:\PROGRA~2\VT3_8920\VT3\RESOUR~1\targets\CANVIEW4\lib\lld\libCANView4.a(stm32f4xx_hal_cortex.o)
                0x08034be0                HAL_NVIC_ClearPendingIRQ
 .text.HAL_NVIC_GetActive
                0x08034bfc       0x1e C:\PROGRA~2\VT3_8920\VT3\RESOUR~1\targets\CANVIEW4\lib\lld\libCANView4.a(stm32f4xx_hal_cortex.o)
                0x08034bfc                HAL_NVIC_GetActive
 *fill*         0x08034c1a        0x2 
 .text.HAL_SYSTICK_CLKSourceConfig
                0x08034c1c       0x38 C:\PROGRA~2\VT3_8920\VT3\RESOUR~1\targets\CANVIEW4\lib\lld\libCANView4.a(stm32f4xx_hal_cortex.o)
                0x08034c1c                HAL_SYSTICK_CLKSourceConfig
 .text.HAL_SYSTICK_IRQHandler
                0x08034c54        0xc C:\PROGRA~2\VT3_8920\VT3\RESOUR~1\targets\CANVIEW4\lib\lld\libCANView4.a(stm32f4xx_hal_cortex.o)
                0x08034c54                HAL_SYSTICK_IRQHandler
 .text.HAL_SYSTICK_Callback
                0x08034c60        0xe C:\PROGRA~2\VT3_8920\VT3\RESOUR~1\targets\CANVIEW4\lib\lld\libCANView4.a(stm32f4xx_hal_cortex.o)
                0x08034c60                HAL_SYSTICK_Callback
 *fill*         0x08034c6e        0x2 
 .text.HAL_DCMI_Init
                0x08034c70      0x124 C:\PROGRA~2\VT3_8920\VT3\RESOUR~1\targets\CANVIEW4\lib\lld\libCANView4.a(stm32f4xx_hal_dcmi.o)
                0x08034c70                HAL_DCMI_Init
 .text.HAL_DCMI_DeInit
                0x08034d94       0x2e C:\PROGRA~2\VT3_8920\VT3\RESOUR~1\targets\CANVIEW4\lib\lld\libCANView4.a(stm32f4xx_hal_dcmi.o)
                0x08034d94                HAL_DCMI_DeInit
 *fill*         0x08034dc2        0x2 
 .text.HAL_DCMI_Start_DMA
                0x08034dc4      0x114 C:\PROGRA~2\VT3_8920\VT3\RESOUR~1\targets\CANVIEW4\lib\lld\libCANView4.a(stm32f4xx_hal_dcmi.o)
                0x08034dc4                HAL_DCMI_Start_DMA
 .text.HAL_DCMI_Stop
                0x08034ed8       0xa8 C:\PROGRA~2\VT3_8920\VT3\RESOUR~1\targets\CANVIEW4\lib\lld\libCANView4.a(stm32f4xx_hal_dcmi.o)
                0x08034ed8                HAL_DCMI_Stop
 .text.HAL_DCMI_IRQHandler
                0x08034f80      0x186 C:\PROGRA~2\VT3_8920\VT3\RESOUR~1\targets\CANVIEW4\lib\lld\libCANView4.a(stm32f4xx_hal_dcmi.o)
                0x08034f80                HAL_DCMI_IRQHandler
 .text.HAL_DCMI_ErrorCallback
                0x08035106       0x14 C:\PROGRA~2\VT3_8920\VT3\RESOUR~1\targets\CANVIEW4\lib\lld\libCANView4.a(stm32f4xx_hal_dcmi.o)
                0x08035106                HAL_DCMI_ErrorCallback
 .text.HAL_DCMI_LineEventCallback
                0x0803511a       0x14 C:\PROGRA~2\VT3_8920\VT3\RESOUR~1\targets\CANVIEW4\lib\lld\libCANView4.a(stm32f4xx_hal_dcmi.o)
 .text.HAL_DCMI_VsyncEventCallback
                0x0803512e       0x14 C:\PROGRA~2\VT3_8920\VT3\RESOUR~1\targets\CANVIEW4\lib\lld\libCANView4.a(stm32f4xx_hal_dcmi.o)
 .text.HAL_DCMI_FrameEventCallback
                0x08035142       0x14 C:\PROGRA~2\VT3_8920\VT3\RESOUR~1\targets\CANVIEW4\lib\lld\libCANView4.a(stm32f4xx_hal_dcmi.o)
 *fill*         0x08035156        0x2 
 .text.HAL_DCMI_ConfigCROP
                0x08035158       0x68 C:\PROGRA~2\VT3_8920\VT3\RESOUR~1\targets\CANVIEW4\lib\lld\libCANView4.a(stm32f4xx_hal_dcmi.o)
                0x08035158                HAL_DCMI_ConfigCROP
 .text.HAL_DCMI_DisableCROP
                0x080351c0       0x54 C:\PROGRA~2\VT3_8920\VT3\RESOUR~1\targets\CANVIEW4\lib\lld\libCANView4.a(stm32f4xx_hal_dcmi.o)
                0x080351c0                HAL_DCMI_DisableCROP
 .text.HAL_DCMI_EnableCROP
                0x08035214       0x54 C:\PROGRA~2\VT3_8920\VT3\RESOUR~1\targets\CANVIEW4\lib\lld\libCANView4.a(stm32f4xx_hal_dcmi.o)
                0x08035214                HAL_DCMI_EnableCROP
 .text.HAL_DCMI_GetState
                0x08035268       0x1c C:\PROGRA~2\VT3_8920\VT3\RESOUR~1\targets\CANVIEW4\lib\lld\libCANView4.a(stm32f4xx_hal_dcmi.o)
                0x08035268                HAL_DCMI_GetState
 .text.HAL_DCMI_GetError
                0x08035284       0x18 C:\PROGRA~2\VT3_8920\VT3\RESOUR~1\targets\CANVIEW4\lib\lld\libCANView4.a(stm32f4xx_hal_dcmi.o)
                0x08035284                HAL_DCMI_GetError
 .text.DCMI_DMAConvCplt
                0x0803529c      0x11c C:\PROGRA~2\VT3_8920\VT3\RESOUR~1\targets\CANVIEW4\lib\lld\libCANView4.a(stm32f4xx_hal_dcmi.o)
 .text.DCMI_DMAError
                0x080353b8       0x24 C:\PROGRA~2\VT3_8920\VT3\RESOUR~1\targets\CANVIEW4\lib\lld\libCANView4.a(stm32f4xx_hal_dcmi.o)
 .text.HAL_DMA_Init
                0x080353dc       0xd8 C:\PROGRA~2\VT3_8920\VT3\RESOUR~1\targets\CANVIEW4\lib\lld\libCANView4.a(stm32f4xx_hal_dma.o)
                0x080353dc                HAL_DMA_Init
 .text.HAL_DMA_DeInit
                0x080354b4       0x9c C:\PROGRA~2\VT3_8920\VT3\RESOUR~1\targets\CANVIEW4\lib\lld\libCANView4.a(stm32f4xx_hal_dma.o)
                0x080354b4                HAL_DMA_DeInit
 .text.HAL_DMA_Start
                0x08035550       0x62 C:\PROGRA~2\VT3_8920\VT3\RESOUR~1\targets\CANVIEW4\lib\lld\libCANView4.a(stm32f4xx_hal_dma.o)
                0x08035550                HAL_DMA_Start
 .text.HAL_DMA_Start_IT
                0x080355b2       0x82 C:\PROGRA~2\VT3_8920\VT3\RESOUR~1\targets\CANVIEW4\lib\lld\libCANView4.a(stm32f4xx_hal_dma.o)
                0x080355b2                HAL_DMA_Start_IT
 .text.HAL_DMA_Abort
                0x08035634       0x7c C:\PROGRA~2\VT3_8920\VT3\RESOUR~1\targets\CANVIEW4\lib\lld\libCANView4.a(stm32f4xx_hal_dma.o)
                0x08035634                HAL_DMA_Abort
 .text.HAL_DMA_PollForTransfer
                0x080356b0      0x208 C:\PROGRA~2\VT3_8920\VT3\RESOUR~1\targets\CANVIEW4\lib\lld\libCANView4.a(stm32f4xx_hal_dma.o)
                0x080356b0                HAL_DMA_PollForTransfer
 .text.HAL_DMA_IRQHandler
                0x080358b8      0x2d8 C:\PROGRA~2\VT3_8920\VT3\RESOUR~1\targets\CANVIEW4\lib\lld\libCANView4.a(stm32f4xx_hal_dma.o)
                0x080358b8                HAL_DMA_IRQHandler
 .text.HAL_DMA_GetState
                0x08035b90       0x1c C:\PROGRA~2\VT3_8920\VT3\RESOUR~1\targets\CANVIEW4\lib\lld\libCANView4.a(stm32f4xx_hal_dma.o)
                0x08035b90                HAL_DMA_GetState
 .text.HAL_DMA_GetError
                0x08035bac       0x18 C:\PROGRA~2\VT3_8920\VT3\RESOUR~1\targets\CANVIEW4\lib\lld\libCANView4.a(stm32f4xx_hal_dma.o)
                0x08035bac                HAL_DMA_GetError
 .text.DMA_SetConfig
                0x08035bc4       0x5c C:\PROGRA~2\VT3_8920\VT3\RESOUR~1\targets\CANVIEW4\lib\lld\libCANView4.a(stm32f4xx_hal_dma.o)
 .text.DMA_CalcBaseAndBitshift
                0x08035c20       0x6c C:\PROGRA~2\VT3_8920\VT3\RESOUR~1\targets\CANVIEW4\lib\lld\libCANView4.a(stm32f4xx_hal_dma.o)
 .text.HAL_DMAEx_MultiBufferStart
                0x08035c8c       0xa0 C:\PROGRA~2\VT3_8920\VT3\RESOUR~1\targets\CANVIEW4\lib\lld\libCANView4.a(stm32f4xx_hal_dma_ex.o)
                0x08035c8c                HAL_DMAEx_MultiBufferStart
 .text.HAL_DMAEx_MultiBufferStart_IT
                0x08035d2c       0xf0 C:\PROGRA~2\VT3_8920\VT3\RESOUR~1\targets\CANVIEW4\lib\lld\libCANView4.a(stm32f4xx_hal_dma_ex.o)
                0x08035d2c                HAL_DMAEx_MultiBufferStart_IT
 .text.HAL_DMAEx_ChangeMemory
                0x08035e1c       0x34 C:\PROGRA~2\VT3_8920\VT3\RESOUR~1\targets\CANVIEW4\lib\lld\libCANView4.a(stm32f4xx_hal_dma_ex.o)
                0x08035e1c                HAL_DMAEx_ChangeMemory
 .text.DMA_MultiBufferSetConfig
                0x08035e50       0x4c C:\PROGRA~2\VT3_8920\VT3\RESOUR~1\targets\CANVIEW4\lib\lld\libCANView4.a(stm32f4xx_hal_dma_ex.o)
 .text.HAL_GPIO_Init
                0x08035e9c      0x350 C:\PROGRA~2\VT3_8920\VT3\RESOUR~1\targets\CANVIEW4\lib\lld\libCANView4.a(stm32f4xx_hal_gpio.o)
                0x08035e9c                HAL_GPIO_Init
 .text.HAL_GPIO_DeInit
                0x080361ec      0x214 C:\PROGRA~2\VT3_8920\VT3\RESOUR~1\targets\CANVIEW4\lib\lld\libCANView4.a(stm32f4xx_hal_gpio.o)
                0x080361ec                HAL_GPIO_DeInit
 .text.HAL_GPIO_ReadPin
                0x08036400       0x30 C:\PROGRA~2\VT3_8920\VT3\RESOUR~1\targets\CANVIEW4\lib\lld\libCANView4.a(stm32f4xx_hal_gpio.o)
                0x08036400                HAL_GPIO_ReadPin
 .text.HAL_GPIO_WritePin
                0x08036430       0x32 C:\PROGRA~2\VT3_8920\VT3\RESOUR~1\targets\CANVIEW4\lib\lld\libCANView4.a(stm32f4xx_hal_gpio.o)
                0x08036430                HAL_GPIO_WritePin
 .text.HAL_GPIO_TogglePin
                0x08036462       0x24 C:\PROGRA~2\VT3_8920\VT3\RESOUR~1\targets\CANVIEW4\lib\lld\libCANView4.a(stm32f4xx_hal_gpio.o)
                0x08036462                HAL_GPIO_TogglePin
 .text.HAL_GPIO_LockPin
                0x08036486       0x50 C:\PROGRA~2\VT3_8920\VT3\RESOUR~1\targets\CANVIEW4\lib\lld\libCANView4.a(stm32f4xx_hal_gpio.o)
                0x08036486                HAL_GPIO_LockPin
 *fill*         0x080364d6        0x2 
 .text.HAL_GPIO_EXTI_IRQHandler
                0x080364d8       0x30 C:\PROGRA~2\VT3_8920\VT3\RESOUR~1\targets\CANVIEW4\lib\lld\libCANView4.a(stm32f4xx_hal_gpio.o)
                0x080364d8                HAL_GPIO_EXTI_IRQHandler
 .text.HAL_GPIO_EXTI_Callback
                0x08036508       0x16 C:\PROGRA~2\VT3_8920\VT3\RESOUR~1\targets\CANVIEW4\lib\lld\libCANView4.a(stm32f4xx_hal_gpio.o)
 .text.HAL_HCD_Init
                0x0803651e       0x98 C:\PROGRA~2\VT3_8920\VT3\RESOUR~1\targets\CANVIEW4\lib\lld\libCANView4.a(stm32f4xx_hal_hcd.o)
                0x0803651e                HAL_HCD_Init
 .text.HAL_HCD_HC_Init
                0x080365b6      0x10e C:\PROGRA~2\VT3_8920\VT3\RESOUR~1\targets\CANVIEW4\lib\lld\libCANView4.a(stm32f4xx_hal_hcd.o)
                0x080365b6                HAL_HCD_HC_Init
 .text.HAL_HCD_HC_Halt
                0x080366c4       0x46 C:\PROGRA~2\VT3_8920\VT3\RESOUR~1\targets\CANVIEW4\lib\lld\libCANView4.a(stm32f4xx_hal_hcd.o)
                0x080366c4                HAL_HCD_HC_Halt
 .text.HAL_HCD_DeInit
                0x0803670a       0x3c C:\PROGRA~2\VT3_8920\VT3\RESOUR~1\targets\CANVIEW4\lib\lld\libCANView4.a(stm32f4xx_hal_hcd.o)
                0x0803670a                HAL_HCD_DeInit
 .text.HAL_HCD_MspInit
                0x08036746       0x14 C:\PROGRA~2\VT3_8920\VT3\RESOUR~1\targets\CANVIEW4\lib\lld\libCANView4.a(stm32f4xx_hal_hcd.o)
 .text.HAL_HCD_MspDeInit
                0x0803675a       0x14 C:\PROGRA~2\VT3_8920\VT3\RESOUR~1\targets\CANVIEW4\lib\lld\libCANView4.a(stm32f4xx_hal_hcd.o)
 *fill*         0x0803676e        0x2 
 .text.HAL_HCD_HC_SubmitRequest
                0x08036770      0x324 C:\PROGRA~2\VT3_8920\VT3\RESOUR~1\targets\CANVIEW4\lib\lld\libCANView4.a(stm32f4xx_hal_hcd.o)
                0x08036770                HAL_HCD_HC_SubmitRequest
 .text.HAL_HCD_IRQHandler
                0x08036a94      0x202 C:\PROGRA~2\VT3_8920\VT3\RESOUR~1\targets\CANVIEW4\lib\lld\libCANView4.a(stm32f4xx_hal_hcd.o)
                0x08036a94                HAL_HCD_IRQHandler
 .text.HAL_HCD_SOF_Callback
                0x08036c96       0x14 C:\PROGRA~2\VT3_8920\VT3\RESOUR~1\targets\CANVIEW4\lib\lld\libCANView4.a(stm32f4xx_hal_hcd.o)
 .text.HAL_HCD_Connect_Callback
                0x08036caa       0x14 C:\PROGRA~2\VT3_8920\VT3\RESOUR~1\targets\CANVIEW4\lib\lld\libCANView4.a(stm32f4xx_hal_hcd.o)
 .text.HAL_HCD_Disconnect_Callback
                0x08036cbe       0x14 C:\PROGRA~2\VT3_8920\VT3\RESOUR~1\targets\CANVIEW4\lib\lld\libCANView4.a(stm32f4xx_hal_hcd.o)
 .text.HAL_HCD_HC_NotifyURBChange_Callback
                0x08036cd2       0x1c C:\PROGRA~2\VT3_8920\VT3\RESOUR~1\targets\CANVIEW4\lib\lld\libCANView4.a(stm32f4xx_hal_hcd.o)
 .text.HAL_HCD_Start
                0x08036cee       0x46 C:\PROGRA~2\VT3_8920\VT3\RESOUR~1\targets\CANVIEW4\lib\lld\libCANView4.a(stm32f4xx_hal_hcd.o)
                0x08036cee                HAL_HCD_Start
 .text.HAL_HCD_Stop
                0x08036d34       0x3a C:\PROGRA~2\VT3_8920\VT3\RESOUR~1\targets\CANVIEW4\lib\lld\libCANView4.a(stm32f4xx_hal_hcd.o)
                0x08036d34                HAL_HCD_Stop
 .text.HAL_HCD_ResetPort
                0x08036d6e       0x1c C:\PROGRA~2\VT3_8920\VT3\RESOUR~1\targets\CANVIEW4\lib\lld\libCANView4.a(stm32f4xx_hal_hcd.o)
                0x08036d6e                HAL_HCD_ResetPort
 .text.HAL_HCD_GetState
                0x08036d8a       0x1c C:\PROGRA~2\VT3_8920\VT3\RESOUR~1\targets\CANVIEW4\lib\lld\libCANView4.a(stm32f4xx_hal_hcd.o)
                0x08036d8a                HAL_HCD_GetState
 .text.HAL_HCD_HC_GetURBState
                0x08036da6       0x2a C:\PROGRA~2\VT3_8920\VT3\RESOUR~1\targets\CANVIEW4\lib\lld\libCANView4.a(stm32f4xx_hal_hcd.o)
                0x08036da6                HAL_HCD_HC_GetURBState
 .text.HAL_HCD_HC_GetXferCount
                0x08036dd0       0x2a C:\PROGRA~2\VT3_8920\VT3\RESOUR~1\targets\CANVIEW4\lib\lld\libCANView4.a(stm32f4xx_hal_hcd.o)
                0x08036dd0                HAL_HCD_HC_GetXferCount
 .text.HAL_HCD_HC_GetState
                0x08036dfa       0x2a C:\PROGRA~2\VT3_8920\VT3\RESOUR~1\targets\CANVIEW4\lib\lld\libCANView4.a(stm32f4xx_hal_hcd.o)
                0x08036dfa                HAL_HCD_HC_GetState
 .text.HAL_HCD_GetCurrentFrame
                0x08036e24       0x1c C:\PROGRA~2\VT3_8920\VT3\RESOUR~1\targets\CANVIEW4\lib\lld\libCANView4.a(stm32f4xx_hal_hcd.o)
                0x08036e24                HAL_HCD_GetCurrentFrame
 .text.HAL_HCD_GetCurrentSpeed
                0x08036e40       0x1c C:\PROGRA~2\VT3_8920\VT3\RESOUR~1\targets\CANVIEW4\lib\lld\libCANView4.a(stm32f4xx_hal_hcd.o)
                0x08036e40                HAL_HCD_GetCurrentSpeed
 .text.HCD_HC_IN_IRQHandler
                0x08036e5c      0x670 C:\PROGRA~2\VT3_8920\VT3\RESOUR~1\targets\CANVIEW4\lib\lld\libCANView4.a(stm32f4xx_hal_hcd.o)
 .text.HCD_HC_OUT_IRQHandler
                0x080374cc      0x664 C:\PROGRA~2\VT3_8920\VT3\RESOUR~1\targets\CANVIEW4\lib\lld\libCANView4.a(stm32f4xx_hal_hcd.o)
 .text.HCD_RXQLVL_IRQHandler
                0x08037b30      0x164 C:\PROGRA~2\VT3_8920\VT3\RESOUR~1\targets\CANVIEW4\lib\lld\libCANView4.a(stm32f4xx_hal_hcd.o)
 .text.HCD_Port_IRQHandler
                0x08037c94      0x128 C:\PROGRA~2\VT3_8920\VT3\RESOUR~1\targets\CANVIEW4\lib\lld\libCANView4.a(stm32f4xx_hal_hcd.o)
 .text.HAL_RCC_DeInit
                0x08037dbc        0xe C:\PROGRA~2\VT3_8920\VT3\RESOUR~1\targets\CANVIEW4\lib\lld\libCANView4.a(stm32f4xx_hal_rcc.o)
 *fill*         0x08037dca        0x2 
 .text.HAL_RCC_OscConfig
                0x08037dcc      0x490 C:\PROGRA~2\VT3_8920\VT3\RESOUR~1\targets\CANVIEW4\lib\lld\libCANView4.a(stm32f4xx_hal_rcc.o)
                0x08037dcc                HAL_RCC_OscConfig
 .text.HAL_RCC_ClockConfig
                0x0803825c      0x314 C:\PROGRA~2\VT3_8920\VT3\RESOUR~1\targets\CANVIEW4\lib\lld\libCANView4.a(stm32f4xx_hal_rcc.o)
                0x0803825c                HAL_RCC_ClockConfig
 .text.HAL_RCC_MCOConfig
                0x08038570       0xc8 C:\PROGRA~2\VT3_8920\VT3\RESOUR~1\targets\CANVIEW4\lib\lld\libCANView4.a(stm32f4xx_hal_rcc.o)
                0x08038570                HAL_RCC_MCOConfig
 .text.HAL_RCC_EnableCSS
                0x08038638       0x18 C:\PROGRA~2\VT3_8920\VT3\RESOUR~1\targets\CANVIEW4\lib\lld\libCANView4.a(stm32f4xx_hal_rcc.o)
                0x08038638                HAL_RCC_EnableCSS
 .text.HAL_RCC_DisableCSS
                0x08038650       0x18 C:\PROGRA~2\VT3_8920\VT3\RESOUR~1\targets\CANVIEW4\lib\lld\libCANView4.a(stm32f4xx_hal_rcc.o)
                0x08038650                HAL_RCC_DisableCSS
 .text.HAL_RCC_GetSysClockFreq
                0x08038668       0xfc C:\PROGRA~2\VT3_8920\VT3\RESOUR~1\targets\CANVIEW4\lib\lld\libCANView4.a(stm32f4xx_hal_rcc.o)
                0x08038668                HAL_RCC_GetSysClockFreq
 .text.HAL_RCC_GetHCLKFreq
                0x08038764       0x50 C:\PROGRA~2\VT3_8920\VT3\RESOUR~1\targets\CANVIEW4\lib\lld\libCANView4.a(stm32f4xx_hal_rcc.o)
                0x08038764                HAL_RCC_GetHCLKFreq
 .text.HAL_RCC_GetPCLK1Freq
                0x080387b4       0x44 C:\PROGRA~2\VT3_8920\VT3\RESOUR~1\targets\CANVIEW4\lib\lld\libCANView4.a(stm32f4xx_hal_rcc.o)
                0x080387b4                HAL_RCC_GetPCLK1Freq
 .text.HAL_RCC_GetPCLK2Freq
                0x080387f8       0x44 C:\PROGRA~2\VT3_8920\VT3\RESOUR~1\targets\CANVIEW4\lib\lld\libCANView4.a(stm32f4xx_hal_rcc.o)
                0x080387f8                HAL_RCC_GetPCLK2Freq
 .text.HAL_RCC_GetOscConfig
                0x0803883c      0x178 C:\PROGRA~2\VT3_8920\VT3\RESOUR~1\targets\CANVIEW4\lib\lld\libCANView4.a(stm32f4xx_hal_rcc.o)
                0x0803883c                HAL_RCC_GetOscConfig
 .text.HAL_RCC_GetClockConfig
                0x080389b4       0x64 C:\PROGRA~2\VT3_8920\VT3\RESOUR~1\targets\CANVIEW4\lib\lld\libCANView4.a(stm32f4xx_hal_rcc.o)
                0x080389b4                HAL_RCC_GetClockConfig
 .text.HAL_RCC_NMI_IRQHandler
                0x08038a18       0x28 C:\PROGRA~2\VT3_8920\VT3\RESOUR~1\targets\CANVIEW4\lib\lld\libCANView4.a(stm32f4xx_hal_rcc.o)
                0x08038a18                HAL_RCC_NMI_IRQHandler
 .text.HAL_RCC_CSSCallback
                0x08038a40        0xe C:\PROGRA~2\VT3_8920\VT3\RESOUR~1\targets\CANVIEW4\lib\lld\libCANView4.a(stm32f4xx_hal_rcc.o)
                0x08038a40                HAL_RCC_CSSCallback
 .text.HAL_TIM_Base_Init
                0x08038a4e       0x56 C:\PROGRA~2\VT3_8920\VT3\RESOUR~1\targets\CANVIEW4\lib\lld\libCANView4.a(stm32f4xx_hal_tim.o)
                0x08038a4e                HAL_TIM_Base_Init
 .text.HAL_TIM_Base_DeInit
                0x08038aa4       0x60 C:\PROGRA~2\VT3_8920\VT3\RESOUR~1\targets\CANVIEW4\lib\lld\libCANView4.a(stm32f4xx_hal_tim.o)
                0x08038aa4                HAL_TIM_Base_DeInit
 .text.HAL_TIM_Base_MspDeInit
                0x08038b04       0x14 C:\PROGRA~2\VT3_8920\VT3\RESOUR~1\targets\CANVIEW4\lib\lld\libCANView4.a(stm32f4xx_hal_tim.o)
                0x08038b04                HAL_TIM_Base_MspDeInit
 .text.HAL_TIM_Base_Start
                0x08038b18       0x36 C:\PROGRA~2\VT3_8920\VT3\RESOUR~1\targets\CANVIEW4\lib\lld\libCANView4.a(stm32f4xx_hal_tim.o)
                0x08038b18                HAL_TIM_Base_Start
 .text.HAL_TIM_Base_Stop
                0x08038b4e       0x56 C:\PROGRA~2\VT3_8920\VT3\RESOUR~1\targets\CANVIEW4\lib\lld\libCANView4.a(stm32f4xx_hal_tim.o)
                0x08038b4e                HAL_TIM_Base_Stop
 .text.HAL_TIM_Base_Start_IT
                0x08038ba4       0x36 C:\PROGRA~2\VT3_8920\VT3\RESOUR~1\targets\CANVIEW4\lib\lld\libCANView4.a(stm32f4xx_hal_tim.o)
                0x08038ba4                HAL_TIM_Base_Start_IT
 .text.HAL_TIM_Base_Stop_IT
                0x08038bda       0x56 C:\PROGRA~2\VT3_8920\VT3\RESOUR~1\targets\CANVIEW4\lib\lld\libCANView4.a(stm32f4xx_hal_tim.o)
                0x08038bda                HAL_TIM_Base_Stop_IT
 .text.HAL_TIM_Base_Start_DMA
                0x08038c30       0x98 C:\PROGRA~2\VT3_8920\VT3\RESOUR~1\targets\CANVIEW4\lib\lld\libCANView4.a(stm32f4xx_hal_tim.o)
                0x08038c30                HAL_TIM_Base_Start_DMA
 .text.HAL_TIM_Base_Stop_DMA
                0x08038cc8       0x5e C:\PROGRA~2\VT3_8920\VT3\RESOUR~1\targets\CANVIEW4\lib\lld\libCANView4.a(stm32f4xx_hal_tim.o)
                0x08038cc8                HAL_TIM_Base_Stop_DMA
 .text.HAL_TIM_OC_Init
                0x08038d26       0x56 C:\PROGRA~2\VT3_8920\VT3\RESOUR~1\targets\CANVIEW4\lib\lld\libCANView4.a(stm32f4xx_hal_tim.o)
                0x08038d26                HAL_TIM_OC_Init
 .text.HAL_TIM_OC_DeInit
                0x08038d7c       0x60 C:\PROGRA~2\VT3_8920\VT3\RESOUR~1\targets\CANVIEW4\lib\lld\libCANView4.a(stm32f4xx_hal_tim.o)
                0x08038d7c                HAL_TIM_OC_DeInit
 .text.HAL_TIM_OC_MspInit
                0x08038ddc       0x14 C:\PROGRA~2\VT3_8920\VT3\RESOUR~1\targets\CANVIEW4\lib\lld\libCANView4.a(stm32f4xx_hal_tim.o)
                0x08038ddc                HAL_TIM_OC_MspInit
 .text.HAL_TIM_OC_MspDeInit
                0x08038df0       0x14 C:\PROGRA~2\VT3_8920\VT3\RESOUR~1\targets\CANVIEW4\lib\lld\libCANView4.a(stm32f4xx_hal_tim.o)
                0x08038df0                HAL_TIM_OC_MspDeInit
 .text.HAL_TIM_OC_Start
                0x08038e04       0x68 C:\PROGRA~2\VT3_8920\VT3\RESOUR~1\targets\CANVIEW4\lib\lld\libCANView4.a(stm32f4xx_hal_tim.o)
                0x08038e04                HAL_TIM_OC_Start
 .text.HAL_TIM_OC_Stop
                0x08038e6c       0xa8 C:\PROGRA~2\VT3_8920\VT3\RESOUR~1\targets\CANVIEW4\lib\lld\libCANView4.a(stm32f4xx_hal_tim.o)
                0x08038e6c                HAL_TIM_OC_Stop
 .text.HAL_TIM_OC_Start_IT
                0x08038f14       0xf4 C:\PROGRA~2\VT3_8920\VT3\RESOUR~1\targets\CANVIEW4\lib\lld\libCANView4.a(stm32f4xx_hal_tim.o)
                0x08038f14                HAL_TIM_OC_Start_IT
 .text.HAL_TIM_OC_Stop_IT
                0x08039008      0x134 C:\PROGRA~2\VT3_8920\VT3\RESOUR~1\targets\CANVIEW4\lib\lld\libCANView4.a(stm32f4xx_hal_tim.o)
                0x08039008                HAL_TIM_OC_Stop_IT
 .text.HAL_TIM_OC_Start_DMA
                0x0803913c      0x1c4 C:\PROGRA~2\VT3_8920\VT3\RESOUR~1\targets\CANVIEW4\lib\lld\libCANView4.a(stm32f4xx_hal_tim.o)
                0x0803913c                HAL_TIM_OC_Start_DMA
 .text.HAL_TIM_OC_Stop_DMA
                0x08039300      0x13c C:\PROGRA~2\VT3_8920\VT3\RESOUR~1\targets\CANVIEW4\lib\lld\libCANView4.a(stm32f4xx_hal_tim.o)
                0x08039300                HAL_TIM_OC_Stop_DMA
 .text.HAL_TIM_PWM_Init
                0x0803943c       0x56 C:\PROGRA~2\VT3_8920\VT3\RESOUR~1\targets\CANVIEW4\lib\lld\libCANView4.a(stm32f4xx_hal_tim.o)
                0x0803943c                HAL_TIM_PWM_Init
 .text.HAL_TIM_PWM_DeInit
                0x08039492       0x60 C:\PROGRA~2\VT3_8920\VT3\RESOUR~1\targets\CANVIEW4\lib\lld\libCANView4.a(stm32f4xx_hal_tim.o)
                0x08039492                HAL_TIM_PWM_DeInit
 *fill*         0x080394f2        0x2 
 .text.HAL_TIM_PWM_Start
                0x080394f4       0x68 C:\PROGRA~2\VT3_8920\VT3\RESOUR~1\targets\CANVIEW4\lib\lld\libCANView4.a(stm32f4xx_hal_tim.o)
                0x080394f4                HAL_TIM_PWM_Start
 .text.HAL_TIM_PWM_Stop
                0x0803955c       0xb0 C:\PROGRA~2\VT3_8920\VT3\RESOUR~1\targets\CANVIEW4\lib\lld\libCANView4.a(stm32f4xx_hal_tim.o)
                0x0803955c                HAL_TIM_PWM_Stop
 .text.HAL_TIM_PWM_Start_IT
                0x0803960c       0xf4 C:\PROGRA~2\VT3_8920\VT3\RESOUR~1\targets\CANVIEW4\lib\lld\libCANView4.a(stm32f4xx_hal_tim.o)
                0x0803960c                HAL_TIM_PWM_Start_IT
 .text.HAL_TIM_PWM_Stop_IT
                0x08039700      0x134 C:\PROGRA~2\VT3_8920\VT3\RESOUR~1\targets\CANVIEW4\lib\lld\libCANView4.a(stm32f4xx_hal_tim.o)
                0x08039700                HAL_TIM_PWM_Stop_IT
 .text.HAL_TIM_PWM_Start_DMA
                0x08039834      0x1c4 C:\PROGRA~2\VT3_8920\VT3\RESOUR~1\targets\CANVIEW4\lib\lld\libCANView4.a(stm32f4xx_hal_tim.o)
                0x08039834                HAL_TIM_PWM_Start_DMA
 .text.HAL_TIM_PWM_Stop_DMA
                0x080399f8      0x13c C:\PROGRA~2\VT3_8920\VT3\RESOUR~1\targets\CANVIEW4\lib\lld\libCANView4.a(stm32f4xx_hal_tim.o)
                0x080399f8                HAL_TIM_PWM_Stop_DMA
 .text.HAL_TIM_IC_Init
                0x08039b34       0x56 C:\PROGRA~2\VT3_8920\VT3\RESOUR~1\targets\CANVIEW4\lib\lld\libCANView4.a(stm32f4xx_hal_tim.o)
                0x08039b34                HAL_TIM_IC_Init
 .text.HAL_TIM_IC_DeInit
                0x08039b8a       0x60 C:\PROGRA~2\VT3_8920\VT3\RESOUR~1\targets\CANVIEW4\lib\lld\libCANView4.a(stm32f4xx_hal_tim.o)
                0x08039b8a                HAL_TIM_IC_DeInit
 .text.HAL_TIM_IC_MspInit
                0x08039bea       0x14 C:\PROGRA~2\VT3_8920\VT3\RESOUR~1\targets\CANVIEW4\lib\lld\libCANView4.a(stm32f4xx_hal_tim.o)
                0x08039bea                HAL_TIM_IC_MspInit
 .text.HAL_TIM_IC_MspDeInit
                0x08039bfe       0x14 C:\PROGRA~2\VT3_8920\VT3\RESOUR~1\targets\CANVIEW4\lib\lld\libCANView4.a(stm32f4xx_hal_tim.o)
                0x08039bfe                HAL_TIM_IC_MspDeInit
 .text.HAL_TIM_IC_Start
                0x08039c12       0x32 C:\PROGRA~2\VT3_8920\VT3\RESOUR~1\targets\CANVIEW4\lib\lld\libCANView4.a(stm32f4xx_hal_tim.o)
                0x08039c12                HAL_TIM_IC_Start
 .text.HAL_TIM_IC_Stop
                0x08039c44       0x52 C:\PROGRA~2\VT3_8920\VT3\RESOUR~1\targets\CANVIEW4\lib\lld\libCANView4.a(stm32f4xx_hal_tim.o)
                0x08039c44                HAL_TIM_IC_Stop
 *fill*         0x08039c96        0x2 
 .text.HAL_TIM_IC_Start_IT
                0x08039c98       0xc0 C:\PROGRA~2\VT3_8920\VT3\RESOUR~1\targets\CANVIEW4\lib\lld\libCANView4.a(stm32f4xx_hal_tim.o)
                0x08039c98                HAL_TIM_IC_Start_IT
 .text.HAL_TIM_IC_Stop_IT
                0x08039d58       0xe0 C:\PROGRA~2\VT3_8920\VT3\RESOUR~1\targets\CANVIEW4\lib\lld\libCANView4.a(stm32f4xx_hal_tim.o)
                0x08039d58                HAL_TIM_IC_Stop_IT
 .text.HAL_TIM_IC_Start_DMA
                0x08039e38      0x190 C:\PROGRA~2\VT3_8920\VT3\RESOUR~1\targets\CANVIEW4\lib\lld\libCANView4.a(stm32f4xx_hal_tim.o)
                0x08039e38                HAL_TIM_IC_Start_DMA
 .text.HAL_TIM_IC_Stop_DMA
                0x08039fc8       0xe8 C:\PROGRA~2\VT3_8920\VT3\RESOUR~1\targets\CANVIEW4\lib\lld\libCANView4.a(stm32f4xx_hal_tim.o)
                0x08039fc8                HAL_TIM_IC_Stop_DMA
 .text.HAL_TIM_OnePulse_Init
                0x0803a0b0       0x78 C:\PROGRA~2\VT3_8920\VT3\RESOUR~1\targets\CANVIEW4\lib\lld\libCANView4.a(stm32f4xx_hal_tim.o)
                0x0803a0b0                HAL_TIM_OnePulse_Init
 .text.HAL_TIM_OnePulse_DeInit
                0x0803a128       0x60 C:\PROGRA~2\VT3_8920\VT3\RESOUR~1\targets\CANVIEW4\lib\lld\libCANView4.a(stm32f4xx_hal_tim.o)
                0x0803a128                HAL_TIM_OnePulse_DeInit
 .text.HAL_TIM_OnePulse_MspInit
                0x0803a188       0x14 C:\PROGRA~2\VT3_8920\VT3\RESOUR~1\targets\CANVIEW4\lib\lld\libCANView4.a(stm32f4xx_hal_tim.o)
                0x0803a188                HAL_TIM_OnePulse_MspInit
 .text.HAL_TIM_OnePulse_MspDeInit
                0x0803a19c       0x14 C:\PROGRA~2\VT3_8920\VT3\RESOUR~1\targets\CANVIEW4\lib\lld\libCANView4.a(stm32f4xx_hal_tim.o)
                0x0803a19c                HAL_TIM_OnePulse_MspDeInit
 .text.HAL_TIM_OnePulse_Start
                0x0803a1b0       0x68 C:\PROGRA~2\VT3_8920\VT3\RESOUR~1\targets\CANVIEW4\lib\lld\libCANView4.a(stm32f4xx_hal_tim.o)
                0x0803a1b0                HAL_TIM_OnePulse_Start
 .text.HAL_TIM_OnePulse_Stop
                0x0803a218       0xb8 C:\PROGRA~2\VT3_8920\VT3\RESOUR~1\targets\CANVIEW4\lib\lld\libCANView4.a(stm32f4xx_hal_tim.o)
                0x0803a218                HAL_TIM_OnePulse_Stop
 .text.HAL_TIM_OnePulse_Start_IT
                0x0803a2d0       0x88 C:\PROGRA~2\VT3_8920\VT3\RESOUR~1\targets\CANVIEW4\lib\lld\libCANView4.a(stm32f4xx_hal_tim.o)
                0x0803a2d0                HAL_TIM_OnePulse_Start_IT
 .text.HAL_TIM_OnePulse_Stop_IT
                0x0803a358       0xd8 C:\PROGRA~2\VT3_8920\VT3\RESOUR~1\targets\CANVIEW4\lib\lld\libCANView4.a(stm32f4xx_hal_tim.o)
                0x0803a358                HAL_TIM_OnePulse_Stop_IT
 .text.HAL_TIM_Encoder_Init
                0x0803a430      0x12c C:\PROGRA~2\VT3_8920\VT3\RESOUR~1\targets\CANVIEW4\lib\lld\libCANView4.a(stm32f4xx_hal_tim.o)
                0x0803a430                HAL_TIM_Encoder_Init
 .text.HAL_TIM_Encoder_DeInit
                0x0803a55c       0x60 C:\PROGRA~2\VT3_8920\VT3\RESOUR~1\targets\CANVIEW4\lib\lld\libCANView4.a(stm32f4xx_hal_tim.o)
                0x0803a55c                HAL_TIM_Encoder_DeInit
 .text.HAL_TIM_Encoder_MspInit
                0x0803a5bc       0x14 C:\PROGRA~2\VT3_8920\VT3\RESOUR~1\targets\CANVIEW4\lib\lld\libCANView4.a(stm32f4xx_hal_tim.o)
                0x0803a5bc                HAL_TIM_Encoder_MspInit
 .text.HAL_TIM_Encoder_MspDeInit
                0x0803a5d0       0x14 C:\PROGRA~2\VT3_8920\VT3\RESOUR~1\targets\CANVIEW4\lib\lld\libCANView4.a(stm32f4xx_hal_tim.o)
                0x0803a5d0                HAL_TIM_Encoder_MspDeInit
 .text.HAL_TIM_Encoder_Start
                0x0803a5e4       0x6e C:\PROGRA~2\VT3_8920\VT3\RESOUR~1\targets\CANVIEW4\lib\lld\libCANView4.a(stm32f4xx_hal_tim.o)
                0x0803a5e4                HAL_TIM_Encoder_Start
 .text.HAL_TIM_Encoder_Stop
                0x0803a652       0x8e C:\PROGRA~2\VT3_8920\VT3\RESOUR~1\targets\CANVIEW4\lib\lld\libCANView4.a(stm32f4xx_hal_tim.o)
                0x0803a652                HAL_TIM_Encoder_Stop
 .text.HAL_TIM_Encoder_Start_IT
                0x0803a6e0       0xae C:\PROGRA~2\VT3_8920\VT3\RESOUR~1\targets\CANVIEW4\lib\lld\libCANView4.a(stm32f4xx_hal_tim.o)
                0x0803a6e0                HAL_TIM_Encoder_Start_IT
 .text.HAL_TIM_Encoder_Stop_IT
                0x0803a78e       0xd4 C:\PROGRA~2\VT3_8920\VT3\RESOUR~1\targets\CANVIEW4\lib\lld\libCANView4.a(stm32f4xx_hal_tim.o)
                0x0803a78e                HAL_TIM_Encoder_Stop_IT
 *fill*         0x0803a862        0x2 
 .text.HAL_TIM_Encoder_Start_DMA
                0x0803a864      0x1a8 C:\PROGRA~2\VT3_8920\VT3\RESOUR~1\targets\CANVIEW4\lib\lld\libCANView4.a(stm32f4xx_hal_tim.o)
                0x0803a864                HAL_TIM_Encoder_Start_DMA
 .text.HAL_TIM_Encoder_Stop_DMA
                0x0803aa0c       0xd4 C:\PROGRA~2\VT3_8920\VT3\RESOUR~1\targets\CANVIEW4\lib\lld\libCANView4.a(stm32f4xx_hal_tim.o)
                0x0803aa0c                HAL_TIM_Encoder_Stop_DMA
 .text.HAL_TIM_IRQHandler
                0x0803aae0      0x210 C:\PROGRA~2\VT3_8920\VT3\RESOUR~1\targets\CANVIEW4\lib\lld\libCANView4.a(stm32f4xx_hal_tim.o)
                0x0803aae0                HAL_TIM_IRQHandler
 .text.HAL_TIM_OC_ConfigChannel
                0x0803acf0       0xc0 C:\PROGRA~2\VT3_8920\VT3\RESOUR~1\targets\CANVIEW4\lib\lld\libCANView4.a(stm32f4xx_hal_tim.o)
                0x0803acf0                HAL_TIM_OC_ConfigChannel
 .text.HAL_TIM_IC_ConfigChannel
                0x0803adb0      0x138 C:\PROGRA~2\VT3_8920\VT3\RESOUR~1\targets\CANVIEW4\lib\lld\libCANView4.a(stm32f4xx_hal_tim.o)
                0x0803adb0                HAL_TIM_IC_ConfigChannel
 .text.HAL_TIM_PWM_ConfigChannel
                0x0803aee8      0x18c C:\PROGRA~2\VT3_8920\VT3\RESOUR~1\targets\CANVIEW4\lib\lld\libCANView4.a(stm32f4xx_hal_tim.o)
                0x0803aee8                HAL_TIM_PWM_ConfigChannel
 .text.HAL_TIM_OnePulse_ConfigChannel
                0x0803b074      0x180 C:\PROGRA~2\VT3_8920\VT3\RESOUR~1\targets\CANVIEW4\lib\lld\libCANView4.a(stm32f4xx_hal_tim.o)
                0x0803b074                HAL_TIM_OnePulse_ConfigChannel
 .text.HAL_TIM_DMABurst_WriteStart
                0x0803b1f4      0x1e4 C:\PROGRA~2\VT3_8920\VT3\RESOUR~1\targets\CANVIEW4\lib\lld\libCANView4.a(stm32f4xx_hal_tim.o)
                0x0803b1f4                HAL_TIM_DMABurst_WriteStart
 .text.HAL_TIM_DMABurst_WriteStop
                0x0803b3d8       0xb0 C:\PROGRA~2\VT3_8920\VT3\RESOUR~1\targets\CANVIEW4\lib\lld\libCANView4.a(stm32f4xx_hal_tim.o)
                0x0803b3d8                HAL_TIM_DMABurst_WriteStop
 .text.HAL_TIM_DMABurst_ReadStart
                0x0803b488      0x1e4 C:\PROGRA~2\VT3_8920\VT3\RESOUR~1\targets\CANVIEW4\lib\lld\libCANView4.a(stm32f4xx_hal_tim.o)
                0x0803b488                HAL_TIM_DMABurst_ReadStart
 .text.HAL_TIM_DMABurst_ReadStop
                0x0803b66c       0xb0 C:\PROGRA~2\VT3_8920\VT3\RESOUR~1\targets\CANVIEW4\lib\lld\libCANView4.a(stm32f4xx_hal_tim.o)
                0x0803b66c                HAL_TIM_DMABurst_ReadStop
 .text.HAL_TIM_GenerateEvent
                0x0803b71c       0x4e C:\PROGRA~2\VT3_8920\VT3\RESOUR~1\targets\CANVIEW4\lib\lld\libCANView4.a(stm32f4xx_hal_tim.o)
                0x0803b71c                HAL_TIM_GenerateEvent
 *fill*         0x0803b76a        0x2 
 .text.HAL_TIM_ConfigOCrefClear
                0x0803b76c      0x154 C:\PROGRA~2\VT3_8920\VT3\RESOUR~1\targets\CANVIEW4\lib\lld\libCANView4.a(stm32f4xx_hal_tim.o)
                0x0803b76c                HAL_TIM_ConfigOCrefClear
 .text.HAL_TIM_ConfigClockSource
                0x0803b8c0      0x1b6 C:\PROGRA~2\VT3_8920\VT3\RESOUR~1\targets\CANVIEW4\lib\lld\libCANView4.a(stm32f4xx_hal_tim.o)
                0x0803b8c0                HAL_TIM_ConfigClockSource
 .text.HAL_TIM_ConfigTI1Input
                0x0803ba76       0x3c C:\PROGRA~2\VT3_8920\VT3\RESOUR~1\targets\CANVIEW4\lib\lld\libCANView4.a(stm32f4xx_hal_tim.o)
                0x0803ba76                HAL_TIM_ConfigTI1Input
 .text.HAL_TIM_SlaveConfigSynchronization
                0x0803bab2       0x6a C:\PROGRA~2\VT3_8920\VT3\RESOUR~1\targets\CANVIEW4\lib\lld\libCANView4.a(stm32f4xx_hal_tim.o)
                0x0803bab2                HAL_TIM_SlaveConfigSynchronization
 .text.HAL_TIM_SlaveConfigSynchronization_IT
                0x0803bb1c       0x6a C:\PROGRA~2\VT3_8920\VT3\RESOUR~1\targets\CANVIEW4\lib\lld\libCANView4.a(stm32f4xx_hal_tim.o)
                0x0803bb1c                HAL_TIM_SlaveConfigSynchronization_IT
 *fill*         0x0803bb86        0x2 
 .text.HAL_TIM_ReadCapturedValue
                0x0803bb88       0xa4 C:\PROGRA~2\VT3_8920\VT3\RESOUR~1\targets\CANVIEW4\lib\lld\libCANView4.a(stm32f4xx_hal_tim.o)
                0x0803bb88                HAL_TIM_ReadCapturedValue
 .text.HAL_TIM_OC_DelayElapsedCallback
                0x0803bc2c       0x14 C:\PROGRA~2\VT3_8920\VT3\RESOUR~1\targets\CANVIEW4\lib\lld\libCANView4.a(stm32f4xx_hal_tim.o)
                0x0803bc2c                HAL_TIM_OC_DelayElapsedCallback
 .text.HAL_TIM_IC_CaptureCallback
                0x0803bc40       0x14 C:\PROGRA~2\VT3_8920\VT3\RESOUR~1\targets\CANVIEW4\lib\lld\libCANView4.a(stm32f4xx_hal_tim.o)
                0x0803bc40                HAL_TIM_IC_CaptureCallback
 .text.HAL_TIM_PWM_PulseFinishedCallback
                0x0803bc54       0x14 C:\PROGRA~2\VT3_8920\VT3\RESOUR~1\targets\CANVIEW4\lib\lld\libCANView4.a(stm32f4xx_hal_tim.o)
                0x0803bc54                HAL_TIM_PWM_PulseFinishedCallback
 .text.HAL_TIM_TriggerCallback
                0x0803bc68       0x14 C:\PROGRA~2\VT3_8920\VT3\RESOUR~1\targets\CANVIEW4\lib\lld\libCANView4.a(stm32f4xx_hal_tim.o)
                0x0803bc68                HAL_TIM_TriggerCallback
 .text.HAL_TIM_ErrorCallback
                0x0803bc7c       0x14 C:\PROGRA~2\VT3_8920\VT3\RESOUR~1\targets\CANVIEW4\lib\lld\libCANView4.a(stm32f4xx_hal_tim.o)
                0x0803bc7c                HAL_TIM_ErrorCallback
 .text.HAL_TIM_Base_GetState
                0x0803bc90       0x1c C:\PROGRA~2\VT3_8920\VT3\RESOUR~1\targets\CANVIEW4\lib\lld\libCANView4.a(stm32f4xx_hal_tim.o)
                0x0803bc90                HAL_TIM_Base_GetState
 .text.HAL_TIM_OC_GetState
                0x0803bcac       0x1c C:\PROGRA~2\VT3_8920\VT3\RESOUR~1\targets\CANVIEW4\lib\lld\libCANView4.a(stm32f4xx_hal_tim.o)
                0x0803bcac                HAL_TIM_OC_GetState
 .text.HAL_TIM_PWM_GetState
                0x0803bcc8       0x1c C:\PROGRA~2\VT3_8920\VT3\RESOUR~1\targets\CANVIEW4\lib\lld\libCANView4.a(stm32f4xx_hal_tim.o)
                0x0803bcc8                HAL_TIM_PWM_GetState
 .text.HAL_TIM_IC_GetState
                0x0803bce4       0x1c C:\PROGRA~2\VT3_8920\VT3\RESOUR~1\targets\CANVIEW4\lib\lld\libCANView4.a(stm32f4xx_hal_tim.o)
                0x0803bce4                HAL_TIM_IC_GetState
 .text.HAL_TIM_OnePulse_GetState
                0x0803bd00       0x1c C:\PROGRA~2\VT3_8920\VT3\RESOUR~1\targets\CANVIEW4\lib\lld\libCANView4.a(stm32f4xx_hal_tim.o)
                0x0803bd00                HAL_TIM_OnePulse_GetState
 .text.HAL_TIM_Encoder_GetState
                0x0803bd1c       0x1c C:\PROGRA~2\VT3_8920\VT3\RESOUR~1\targets\CANVIEW4\lib\lld\libCANView4.a(stm32f4xx_hal_tim.o)
                0x0803bd1c                HAL_TIM_Encoder_GetState
 .text.TIM_Base_SetConfig
                0x0803bd38      0x154 C:\PROGRA~2\VT3_8920\VT3\RESOUR~1\targets\CANVIEW4\lib\lld\libCANView4.a(stm32f4xx_hal_tim.o)
                0x0803bd38                TIM_Base_SetConfig
 .text.TIM_TI1_SetConfig
                0x0803be8c       0xf8 C:\PROGRA~2\VT3_8920\VT3\RESOUR~1\targets\CANVIEW4\lib\lld\libCANView4.a(stm32f4xx_hal_tim.o)
                0x0803be8c                TIM_TI1_SetConfig
 .text.TIM_OC2_SetConfig
                0x0803bf84       0xf0 C:\PROGRA~2\VT3_8920\VT3\RESOUR~1\targets\CANVIEW4\lib\lld\libCANView4.a(stm32f4xx_hal_tim.o)
                0x0803bf84                TIM_OC2_SetConfig
 .text.TIM_DMADelayPulseCplt
                0x0803c074       0x70 C:\PROGRA~2\VT3_8920\VT3\RESOUR~1\targets\CANVIEW4\lib\lld\libCANView4.a(stm32f4xx_hal_tim.o)
                0x0803c074                TIM_DMADelayPulseCplt
 .text.TIM_DMAError
                0x0803c0e4       0x24 C:\PROGRA~2\VT3_8920\VT3\RESOUR~1\targets\CANVIEW4\lib\lld\libCANView4.a(stm32f4xx_hal_tim.o)
                0x0803c0e4                TIM_DMAError
 .text.TIM_DMACaptureCplt
                0x0803c108       0x70 C:\PROGRA~2\VT3_8920\VT3\RESOUR~1\targets\CANVIEW4\lib\lld\libCANView4.a(stm32f4xx_hal_tim.o)
                0x0803c108                TIM_DMACaptureCplt
 .text.TIM_CCxChannelCmd
                0x0803c178       0x46 C:\PROGRA~2\VT3_8920\VT3\RESOUR~1\targets\CANVIEW4\lib\lld\libCANView4.a(stm32f4xx_hal_tim.o)
                0x0803c178                TIM_CCxChannelCmd
 .text.TIM_DMAPeriodElapsedCplt
                0x0803c1be       0x24 C:\PROGRA~2\VT3_8920\VT3\RESOUR~1\targets\CANVIEW4\lib\lld\libCANView4.a(stm32f4xx_hal_tim.o)
 .text.TIM_DMATriggerCplt
                0x0803c1e2       0x24 C:\PROGRA~2\VT3_8920\VT3\RESOUR~1\targets\CANVIEW4\lib\lld\libCANView4.a(stm32f4xx_hal_tim.o)
 *fill*         0x0803c206        0x2 
 .text.TIM_OC1_SetConfig
                0x0803c208       0xe8 C:\PROGRA~2\VT3_8920\VT3\RESOUR~1\targets\CANVIEW4\lib\lld\libCANView4.a(stm32f4xx_hal_tim.o)
 .text.TIM_OC3_SetConfig
                0x0803c2f0       0xf0 C:\PROGRA~2\VT3_8920\VT3\RESOUR~1\targets\CANVIEW4\lib\lld\libCANView4.a(stm32f4xx_hal_tim.o)
 .text.TIM_OC4_SetConfig
                0x0803c3e0       0xc0 C:\PROGRA~2\VT3_8920\VT3\RESOUR~1\targets\CANVIEW4\lib\lld\libCANView4.a(stm32f4xx_hal_tim.o)
 .text.TIM_SlaveTimer_SetConfig
                0x0803c4a0      0x116 C:\PROGRA~2\VT3_8920\VT3\RESOUR~1\targets\CANVIEW4\lib\lld\libCANView4.a(stm32f4xx_hal_tim.o)
 .text.TIM_TI1_ConfigInputStage
                0x0803c5b6       0x66 C:\PROGRA~2\VT3_8920\VT3\RESOUR~1\targets\CANVIEW4\lib\lld\libCANView4.a(stm32f4xx_hal_tim.o)
 .text.TIM_TI2_SetConfig
                0x0803c61c       0x82 C:\PROGRA~2\VT3_8920\VT3\RESOUR~1\targets\CANVIEW4\lib\lld\libCANView4.a(stm32f4xx_hal_tim.o)
 .text.TIM_TI2_ConfigInputStage
                0x0803c69e       0x68 C:\PROGRA~2\VT3_8920\VT3\RESOUR~1\targets\CANVIEW4\lib\lld\libCANView4.a(stm32f4xx_hal_tim.o)
 .text.TIM_TI3_SetConfig
                0x0803c706       0x80 C:\PROGRA~2\VT3_8920\VT3\RESOUR~1\targets\CANVIEW4\lib\lld\libCANView4.a(stm32f4xx_hal_tim.o)
 .text.TIM_TI4_SetConfig
                0x0803c786       0x82 C:\PROGRA~2\VT3_8920\VT3\RESOUR~1\targets\CANVIEW4\lib\lld\libCANView4.a(stm32f4xx_hal_tim.o)
 .text.TIM_ITRx_SetConfig
                0x0803c808       0x40 C:\PROGRA~2\VT3_8920\VT3\RESOUR~1\targets\CANVIEW4\lib\lld\libCANView4.a(stm32f4xx_hal_tim.o)
 .text.TIM_ETR_SetConfig
                0x0803c848       0x44 C:\PROGRA~2\VT3_8920\VT3\RESOUR~1\targets\CANVIEW4\lib\lld\libCANView4.a(stm32f4xx_hal_tim.o)
 .text.HAL_TIMEx_HallSensor_Init
                0x0803c88c      0x116 C:\PROGRA~2\VT3_8920\VT3\RESOUR~1\targets\CANVIEW4\lib\lld\libCANView4.a(stm32f4xx_hal_tim_ex.o)
                0x0803c88c                HAL_TIMEx_HallSensor_Init
 .text.HAL_TIMEx_HallSensor_DeInit
                0x0803c9a2       0x60 C:\PROGRA~2\VT3_8920\VT3\RESOUR~1\targets\CANVIEW4\lib\lld\libCANView4.a(stm32f4xx_hal_tim_ex.o)
                0x0803c9a2                HAL_TIMEx_HallSensor_DeInit
 .text.HAL_TIMEx_HallSensor_MspInit
                0x0803ca02       0x14 C:\PROGRA~2\VT3_8920\VT3\RESOUR~1\targets\CANVIEW4\lib\lld\libCANView4.a(stm32f4xx_hal_tim_ex.o)
                0x0803ca02                HAL_TIMEx_HallSensor_MspInit
 .text.HAL_TIMEx_HallSensor_MspDeInit
                0x0803ca16       0x14 C:\PROGRA~2\VT3_8920\VT3\RESOUR~1\targets\CANVIEW4\lib\lld\libCANView4.a(stm32f4xx_hal_tim_ex.o)
                0x0803ca16                HAL_TIMEx_HallSensor_MspDeInit
 .text.HAL_TIMEx_HallSensor_Start
                0x0803ca2a       0x30 C:\PROGRA~2\VT3_8920\VT3\RESOUR~1\targets\CANVIEW4\lib\lld\libCANView4.a(stm32f4xx_hal_tim_ex.o)
                0x0803ca2a                HAL_TIMEx_HallSensor_Start
 .text.HAL_TIMEx_HallSensor_Stop
                0x0803ca5a       0x50 C:\PROGRA~2\VT3_8920\VT3\RESOUR~1\targets\CANVIEW4\lib\lld\libCANView4.a(stm32f4xx_hal_tim_ex.o)
                0x0803ca5a                HAL_TIMEx_HallSensor_Stop
 .text.HAL_TIMEx_HallSensor_Start_IT
                0x0803caaa       0x40 C:\PROGRA~2\VT3_8920\VT3\RESOUR~1\targets\CANVIEW4\lib\lld\libCANView4.a(stm32f4xx_hal_tim_ex.o)
                0x0803caaa                HAL_TIMEx_HallSensor_Start_IT
 .text.HAL_TIMEx_HallSensor_Stop_IT
                0x0803caea       0x60 C:\PROGRA~2\VT3_8920\VT3\RESOUR~1\targets\CANVIEW4\lib\lld\libCANView4.a(stm32f4xx_hal_tim_ex.o)
                0x0803caea                HAL_TIMEx_HallSensor_Stop_IT
 *fill*         0x0803cb4a        0x2 
 .text.HAL_TIMEx_HallSensor_Start_DMA
                0x0803cb4c       0xa8 C:\PROGRA~2\VT3_8920\VT3\RESOUR~1\targets\CANVIEW4\lib\lld\libCANView4.a(stm32f4xx_hal_tim_ex.o)
                0x0803cb4c                HAL_TIMEx_HallSensor_Start_DMA
 .text.HAL_TIMEx_HallSensor_Stop_DMA
                0x0803cbf4       0x60 C:\PROGRA~2\VT3_8920\VT3\RESOUR~1\targets\CANVIEW4\lib\lld\libCANView4.a(stm32f4xx_hal_tim_ex.o)
                0x0803cbf4                HAL_TIMEx_HallSensor_Stop_DMA
 .text.HAL_TIMEx_OCN_Start
                0x0803cc54       0x42 C:\PROGRA~2\VT3_8920\VT3\RESOUR~1\targets\CANVIEW4\lib\lld\libCANView4.a(stm32f4xx_hal_tim_ex.o)
                0x0803cc54                HAL_TIMEx_OCN_Start
 .text.HAL_TIMEx_OCN_Stop
                0x0803cc96       0x82 C:\PROGRA~2\VT3_8920\VT3\RESOUR~1\targets\CANVIEW4\lib\lld\libCANView4.a(stm32f4xx_hal_tim_ex.o)
                0x0803cc96                HAL_TIMEx_OCN_Stop
 .text.HAL_TIMEx_OCN_Start_IT
                0x0803cd18       0xe0 C:\PROGRA~2\VT3_8920\VT3\RESOUR~1\targets\CANVIEW4\lib\lld\libCANView4.a(stm32f4xx_hal_tim_ex.o)
                0x0803cd18                HAL_TIMEx_OCN_Start_IT
 .text.HAL_TIMEx_OCN_Stop_IT
                0x0803cdf8      0x130 C:\PROGRA~2\VT3_8920\VT3\RESOUR~1\targets\CANVIEW4\lib\lld\libCANView4.a(stm32f4xx_hal_tim_ex.o)
                0x0803cdf8                HAL_TIMEx_OCN_Stop_IT
 .text.HAL_TIMEx_OCN_Start_DMA
                0x0803cf28      0x1a0 C:\PROGRA~2\VT3_8920\VT3\RESOUR~1\targets\CANVIEW4\lib\lld\libCANView4.a(stm32f4xx_hal_tim_ex.o)
                0x0803cf28                HAL_TIMEx_OCN_Start_DMA
 .text.HAL_TIMEx_OCN_Stop_DMA
                0x0803d0c8      0x118 C:\PROGRA~2\VT3_8920\VT3\RESOUR~1\targets\CANVIEW4\lib\lld\libCANView4.a(stm32f4xx_hal_tim_ex.o)
                0x0803d0c8                HAL_TIMEx_OCN_Stop_DMA
 .text.HAL_TIMEx_PWMN_Start
                0x0803d1e0       0x42 C:\PROGRA~2\VT3_8920\VT3\RESOUR~1\targets\CANVIEW4\lib\lld\libCANView4.a(stm32f4xx_hal_tim_ex.o)
                0x0803d1e0                HAL_TIMEx_PWMN_Start
 .text.HAL_TIMEx_PWMN_Stop
                0x0803d222       0x82 C:\PROGRA~2\VT3_8920\VT3\RESOUR~1\targets\CANVIEW4\lib\lld\libCANView4.a(stm32f4xx_hal_tim_ex.o)
                0x0803d222                HAL_TIMEx_PWMN_Stop
 .text.HAL_TIMEx_PWMN_Start_IT
                0x0803d2a4       0xe0 C:\PROGRA~2\VT3_8920\VT3\RESOUR~1\targets\CANVIEW4\lib\lld\libCANView4.a(stm32f4xx_hal_tim_ex.o)
                0x0803d2a4                HAL_TIMEx_PWMN_Start_IT
 .text.HAL_TIMEx_PWMN_Stop_IT
                0x0803d384      0x130 C:\PROGRA~2\VT3_8920\VT3\RESOUR~1\targets\CANVIEW4\lib\lld\libCANView4.a(stm32f4xx_hal_tim_ex.o)
                0x0803d384                HAL_TIMEx_PWMN_Stop_IT
 .text.HAL_TIMEx_PWMN_Start_DMA
                0x0803d4b4      0x1a0 C:\PROGRA~2\VT3_8920\VT3\RESOUR~1\targets\CANVIEW4\lib\lld\libCANView4.a(stm32f4xx_hal_tim_ex.o)
                0x0803d4b4                HAL_TIMEx_PWMN_Start_DMA
 .text.HAL_TIMEx_PWMN_Stop_DMA
                0x0803d654      0x118 C:\PROGRA~2\VT3_8920\VT3\RESOUR~1\targets\CANVIEW4\lib\lld\libCANView4.a(stm32f4xx_hal_tim_ex.o)
                0x0803d654                HAL_TIMEx_PWMN_Stop_DMA
 .text.HAL_TIMEx_OnePulseN_Start
                0x0803d76c       0x32 C:\PROGRA~2\VT3_8920\VT3\RESOUR~1\targets\CANVIEW4\lib\lld\libCANView4.a(stm32f4xx_hal_tim_ex.o)
                0x0803d76c                HAL_TIMEx_OnePulseN_Start
 .text.HAL_TIMEx_OnePulseN_Stop
                0x0803d79e       0x82 C:\PROGRA~2\VT3_8920\VT3\RESOUR~1\targets\CANVIEW4\lib\lld\libCANView4.a(stm32f4xx_hal_tim_ex.o)
                0x0803d79e                HAL_TIMEx_OnePulseN_Stop
 .text.HAL_TIMEx_OnePulseN_Start_IT
                0x0803d820       0x52 C:\PROGRA~2\VT3_8920\VT3\RESOUR~1\targets\CANVIEW4\lib\lld\libCANView4.a(stm32f4xx_hal_tim_ex.o)
                0x0803d820                HAL_TIMEx_OnePulseN_Start_IT
 .text.HAL_TIMEx_OnePulseN_Stop_IT
                0x0803d872       0xa2 C:\PROGRA~2\VT3_8920\VT3\RESOUR~1\targets\CANVIEW4\lib\lld\libCANView4.a(stm32f4xx_hal_tim_ex.o)
                0x0803d872                HAL_TIMEx_OnePulseN_Stop_IT
 .text.HAL_TIMEx_ConfigCommutationEvent
                0x0803d914       0xa0 C:\PROGRA~2\VT3_8920\VT3\RESOUR~1\targets\CANVIEW4\lib\lld\libCANView4.a(stm32f4xx_hal_tim_ex.o)
                0x0803d914                HAL_TIMEx_ConfigCommutationEvent
 .text.HAL_TIMEx_ConfigCommutationEvent_IT
                0x0803d9b4       0xb0 C:\PROGRA~2\VT3_8920\VT3\RESOUR~1\targets\CANVIEW4\lib\lld\libCANView4.a(stm32f4xx_hal_tim_ex.o)
                0x0803d9b4                HAL_TIMEx_ConfigCommutationEvent_IT
 .text.HAL_TIMEx_ConfigCommutationEvent_DMA
                0x0803da64       0xc8 C:\PROGRA~2\VT3_8920\VT3\RESOUR~1\targets\CANVIEW4\lib\lld\libCANView4.a(stm32f4xx_hal_tim_ex.o)
                0x0803da64                HAL_TIMEx_ConfigCommutationEvent_DMA
 .text.HAL_TIMEx_MasterConfigSynchronization
                0x0803db2c       0x8a C:\PROGRA~2\VT3_8920\VT3\RESOUR~1\targets\CANVIEW4\lib\lld\libCANView4.a(stm32f4xx_hal_tim_ex.o)
                0x0803db2c                HAL_TIMEx_MasterConfigSynchronization
 .text.HAL_TIMEx_ConfigBreakDeadTime
                0x0803dbb6       0x76 C:\PROGRA~2\VT3_8920\VT3\RESOUR~1\targets\CANVIEW4\lib\lld\libCANView4.a(stm32f4xx_hal_tim_ex.o)
                0x0803dbb6                HAL_TIMEx_ConfigBreakDeadTime
 .text.HAL_TIMEx_RemapConfig
                0x0803dc2c       0x46 C:\PROGRA~2\VT3_8920\VT3\RESOUR~1\targets\CANVIEW4\lib\lld\libCANView4.a(stm32f4xx_hal_tim_ex.o)
                0x0803dc2c                HAL_TIMEx_RemapConfig
 .text.HAL_TIMEx_CommutationCallback
                0x0803dc72       0x14 C:\PROGRA~2\VT3_8920\VT3\RESOUR~1\targets\CANVIEW4\lib\lld\libCANView4.a(stm32f4xx_hal_tim_ex.o)
                0x0803dc72                HAL_TIMEx_CommutationCallback
 .text.HAL_TIMEx_BreakCallback
                0x0803dc86       0x14 C:\PROGRA~2\VT3_8920\VT3\RESOUR~1\targets\CANVIEW4\lib\lld\libCANView4.a(stm32f4xx_hal_tim_ex.o)
                0x0803dc86                HAL_TIMEx_BreakCallback
 .text.HAL_TIMEx_HallSensor_GetState
                0x0803dc9a       0x1c C:\PROGRA~2\VT3_8920\VT3\RESOUR~1\targets\CANVIEW4\lib\lld\libCANView4.a(stm32f4xx_hal_tim_ex.o)
                0x0803dc9a                HAL_TIMEx_HallSensor_GetState
 .text.TIMEx_DMACommutationCplt
                0x0803dcb6       0x24 C:\PROGRA~2\VT3_8920\VT3\RESOUR~1\targets\CANVIEW4\lib\lld\libCANView4.a(stm32f4xx_hal_tim_ex.o)
                0x0803dcb6                TIMEx_DMACommutationCplt
 .text.TIM_CCxNChannelCmd
                0x0803dcda       0x46 C:\PROGRA~2\VT3_8920\VT3\RESOUR~1\targets\CANVIEW4\lib\lld\libCANView4.a(stm32f4xx_hal_tim_ex.o)
 .text.HAL_UART_Init
                0x0803dd20       0x92 C:\PROGRA~2\VT3_8920\VT3\RESOUR~1\targets\CANVIEW4\lib\lld\libCANView4.a(stm32f4xx_hal_uart.o)
                0x0803dd20                HAL_UART_Init
 .text.HAL_HalfDuplex_Init
                0x0803ddb2       0xa2 C:\PROGRA~2\VT3_8920\VT3\RESOUR~1\targets\CANVIEW4\lib\lld\libCANView4.a(stm32f4xx_hal_uart.o)
                0x0803ddb2                HAL_HalfDuplex_Init
 .text.HAL_LIN_Init
                0x0803de54       0xc4 C:\PROGRA~2\VT3_8920\VT3\RESOUR~1\targets\CANVIEW4\lib\lld\libCANView4.a(stm32f4xx_hal_uart.o)
                0x0803de54                HAL_LIN_Init
 .text.HAL_MultiProcessor_Init
                0x0803df18       0xd8 C:\PROGRA~2\VT3_8920\VT3\RESOUR~1\targets\CANVIEW4\lib\lld\libCANView4.a(stm32f4xx_hal_uart.o)
                0x0803df18                HAL_MultiProcessor_Init
 .text.HAL_UART_DeInit
                0x0803dff0       0x40 C:\PROGRA~2\VT3_8920\VT3\RESOUR~1\targets\CANVIEW4\lib\lld\libCANView4.a(stm32f4xx_hal_uart.o)
                0x0803dff0                HAL_UART_DeInit
 .text.HAL_UART_Transmit
                0x0803e030      0x152 C:\PROGRA~2\VT3_8920\VT3\RESOUR~1\targets\CANVIEW4\lib\lld\libCANView4.a(stm32f4xx_hal_uart.o)
                0x0803e030                HAL_UART_Transmit
 .text.HAL_UART_Receive
                0x0803e182      0x170 C:\PROGRA~2\VT3_8920\VT3\RESOUR~1\targets\CANVIEW4\lib\lld\libCANView4.a(stm32f4xx_hal_uart.o)
                0x0803e182                HAL_UART_Receive
 .text.HAL_UART_Transmit_IT
                0x0803e2f2       0xce C:\PROGRA~2\VT3_8920\VT3\RESOUR~1\targets\CANVIEW4\lib\lld\libCANView4.a(stm32f4xx_hal_uart.o)
                0x0803e2f2                HAL_UART_Transmit_IT
 .text.HAL_UART_Receive_IT
                0x0803e3c0       0xce C:\PROGRA~2\VT3_8920\VT3\RESOUR~1\targets\CANVIEW4\lib\lld\libCANView4.a(stm32f4xx_hal_uart.o)
                0x0803e3c0                HAL_UART_Receive_IT
 *fill*         0x0803e48e        0x2 
 .text.HAL_UART_Transmit_DMA
                0x0803e490       0xf4 C:\PROGRA~2\VT3_8920\VT3\RESOUR~1\targets\CANVIEW4\lib\lld\libCANView4.a(stm32f4xx_hal_uart.o)
                0x0803e490                HAL_UART_Transmit_DMA
 .text.HAL_UART_Receive_DMA
                0x0803e584       0xe4 C:\PROGRA~2\VT3_8920\VT3\RESOUR~1\targets\CANVIEW4\lib\lld\libCANView4.a(stm32f4xx_hal_uart.o)
                0x0803e584                HAL_UART_Receive_DMA
 .text.HAL_UART_DMAPause
                0x0803e668       0x9c C:\PROGRA~2\VT3_8920\VT3\RESOUR~1\targets\CANVIEW4\lib\lld\libCANView4.a(stm32f4xx_hal_uart.o)
                0x0803e668                HAL_UART_DMAPause
 .text.HAL_UART_DMAResume
                0x0803e704       0xc0 C:\PROGRA~2\VT3_8920\VT3\RESOUR~1\targets\CANVIEW4\lib\lld\libCANView4.a(stm32f4xx_hal_uart.o)
                0x0803e704                HAL_UART_DMAResume
 .text.HAL_UART_DMAStop
                0x0803e7c4       0x5e C:\PROGRA~2\VT3_8920\VT3\RESOUR~1\targets\CANVIEW4\lib\lld\libCANView4.a(stm32f4xx_hal_uart.o)
                0x0803e7c4                HAL_UART_DMAStop
 .text.HAL_UART_IRQHandler
                0x0803e822      0x1fa C:\PROGRA~2\VT3_8920\VT3\RESOUR~1\targets\CANVIEW4\lib\lld\libCANView4.a(stm32f4xx_hal_uart.o)
                0x0803e822                HAL_UART_IRQHandler
 .text.HAL_UART_TxCpltCallback
                0x0803ea1c       0x14 C:\PROGRA~2\VT3_8920\VT3\RESOUR~1\targets\CANVIEW4\lib\lld\libCANView4.a(stm32f4xx_hal_uart.o)
                0x0803ea1c                HAL_UART_TxCpltCallback
 .text.HAL_UART_TxHalfCpltCallback
                0x0803ea30       0x14 C:\PROGRA~2\VT3_8920\VT3\RESOUR~1\targets\CANVIEW4\lib\lld\libCANView4.a(stm32f4xx_hal_uart.o)
                0x0803ea30                HAL_UART_TxHalfCpltCallback
 .text.HAL_UART_RxCpltCallback
                0x0803ea44       0x14 C:\PROGRA~2\VT3_8920\VT3\RESOUR~1\targets\CANVIEW4\lib\lld\libCANView4.a(stm32f4xx_hal_uart.o)
 .text.HAL_UART_RxHalfCpltCallback
                0x0803ea58       0x14 C:\PROGRA~2\VT3_8920\VT3\RESOUR~1\targets\CANVIEW4\lib\lld\libCANView4.a(stm32f4xx_hal_uart.o)
                0x0803ea58                HAL_UART_RxHalfCpltCallback
 .text.HAL_UART_ErrorCallback
                0x0803ea6c       0x14 C:\PROGRA~2\VT3_8920\VT3\RESOUR~1\targets\CANVIEW4\lib\lld\libCANView4.a(stm32f4xx_hal_uart.o)
                0x0803ea6c                HAL_UART_ErrorCallback
 .text.HAL_LIN_SendBreak
                0x0803ea80       0x54 C:\PROGRA~2\VT3_8920\VT3\RESOUR~1\targets\CANVIEW4\lib\lld\libCANView4.a(stm32f4xx_hal_uart.o)
                0x0803ea80                HAL_LIN_SendBreak
 .text.HAL_MultiProcessor_EnterMuteMode
                0x0803ead4       0x54 C:\PROGRA~2\VT3_8920\VT3\RESOUR~1\targets\CANVIEW4\lib\lld\libCANView4.a(stm32f4xx_hal_uart.o)
                0x0803ead4                HAL_MultiProcessor_EnterMuteMode
 .text.HAL_MultiProcessor_ExitMuteMode
                0x0803eb28       0x54 C:\PROGRA~2\VT3_8920\VT3\RESOUR~1\targets\CANVIEW4\lib\lld\libCANView4.a(stm32f4xx_hal_uart.o)
                0x0803eb28                HAL_MultiProcessor_ExitMuteMode
 .text.HAL_HalfDuplex_EnableTransmitter
                0x0803eb7c       0x68 C:\PROGRA~2\VT3_8920\VT3\RESOUR~1\targets\CANVIEW4\lib\lld\libCANView4.a(stm32f4xx_hal_uart.o)
                0x0803eb7c                HAL_HalfDuplex_EnableTransmitter
 .text.HAL_HalfDuplex_EnableReceiver
                0x0803ebe4       0x68 C:\PROGRA~2\VT3_8920\VT3\RESOUR~1\targets\CANVIEW4\lib\lld\libCANView4.a(stm32f4xx_hal_uart.o)
                0x0803ebe4                HAL_HalfDuplex_EnableReceiver
 .text.HAL_UART_GetState
                0x0803ec4c       0x1c C:\PROGRA~2\VT3_8920\VT3\RESOUR~1\targets\CANVIEW4\lib\lld\libCANView4.a(stm32f4xx_hal_uart.o)
                0x0803ec4c                HAL_UART_GetState
 .text.HAL_UART_GetError
                0x0803ec68       0x18 C:\PROGRA~2\VT3_8920\VT3\RESOUR~1\targets\CANVIEW4\lib\lld\libCANView4.a(stm32f4xx_hal_uart.o)
                0x0803ec68                HAL_UART_GetError
 .text.UART_DMATransmitCplt
                0x0803ec80       0x52 C:\PROGRA~2\VT3_8920\VT3\RESOUR~1\targets\CANVIEW4\lib\lld\libCANView4.a(stm32f4xx_hal_uart.o)
 .text.UART_DMATxHalfCplt
                0x0803ecd2       0x1c C:\PROGRA~2\VT3_8920\VT3\RESOUR~1\targets\CANVIEW4\lib\lld\libCANView4.a(stm32f4xx_hal_uart.o)
 .text.UART_DMAReceiveCplt
                0x0803ecee       0x5e C:\PROGRA~2\VT3_8920\VT3\RESOUR~1\targets\CANVIEW4\lib\lld\libCANView4.a(stm32f4xx_hal_uart.o)
 .text.UART_DMARxHalfCplt
                0x0803ed4c       0x1c C:\PROGRA~2\VT3_8920\VT3\RESOUR~1\targets\CANVIEW4\lib\lld\libCANView4.a(stm32f4xx_hal_uart.o)
 .text.UART_DMAError
                0x0803ed68       0x3c C:\PROGRA~2\VT3_8920\VT3\RESOUR~1\targets\CANVIEW4\lib\lld\libCANView4.a(stm32f4xx_hal_uart.o)
 .text.UART_WaitOnFlagUntilTimeout
                0x0803eda4      0x132 C:\PROGRA~2\VT3_8920\VT3\RESOUR~1\targets\CANVIEW4\lib\lld\libCANView4.a(stm32f4xx_hal_uart.o)
 .text.UART_Transmit_IT
                0x0803eed6       0xba C:\PROGRA~2\VT3_8920\VT3\RESOUR~1\targets\CANVIEW4\lib\lld\libCANView4.a(stm32f4xx_hal_uart.o)
 .text.UART_EndTransmit_IT
                0x0803ef90       0x66 C:\PROGRA~2\VT3_8920\VT3\RESOUR~1\targets\CANVIEW4\lib\lld\libCANView4.a(stm32f4xx_hal_uart.o)
 .text.UART_Receive_IT
                0x0803eff6      0x126 C:\PROGRA~2\VT3_8920\VT3\RESOUR~1\targets\CANVIEW4\lib\lld\libCANView4.a(stm32f4xx_hal_uart.o)
 .text.UART_SetConfig
                0x0803f11c      0x2d8 C:\PROGRA~2\VT3_8920\VT3\RESOUR~1\targets\CANVIEW4\lib\lld\libCANView4.a(stm32f4xx_hal_uart.o)
 .text.USB_CoreInit
                0x0803f3f4       0xa2 C:\PROGRA~2\VT3_8920\VT3\RESOUR~1\targets\CANVIEW4\lib\lld\libCANView4.a(stm32f4xx_ll_usb.o)
                0x0803f3f4                USB_CoreInit
 .text.USB_EnableGlobalInt
                0x0803f496       0x22 C:\PROGRA~2\VT3_8920\VT3\RESOUR~1\targets\CANVIEW4\lib\lld\libCANView4.a(stm32f4xx_ll_usb.o)
                0x0803f496                USB_EnableGlobalInt
 .text.USB_DisableGlobalInt
                0x0803f4b8       0x22 C:\PROGRA~2\VT3_8920\VT3\RESOUR~1\targets\CANVIEW4\lib\lld\libCANView4.a(stm32f4xx_ll_usb.o)
                0x0803f4b8                USB_DisableGlobalInt
 .text.USB_SetCurrentMode
                0x0803f4da       0x4e C:\PROGRA~2\VT3_8920\VT3\RESOUR~1\targets\CANVIEW4\lib\lld\libCANView4.a(stm32f4xx_ll_usb.o)
                0x0803f4da                USB_SetCurrentMode
 .text.USB_DevInit
                0x0803f528      0x260 C:\PROGRA~2\VT3_8920\VT3\RESOUR~1\targets\CANVIEW4\lib\lld\libCANView4.a(stm32f4xx_ll_usb.o)
                0x0803f528                USB_DevInit
 .text.USB_FlushTxFifo
                0x0803f788       0x4c C:\PROGRA~2\VT3_8920\VT3\RESOUR~1\targets\CANVIEW4\lib\lld\libCANView4.a(stm32f4xx_ll_usb.o)
                0x0803f788                USB_FlushTxFifo
 .text.USB_FlushRxFifo
                0x0803f7d4       0x44 C:\PROGRA~2\VT3_8920\VT3\RESOUR~1\targets\CANVIEW4\lib\lld\libCANView4.a(stm32f4xx_ll_usb.o)
                0x0803f7d4                USB_FlushRxFifo
 .text.USB_SetDevSpeed
                0x0803f818       0x2e C:\PROGRA~2\VT3_8920\VT3\RESOUR~1\targets\CANVIEW4\lib\lld\libCANView4.a(stm32f4xx_ll_usb.o)
                0x0803f818                USB_SetDevSpeed
 .text.USB_GetDevSpeed
                0x0803f846       0x6a C:\PROGRA~2\VT3_8920\VT3\RESOUR~1\targets\CANVIEW4\lib\lld\libCANView4.a(stm32f4xx_ll_usb.o)
                0x0803f846                USB_GetDevSpeed
 .text.USB_ActivateEndpoint
                0x0803f8b0      0x10c C:\PROGRA~2\VT3_8920\VT3\RESOUR~1\targets\CANVIEW4\lib\lld\libCANView4.a(stm32f4xx_ll_usb.o)
                0x0803f8b0                USB_ActivateEndpoint
 .text.USB_ActivateDedicatedEndpoint
                0x0803f9bc      0x184 C:\PROGRA~2\VT3_8920\VT3\RESOUR~1\targets\CANVIEW4\lib\lld\libCANView4.a(stm32f4xx_ll_usb.o)
                0x0803f9bc                USB_ActivateDedicatedEndpoint
 .text.USB_DeactivateEndpoint
                0x0803fb40       0xea C:\PROGRA~2\VT3_8920\VT3\RESOUR~1\targets\CANVIEW4\lib\lld\libCANView4.a(stm32f4xx_ll_usb.o)
                0x0803fb40                USB_DeactivateEndpoint
 .text.USB_DeactivateDedicatedEndpoint
                0x0803fc2a       0xaa C:\PROGRA~2\VT3_8920\VT3\RESOUR~1\targets\CANVIEW4\lib\lld\libCANView4.a(stm32f4xx_ll_usb.o)
                0x0803fc2a                USB_DeactivateDedicatedEndpoint
 .text.USB_EPStartXfer
                0x0803fcd4      0x45c C:\PROGRA~2\VT3_8920\VT3\RESOUR~1\targets\CANVIEW4\lib\lld\libCANView4.a(stm32f4xx_ll_usb.o)
                0x0803fcd4                USB_EPStartXfer
 .text.USB_EP0StartXfer
                0x08040130      0x2a2 C:\PROGRA~2\VT3_8920\VT3\RESOUR~1\targets\CANVIEW4\lib\lld\libCANView4.a(stm32f4xx_ll_usb.o)
                0x08040130                USB_EP0StartXfer
 .text.USB_WritePacket
                0x080403d2       0x70 C:\PROGRA~2\VT3_8920\VT3\RESOUR~1\targets\CANVIEW4\lib\lld\libCANView4.a(stm32f4xx_ll_usb.o)
                0x080403d2                USB_WritePacket
 .text.USB_ReadPacket
                0x08040442       0x54 C:\PROGRA~2\VT3_8920\VT3\RESOUR~1\targets\CANVIEW4\lib\lld\libCANView4.a(stm32f4xx_ll_usb.o)
                0x08040442                USB_ReadPacket
 .text.USB_EPSetStall
                0x08040496       0xda C:\PROGRA~2\VT3_8920\VT3\RESOUR~1\targets\CANVIEW4\lib\lld\libCANView4.a(stm32f4xx_ll_usb.o)
                0x08040496                USB_EPSetStall
 .text.USB_EPClearStall
                0x08040570       0xd2 C:\PROGRA~2\VT3_8920\VT3\RESOUR~1\targets\CANVIEW4\lib\lld\libCANView4.a(stm32f4xx_ll_usb.o)
                0x08040570                USB_EPClearStall
 .text.USB_StopDevice
                0x08040642       0x88 C:\PROGRA~2\VT3_8920\VT3\RESOUR~1\targets\CANVIEW4\lib\lld\libCANView4.a(stm32f4xx_ll_usb.o)
                0x08040642                USB_StopDevice
 .text.USB_SetDevAddress
                0x080406ca       0x48 C:\PROGRA~2\VT3_8920\VT3\RESOUR~1\targets\CANVIEW4\lib\lld\libCANView4.a(stm32f4xx_ll_usb.o)
                0x080406ca                USB_SetDevAddress
 .text.USB_DevConnect
                0x08040712       0x2c C:\PROGRA~2\VT3_8920\VT3\RESOUR~1\targets\CANVIEW4\lib\lld\libCANView4.a(stm32f4xx_ll_usb.o)
                0x08040712                USB_DevConnect
 .text.USB_DevDisconnect
                0x0804073e       0x2c C:\PROGRA~2\VT3_8920\VT3\RESOUR~1\targets\CANVIEW4\lib\lld\libCANView4.a(stm32f4xx_ll_usb.o)
                0x0804073e                USB_DevDisconnect
 .text.USB_ReadInterrupts
                0x0804076a       0x2a C:\PROGRA~2\VT3_8920\VT3\RESOUR~1\targets\CANVIEW4\lib\lld\libCANView4.a(stm32f4xx_ll_usb.o)
                0x0804076a                USB_ReadInterrupts
 .text.USB_ReadDevAllOutEpInterrupt
                0x08040794       0x30 C:\PROGRA~2\VT3_8920\VT3\RESOUR~1\targets\CANVIEW4\lib\lld\libCANView4.a(stm32f4xx_ll_usb.o)
                0x08040794                USB_ReadDevAllOutEpInterrupt
 .text.USB_ReadDevAllInEpInterrupt
                0x080407c4       0x30 C:\PROGRA~2\VT3_8920\VT3\RESOUR~1\targets\CANVIEW4\lib\lld\libCANView4.a(stm32f4xx_ll_usb.o)
                0x080407c4                USB_ReadDevAllInEpInterrupt
 .text.USB_ReadDevOutEPInterrupt
                0x080407f4       0x38 C:\PROGRA~2\VT3_8920\VT3\RESOUR~1\targets\CANVIEW4\lib\lld\libCANView4.a(stm32f4xx_ll_usb.o)
                0x080407f4                USB_ReadDevOutEPInterrupt
 .text.USB_ReadDevInEPInterrupt
                0x0804082c       0x54 C:\PROGRA~2\VT3_8920\VT3\RESOUR~1\targets\CANVIEW4\lib\lld\libCANView4.a(stm32f4xx_ll_usb.o)
                0x0804082c                USB_ReadDevInEPInterrupt
 .text.USB_ClearInterrupts
                0x08040880       0x22 C:\PROGRA~2\VT3_8920\VT3\RESOUR~1\targets\CANVIEW4\lib\lld\libCANView4.a(stm32f4xx_ll_usb.o)
                0x08040880                USB_ClearInterrupts
 .text.USB_GetMode
                0x080408a2       0x1c C:\PROGRA~2\VT3_8920\VT3\RESOUR~1\targets\CANVIEW4\lib\lld\libCANView4.a(stm32f4xx_ll_usb.o)
                0x080408a2                USB_GetMode
 .text.USB_ActivateSetup
                0x080408be       0x66 C:\PROGRA~2\VT3_8920\VT3\RESOUR~1\targets\CANVIEW4\lib\lld\libCANView4.a(stm32f4xx_ll_usb.o)
                0x080408be                USB_ActivateSetup
 .text.USB_EP0_OutStart
                0x08040924       0x84 C:\PROGRA~2\VT3_8920\VT3\RESOUR~1\targets\CANVIEW4\lib\lld\libCANView4.a(stm32f4xx_ll_usb.o)
                0x08040924                USB_EP0_OutStart
 .text.USB_CoreReset
                0x080409a8       0x68 C:\PROGRA~2\VT3_8920\VT3\RESOUR~1\targets\CANVIEW4\lib\lld\libCANView4.a(stm32f4xx_ll_usb.o)
 .text.USB_HostInit
                0x08040a10      0x154 C:\PROGRA~2\VT3_8920\VT3\RESOUR~1\targets\CANVIEW4\lib\lld\libCANView4.a(stm32f4xx_ll_usb.o)
                0x08040a10                USB_HostInit
 .text.USB_InitFSLSPClkSel
                0x08040b64       0x70 C:\PROGRA~2\VT3_8920\VT3\RESOUR~1\targets\CANVIEW4\lib\lld\libCANView4.a(stm32f4xx_ll_usb.o)
                0x08040b64                USB_InitFSLSPClkSel
 .text.USB_ResetPort
                0x08040bd4       0x46 C:\PROGRA~2\VT3_8920\VT3\RESOUR~1\targets\CANVIEW4\lib\lld\libCANView4.a(stm32f4xx_ll_usb.o)
                0x08040bd4                USB_ResetPort
 .text.USB_DriveVbus
                0x08040c1a       0x6a C:\PROGRA~2\VT3_8920\VT3\RESOUR~1\targets\CANVIEW4\lib\lld\libCANView4.a(stm32f4xx_ll_usb.o)
                0x08040c1a                USB_DriveVbus
 .text.USB_GetHostSpeed
                0x08040c84       0x26 C:\PROGRA~2\VT3_8920\VT3\RESOUR~1\targets\CANVIEW4\lib\lld\libCANView4.a(stm32f4xx_ll_usb.o)
                0x08040c84                USB_GetHostSpeed
 .text.USB_GetCurrentFrame
                0x08040caa       0x1e C:\PROGRA~2\VT3_8920\VT3\RESOUR~1\targets\CANVIEW4\lib\lld\libCANView4.a(stm32f4xx_ll_usb.o)
                0x08040caa                USB_GetCurrentFrame
 .text.USB_HC_Init
                0x08040cc8      0x1e4 C:\PROGRA~2\VT3_8920\VT3\RESOUR~1\targets\CANVIEW4\lib\lld\libCANView4.a(stm32f4xx_ll_usb.o)
                0x08040cc8                USB_HC_Init
 .text.USB_HC_StartXfer
                0x08040eac      0x274 C:\PROGRA~2\VT3_8920\VT3\RESOUR~1\targets\CANVIEW4\lib\lld\libCANView4.a(stm32f4xx_ll_usb.o)
                0x08040eac                USB_HC_StartXfer
 .text.USB_HC_ReadInterrupt
                0x08041120       0x1e C:\PROGRA~2\VT3_8920\VT3\RESOUR~1\targets\CANVIEW4\lib\lld\libCANView4.a(stm32f4xx_ll_usb.o)
                0x08041120                USB_HC_ReadInterrupt
 .text.USB_HC_Halt
                0x0804113e      0x1f4 C:\PROGRA~2\VT3_8920\VT3\RESOUR~1\targets\CANVIEW4\lib\lld\libCANView4.a(stm32f4xx_ll_usb.o)
                0x0804113e                USB_HC_Halt
 *fill*         0x08041332        0x2 
 .text.USB_DoPing
                0x08041334       0x74 C:\PROGRA~2\VT3_8920\VT3\RESOUR~1\targets\CANVIEW4\lib\lld\libCANView4.a(stm32f4xx_ll_usb.o)
                0x08041334                USB_DoPing
 .text.USB_StopHost
                0x080413a8      0x108 C:\PROGRA~2\VT3_8920\VT3\RESOUR~1\targets\CANVIEW4\lib\lld\libCANView4.a(stm32f4xx_ll_usb.o)
                0x080413a8                USB_StopHost
 .text.CRC16_EncodeBuffer
                0x080414b0       0x68 C:\PROGRA~2\VT3_8920\VT3\RESOUR~1\targets\CANVIEW4\lib\lld\libCANView4.a(CRC16.o)
                0x080414b0                CRC16_EncodeBuffer
 .text.CRC16_Update
                0x08041518       0x64 C:\PROGRA~2\VT3_8920\VT3\RESOUR~1\targets\CANVIEW4\lib\lld\libCANView4.a(CRC16.o)
                0x08041518                CRC16_Update
 .text.Camera_Init
                0x0804157c       0x30 C:\PROGRA~2\VT3_8920\VT3\RESOUR~1\targets\CANVIEW4\lib\lld\libCANView4.a(Camera.o)
                0x0804157c                Camera_Init
 .text.Convert_YCrCb_to_RGB888
                0x080415ac       0xb0 C:\PROGRA~2\VT3_8920\VT3\RESOUR~1\targets\CANVIEW4\lib\lld\libCANView4.a(Camera.o)
                0x080415ac                Convert_YCrCb_to_RGB888
 .text.HAL_DCMI_VsyncEventCallback
                0x0804165c        0x4 C:\PROGRA~2\VT3_8920\VT3\RESOUR~1\targets\CANVIEW4\lib\lld\libCANView4.a(Camera.o)
                0x0804165c                HAL_DCMI_VsyncEventCallback
 .text.HAL_DCMI_LineEventCallback
                0x08041660        0x4 C:\PROGRA~2\VT3_8920\VT3\RESOUR~1\targets\CANVIEW4\lib\lld\libCANView4.a(Camera.o)
                0x08041660                HAL_DCMI_LineEventCallback
 .text.HAL_DCMI_FrameEventCallback
                0x08041664       0x60 C:\PROGRA~2\VT3_8920\VT3\RESOUR~1\targets\CANVIEW4\lib\lld\libCANView4.a(Camera.o)
                0x08041664                HAL_DCMI_FrameEventCallback
 .text.Init_Camera_Acquisition
                0x080416c4       0x4c C:\PROGRA~2\VT3_8920\VT3\RESOUR~1\targets\CANVIEW4\lib\lld\libCANView4.a(Camera.o)
                0x080416c4                Init_Camera_Acquisition
 .text.Capture_CameraFrame
                0x08041710       0x68 C:\PROGRA~2\VT3_8920\VT3\RESOUR~1\targets\CANVIEW4\lib\lld\libCANView4.a(Camera.o)
                0x08041710                Capture_CameraFrame
 .text.Stop_Capture
                0x08041778       0x28 C:\PROGRA~2\VT3_8920\VT3\RESOUR~1\targets\CANVIEW4\lib\lld\libCANView4.a(Camera.o)
                0x08041778                Stop_Capture
 .text.Switch_Camera_Buffers
                0x080417a0       0x48 C:\PROGRA~2\VT3_8920\VT3\RESOUR~1\targets\CANVIEW4\lib\lld\libCANView4.a(Camera.o)
                0x080417a0                Switch_Camera_Buffers
 .text.Draw_CameraFrame
                0x080417e8       0xc8 C:\PROGRA~2\VT3_8920\VT3\RESOUR~1\targets\CANVIEW4\lib\lld\libCANView4.a(Camera.o)
                0x080417e8                Draw_CameraFrame
 .text.EL_Init  0x080418b0      0x17c C:\PROGRA~2\VT3_8920\VT3\RESOUR~1\targets\CANVIEW4\lib\lld\libCANView4.a(CANView4_Event_Log.o)
                0x080418b0                EL_Init
 .text.EL_ReadRecord
                0x08041a2c      0x12c C:\PROGRA~2\VT3_8920\VT3\RESOUR~1\targets\CANVIEW4\lib\lld\libCANView4.a(CANView4_Event_Log.o)
                0x08041a2c                EL_ReadRecord
 .text.EL_WriteRecord
                0x08041b58      0x1a4 C:\PROGRA~2\VT3_8920\VT3\RESOUR~1\targets\CANVIEW4\lib\lld\libCANView4.a(CANView4_Event_Log.o)
                0x08041b58                EL_WriteRecord
 .text.EL_Format
                0x08041cfc       0x8c C:\PROGRA~2\VT3_8920\VT3\RESOUR~1\targets\CANVIEW4\lib\lld\libCANView4.a(CANView4_Event_Log.o)
                0x08041cfc                EL_Format
 .text.CANView4_EL_Print
                0x08041d88      0x37c C:\PROGRA~2\VT3_8920\VT3\RESOUR~1\targets\CANVIEW4\lib\lld\libCANView4.a(CANView4_Event_Log.o)
                0x08041d88                CANView4_EL_Print
 .text.GetMonhtName
                0x08042104      0x120 C:\PROGRA~2\VT3_8920\VT3\RESOUR~1\targets\CANVIEW4\lib\lld\libCANView4.a(CANView4_Event_Log.o)
                0x08042104                GetMonhtName
 .text.GetDayName
                0x08042224       0xac C:\PROGRA~2\VT3_8920\VT3\RESOUR~1\targets\CANVIEW4\lib\lld\libCANView4.a(CANView4_Event_Log.o)
                0x08042224                GetDayName
 .text.EL_TEST  0x080422d0      0x144 C:\PROGRA~2\VT3_8920\VT3\RESOUR~1\targets\CANVIEW4\lib\lld\libCANView4.a(CANView4_Event_Log.o)
                0x080422d0                EL_TEST
 .text.Is_Record_Empty
                0x08042414       0x54 C:\PROGRA~2\VT3_8920\VT3\RESOUR~1\targets\CANVIEW4\lib\lld\libCANView4.a(CANView4_Event_Log.o)
                0x08042414                Is_Record_Empty
 .text.EL_crc16
                0x08042468       0x24 C:\PROGRA~2\VT3_8920\VT3\RESOUR~1\targets\CANVIEW4\lib\lld\libCANView4.a(CANView4_Event_Log.o)
                0x08042468                EL_crc16
 .text.EL_Find_Marker
                0x0804248c      0x10c C:\PROGRA~2\VT3_8920\VT3\RESOUR~1\targets\CANVIEW4\lib\lld\libCANView4.a(CANView4_Event_Log.o)
                0x0804248c                EL_Find_Marker
 .text.HardFault_Handler
                0x08042598       0x1a C:\PROGRA~2\VT3_8920\VT3\RESOUR~1\targets\CANVIEW4\lib\lld\libCANView4.a(CANView4_HW_lib.o)
                0x08042598                HardFault_Handler
 *fill*         0x080425b2        0x2 
 .text.prvGetRegistersFromStack
                0x080425b4       0xd8 C:\PROGRA~2\VT3_8920\VT3\RESOUR~1\targets\CANVIEW4\lib\lld\libCANView4.a(CANView4_HW_lib.o)
                0x080425b4                prvGetRegistersFromStack
 .text.CANView4_HEAP_get_free_space
                0x0804268c        0xe C:\PROGRA~2\VT3_8920\VT3\RESOUR~1\targets\CANVIEW4\lib\lld\libCANView4.a(CANView4_HW_lib.o)
                0x0804268c                CANView4_HEAP_get_free_space
 *fill*         0x0804269a        0x2 
 .text.CANView4_HW_Init
                0x0804269c       0xfc C:\PROGRA~2\VT3_8920\VT3\RESOUR~1\targets\CANVIEW4\lib\lld\libCANView4.a(CANView4_HW_lib.o)
                0x0804269c                CANView4_HW_Init
 .text.GetHWversion
                0x08042798       0x60 C:\PROGRA~2\VT3_8920\VT3\RESOUR~1\targets\CANVIEW4\lib\lld\libCANView4.a(CANView4_HW_lib.o)
                0x08042798                GetHWversion
 .text.Init_CAN_FWUPD_lib
                0x080427f8       0x20 C:\PROGRA~2\VT3_8920\VT3\RESOUR~1\targets\CANVIEW4\lib\lld\libCANView4.a(CANView4_HW_lib.o)
                0x080427f8                Init_CAN_FWUPD_lib
 .text.Read_command
                0x08042818       0x2c C:\PROGRA~2\VT3_8920\VT3\RESOUR~1\targets\CANVIEW4\lib\lld\libCANView4.a(CANView4_HW_lib.o)
                0x08042818                Read_command
 .text.Send_command
                0x08042844       0x28 C:\PROGRA~2\VT3_8920\VT3\RESOUR~1\targets\CANVIEW4\lib\lld\libCANView4.a(CANView4_HW_lib.o)
                0x08042844                Send_command
 .text.Reset_command
                0x0804286c       0x20 C:\PROGRA~2\VT3_8920\VT3\RESOUR~1\targets\CANVIEW4\lib\lld\libCANView4.a(CANView4_HW_lib.o)
                0x0804286c                Reset_command
 .text.Store_Info_on_BKUReg
                0x0804288c       0x38 C:\PROGRA~2\VT3_8920\VT3\RESOUR~1\targets\CANVIEW4\lib\lld\libCANView4.a(CANView4_HW_lib.o)
                0x0804288c                Store_Info_on_BKUReg
 .text.AppForceUpdate
                0x080428c4       0x48 C:\PROGRA~2\VT3_8920\VT3\RESOUR~1\targets\CANVIEW4\lib\lld\libCANView4.a(CANView4_HW_lib.o)
                0x080428c4                AppForceUpdate
 .text.HAL_GPIO_EXTI_Callback
                0x0804290c       0x54 C:\PROGRA~2\VT3_8920\VT3\RESOUR~1\targets\CANVIEW4\lib\lld\libCANView4.a(CANView4_HW_lib.o)
                0x0804290c                HAL_GPIO_EXTI_Callback
 .text.Set_Key_Mode
                0x08042960       0x44 C:\PROGRA~2\VT3_8920\VT3\RESOUR~1\targets\CANVIEW4\lib\lld\libCANView4.a(CANView4_HW_lib.o)
                0x08042960                Set_Key_Mode
 .text.Read_Key
                0x080429a4       0x18 C:\PROGRA~2\VT3_8920\VT3\RESOUR~1\targets\CANVIEW4\lib\lld\libCANView4.a(CANView4_HW_lib.o)
                0x080429a4                Read_Key
 .text.USB_VBUS_Enable
                0x080429bc       0x18 C:\PROGRA~2\VT3_8920\VT3\RESOUR~1\targets\CANVIEW4\lib\lld\libCANView4.a(CANView4_HW_lib.o)
                0x080429bc                USB_VBUS_Enable
 .text.USB_VBUS_Disable
                0x080429d4       0x18 C:\PROGRA~2\VT3_8920\VT3\RESOUR~1\targets\CANVIEW4\lib\lld\libCANView4.a(CANView4_HW_lib.o)
                0x080429d4                USB_VBUS_Disable
 .text.CANView4_Power_OFF
                0x080429ec       0x34 C:\PROGRA~2\VT3_8920\VT3\RESOUR~1\targets\CANVIEW4\lib\lld\libCANView4.a(CANView4_HW_lib.o)
                0x080429ec                CANView4_Power_OFF
 .text.Power_OFF_Task
                0x08042a20       0x88 C:\PROGRA~2\VT3_8920\VT3\RESOUR~1\targets\CANVIEW4\lib\lld\libCANView4.a(CANView4_HW_lib.o)
                0x08042a20                Power_OFF_Task
 .text.Display_ON
                0x08042aa8       0x18 C:\PROGRA~2\VT3_8920\VT3\RESOUR~1\targets\CANVIEW4\lib\lld\libCANView4.a(CANView4_HW_lib.o)
                0x08042aa8                Display_ON
 .text.Display_OFF
                0x08042ac0       0x18 C:\PROGRA~2\VT3_8920\VT3\RESOUR~1\targets\CANVIEW4\lib\lld\libCANView4.a(CANView4_HW_lib.o)
                0x08042ac0                Display_OFF
 .text.CAN1_Sleep_mode_ON
                0x08042ad8       0x18 C:\PROGRA~2\VT3_8920\VT3\RESOUR~1\targets\CANVIEW4\lib\lld\libCANView4.a(CANView4_HW_lib.o)
                0x08042ad8                CAN1_Sleep_mode_ON
 .text.CAN1_Sleep_mode_OFF
                0x08042af0       0x18 C:\PROGRA~2\VT3_8920\VT3\RESOUR~1\targets\CANVIEW4\lib\lld\libCANView4.a(CANView4_HW_lib.o)
                0x08042af0                CAN1_Sleep_mode_OFF
 .text.Set_Display_BL_ON
                0x08042b08       0x14 C:\PROGRA~2\VT3_8920\VT3\RESOUR~1\targets\CANVIEW4\lib\lld\libCANView4.a(CANView4_HW_lib.o)
                0x08042b08                Set_Display_BL_ON
 .text.Set_Display_BL_OFF
                0x08042b1c       0x14 C:\PROGRA~2\VT3_8920\VT3\RESOUR~1\targets\CANVIEW4\lib\lld\libCANView4.a(CANView4_HW_lib.o)
                0x08042b1c                Set_Display_BL_OFF
 .text.Set_Key_BL_ON
                0x08042b30       0x14 C:\PROGRA~2\VT3_8920\VT3\RESOUR~1\targets\CANVIEW4\lib\lld\libCANView4.a(CANView4_HW_lib.o)
                0x08042b30                Set_Key_BL_ON
 .text.Set_Key_BL_OFF
                0x08042b44       0x14 C:\PROGRA~2\VT3_8920\VT3\RESOUR~1\targets\CANVIEW4\lib\lld\libCANView4.a(CANView4_HW_lib.o)
                0x08042b44                Set_Key_BL_OFF
 .text.Check_Buzzer_Voltage
                0x08042b58       0x40 C:\PROGRA~2\VT3_8920\VT3\RESOUR~1\targets\CANVIEW4\lib\lld\libCANView4.a(CANView4_HW_lib.o)
                0x08042b58                Check_Buzzer_Voltage
 .text.SetBackLight
                0x08042b98       0x60 C:\PROGRA~2\VT3_8920\VT3\RESOUR~1\targets\CANVIEW4\lib\lld\libCANView4.a(CANView4_HW_lib.o)
                0x08042b98                SetBackLight
 .text.SetKeyBackLight
                0x08042bf8       0x74 C:\PROGRA~2\VT3_8920\VT3\RESOUR~1\targets\CANVIEW4\lib\lld\libCANView4.a(CANView4_HW_lib.o)
                0x08042bf8                SetKeyBackLight
 .text.WriteBuzzer
                0x08042c6c       0x38 C:\PROGRA~2\VT3_8920\VT3\RESOUR~1\targets\CANVIEW4\lib\lld\libCANView4.a(CANView4_HW_lib.o)
                0x08042c6c                WriteBuzzer
 .text.ReadButton
                0x08042ca4       0x6c C:\PROGRA~2\VT3_8920\VT3\RESOUR~1\targets\CANVIEW4\lib\lld\libCANView4.a(CANView4_HW_lib.o)
                0x08042ca4                ReadButton
 .text.NearMemCopy
                0x08042d10       0x22 C:\PROGRA~2\VT3_8920\VT3\RESOUR~1\targets\CANVIEW4\lib\lld\libCANView4.a(CANView4_HW_lib.o)
                0x08042d10                NearMemCopy
 .text.FarMemCopy
                0x08042d32       0x1e C:\PROGRA~2\VT3_8920\VT3\RESOUR~1\targets\CANVIEW4\lib\lld\libCANView4.a(CANView4_HW_lib.o)
                0x08042d32                FarMemCopy
 .text.FarMemSet
                0x08042d50       0x22 C:\PROGRA~2\VT3_8920\VT3\RESOUR~1\targets\CANVIEW4\lib\lld\libCANView4.a(CANView4_HW_lib.o)
                0x08042d50                FarMemSet
 .text.VT3_malloc
                0x08042d72       0x18 C:\PROGRA~2\VT3_8920\VT3\RESOUR~1\targets\CANVIEW4\lib\lld\libCANView4.a(CANView4_HW_lib.o)
                0x08042d72                VT3_malloc
 .text.VT3_free
                0x08042d8a       0x16 C:\PROGRA~2\VT3_8920\VT3\RESOUR~1\targets\CANVIEW4\lib\lld\libCANView4.a(CANView4_HW_lib.o)
                0x08042d8a                VT3_free
 .text.CPUForceReset
                0x08042da0        0xc C:\PROGRA~2\VT3_8920\VT3\RESOUR~1\targets\CANVIEW4\lib\lld\libCANView4.a(CANView4_HW_lib.o)
                0x08042da0                CPUForceReset
 .text.read_VA  0x08042dac       0x28 C:\PROGRA~2\VT3_8920\VT3\RESOUR~1\targets\CANVIEW4\lib\lld\libCANView4.a(CANView4_HW_lib.o)
                0x08042dac                read_VA
 .text.EnterCritical
                0x08042dd4       0x10 C:\PROGRA~2\VT3_8920\VT3\RESOUR~1\targets\CANVIEW4\lib\lld\libCANView4.a(CANView4_HW_lib.o)
                0x08042dd4                EnterCritical
 .text.ExitCritical
                0x08042de4       0x10 C:\PROGRA~2\VT3_8920\VT3\RESOUR~1\targets\CANVIEW4\lib\lld\libCANView4.a(CANView4_HW_lib.o)
                0x08042de4                ExitCritical
 .text.TimerInit
                0x08042df4       0x1e C:\PROGRA~2\VT3_8920\VT3\RESOUR~1\targets\CANVIEW4\lib\lld\libCANView4.a(CANView4_HW_lib.o)
                0x08042df4                TimerInit
 .text.EEPROM_Read_Status
                0x08042e12       0x48 C:\PROGRA~2\VT3_8920\VT3\RESOUR~1\targets\CANVIEW4\lib\lld\libCANView4.a(CANView4_Mem_EEPROM.o)
                0x08042e12                EEPROM_Read_Status
 *fill*         0x08042e5a        0x2 
 .text.Get_Copy_from_EXT_FLASH_to_RAM_Result
                0x08042e5c       0x18 C:\PROGRA~2\VT3_8920\VT3\RESOUR~1\targets\CANVIEW4\lib\lld\libCANView4.a(CANView4_Mem_EXT_FLASH.o)
                0x08042e5c                Get_Copy_from_EXT_FLASH_to_RAM_Result
 .text.Get_RetryCounter_Copy_EXT_FLASH_to_RAM
                0x08042e74       0x18 C:\PROGRA~2\VT3_8920\VT3\RESOUR~1\targets\CANVIEW4\lib\lld\libCANView4.a(CANView4_Mem_EXT_FLASH.o)
                0x08042e74                Get_RetryCounter_Copy_EXT_FLASH_to_RAM
 .text.Check_External_Flash_Status
                0x08042e8c       0x30 C:\PROGRA~2\VT3_8920\VT3\RESOUR~1\targets\CANVIEW4\lib\lld\libCANView4.a(CANView4_Mem_EXT_FLASH.o)
                0x08042e8c                Check_External_Flash_Status
 .text.Copy_from_EXT_FLASH_to_RAM
                0x08042ebc      0x100 C:\PROGRA~2\VT3_8920\VT3\RESOUR~1\targets\CANVIEW4\lib\lld\libCANView4.a(CANView4_Mem_EXT_FLASH.o)
                0x08042ebc                Copy_from_EXT_FLASH_to_RAM
 .text.ExtFlash_copy_task
                0x08042fbc       0x30 C:\PROGRA~2\VT3_8920\VT3\RESOUR~1\targets\CANVIEW4\lib\lld\libCANView4.a(CANView4_Mem_EXT_FLASH.o)
                0x08042fbc                ExtFlash_copy_task
 .text.Check_ExtFlash_Transfer
                0x08042fec       0x18 C:\PROGRA~2\VT3_8920\VT3\RESOUR~1\targets\CANVIEW4\lib\lld\libCANView4.a(CANView4_Mem_EXT_FLASH.o)
                0x08042fec                Check_ExtFlash_Transfer
 .text.GetSWversion
                0x08043004       0x54 C:\PROGRA~2\VT3_8920\VT3\RESOUR~1\targets\CANVIEW4\lib\lld\libCANView4.a(CANView4_Node.o)
                0x08043004                GetSWversion
 .text.GetBLversion
                0x08043058       0x54 C:\PROGRA~2\VT3_8920\VT3\RESOUR~1\targets\CANVIEW4\lib\lld\libCANView4.a(CANView4_Node.o)
                0x08043058                GetBLversion
 .text.GetNodeID
                0x080430ac       0x38 C:\PROGRA~2\VT3_8920\VT3\RESOUR~1\targets\CANVIEW4\lib\lld\libCANView4.a(CANView4_Node.o)
                0x080430ac                GetNodeID
 .text.SetNodeID
                0x080430e4       0x6c C:\PROGRA~2\VT3_8920\VT3\RESOUR~1\targets\CANVIEW4\lib\lld\libCANView4.a(CANView4_Node.o)
                0x080430e4                SetNodeID
 .text.GetCanBaud
                0x08043150       0x38 C:\PROGRA~2\VT3_8920\VT3\RESOUR~1\targets\CANVIEW4\lib\lld\libCANView4.a(CANView4_Node.o)
                0x08043150                GetCanBaud
 .text.SetCanBaud
                0x08043188       0x98 C:\PROGRA~2\VT3_8920\VT3\RESOUR~1\targets\CANVIEW4\lib\lld\libCANView4.a(CANView4_Node.o)
                0x08043188                SetCanBaud
 .text.SystemClock_Config
                0x08043220       0xe4 C:\PROGRA~2\VT3_8920\VT3\RESOUR~1\targets\CANVIEW4\lib\lld\libCANView4.a(CANView4_STM_periphs_lib.o)
                0x08043220                SystemClock_Config
 .text.RTC_MEM_Init
                0x08043304       0x2c C:\PROGRA~2\VT3_8920\VT3\RESOUR~1\targets\CANVIEW4\lib\lld\libCANView4.a(CANView4_STM_periphs_lib.o)
                0x08043304                RTC_MEM_Init
 .text.MX_ADC1_Init
                0x08043330       0x7c C:\PROGRA~2\VT3_8920\VT3\RESOUR~1\targets\CANVIEW4\lib\lld\libCANView4.a(CANView4_STM_periphs_lib.o)
                0x08043330                MX_ADC1_Init
 .text.MX_DCMI_Init
                0x080433ac       0x40 C:\PROGRA~2\VT3_8920\VT3\RESOUR~1\targets\CANVIEW4\lib\lld\libCANView4.a(CANView4_STM_periphs_lib.o)
                0x080433ac                MX_DCMI_Init
 .text.MX_DMA2D_Init
                0x080433ec       0x50 C:\PROGRA~2\VT3_8920\VT3\RESOUR~1\targets\CANVIEW4\lib\lld\libCANView4.a(CANView4_STM_periphs_lib.o)
                0x080433ec                MX_DMA2D_Init
 .text.MX_I2C1_Init
                0x0804343c       0x54 C:\PROGRA~2\VT3_8920\VT3\RESOUR~1\targets\CANVIEW4\lib\lld\libCANView4.a(CANView4_STM_periphs_lib.o)
                0x0804343c                MX_I2C1_Init
 .text.MX_LTDC_Init
                0x08043490      0x228 C:\PROGRA~2\VT3_8920\VT3\RESOUR~1\targets\CANVIEW4\lib\lld\libCANView4.a(CANView4_STM_periphs_lib.o)
                0x08043490                MX_LTDC_Init
 .text.MX_SPI2_Init
                0x080436b8       0x74 C:\PROGRA~2\VT3_8920\VT3\RESOUR~1\targets\CANVIEW4\lib\lld\libCANView4.a(CANView4_STM_periphs_lib.o)
                0x080436b8                MX_SPI2_Init
 .text.MX_SPI5_Init
                0x0804372c       0x74 C:\PROGRA~2\VT3_8920\VT3\RESOUR~1\targets\CANVIEW4\lib\lld\libCANView4.a(CANView4_STM_periphs_lib.o)
                0x0804372c                MX_SPI5_Init
 .text.MX_DMA_Init
                0x080437a0       0x64 C:\PROGRA~2\VT3_8920\VT3\RESOUR~1\targets\CANVIEW4\lib\lld\libCANView4.a(CANView4_STM_periphs_lib.o)
                0x080437a0                MX_DMA_Init
 .text.MX_TIM1_Init
                0x08043804       0x6c C:\PROGRA~2\VT3_8920\VT3\RESOUR~1\targets\CANVIEW4\lib\lld\libCANView4.a(CANView4_STM_periphs_lib.o)
                0x08043804                MX_TIM1_Init
 .text.MX_TIM2_Init
                0x08043870       0x68 C:\PROGRA~2\VT3_8920\VT3\RESOUR~1\targets\CANVIEW4\lib\lld\libCANView4.a(CANView4_STM_periphs_lib.o)
                0x08043870                MX_TIM2_Init
 .text.MX_TIM3_Init
                0x080438d8       0x5c C:\PROGRA~2\VT3_8920\VT3\RESOUR~1\targets\CANVIEW4\lib\lld\libCANView4.a(CANView4_STM_periphs_lib.o)
                0x080438d8                MX_TIM3_Init
 .text.MX_TIM4_Init
                0x08043934       0x5c C:\PROGRA~2\VT3_8920\VT3\RESOUR~1\targets\CANVIEW4\lib\lld\libCANView4.a(CANView4_STM_periphs_lib.o)
                0x08043934                MX_TIM4_Init
 .text.MX_USART2_UART_Init
                0x08043990       0x48 C:\PROGRA~2\VT3_8920\VT3\RESOUR~1\targets\CANVIEW4\lib\lld\libCANView4.a(CANView4_STM_periphs_lib.o)
                0x08043990                MX_USART2_UART_Init
 .text.MX_FMC_Init
                0x080439d8       0x94 C:\PROGRA~2\VT3_8920\VT3\RESOUR~1\targets\CANVIEW4\lib\lld\libCANView4.a(CANView4_STM_periphs_lib.o)
                0x080439d8                MX_FMC_Init
 .text.MX_GPIO_Init
                0x08043a6c      0x294 C:\PROGRA~2\VT3_8920\VT3\RESOUR~1\targets\CANVIEW4\lib\lld\libCANView4.a(CANView4_STM_periphs_lib.o)
                0x08043a6c                MX_GPIO_Init
 .text.BSP_SDRAM_Initialization_Sequence
                0x08043d00       0xda C:\PROGRA~2\VT3_8920\VT3\RESOUR~1\targets\CANVIEW4\lib\lld\libCANView4.a(CANView4_STM_periphs_lib.o)
                0x08043d00                BSP_SDRAM_Initialization_Sequence
 *fill*         0x08043dda        0x2 
 .text.UserTaskWrapper
                0x08043ddc       0x84 C:\PROGRA~2\VT3_8920\VT3\RESOUR~1\targets\CANVIEW4\lib\lld\libCANView4.a(CANView4_Task_Manager.o)
                0x08043ddc                UserTaskWrapper
 .text.CreateTask
                0x08043e60      0x190 C:\PROGRA~2\VT3_8920\VT3\RESOUR~1\targets\CANVIEW4\lib\lld\libCANView4.a(CANView4_Task_Manager.o)
                0x08043e60                CreateTask
 .text.GetCurrentTaskNumber
                0x08043ff0       0x10 C:\PROGRA~2\VT3_8920\VT3\RESOUR~1\targets\CANVIEW4\lib\lld\libCANView4.a(CANView4_Task_Manager.o)
                0x08043ff0                GetCurrentTaskNumber
 .text.InitTaskManager
                0x08044000       0xb4 C:\PROGRA~2\VT3_8920\VT3\RESOUR~1\targets\CANVIEW4\lib\lld\libCANView4.a(CANView4_Task_Manager.o)
                0x08044000                InitTaskManager
 .text.StartTaskManager
                0x080440b4        0xa C:\PROGRA~2\VT3_8920\VT3\RESOUR~1\targets\CANVIEW4\lib\lld\libCANView4.a(CANView4_Task_Manager.o)
                0x080440b4                StartTaskManager
 .text.GetTimerMS
                0x080440be        0xe C:\PROGRA~2\VT3_8920\VT3\RESOUR~1\targets\CANVIEW4\lib\lld\libCANView4.a(CANView4_Task_Manager.o)
                0x080440be                GetTimerMS
 .text.Task_Wait
                0x080440cc       0x16 C:\PROGRA~2\VT3_8920\VT3\RESOUR~1\targets\CANVIEW4\lib\lld\libCANView4.a(CANView4_Task_Manager.o)
                0x080440cc                Task_Wait
 .text.vApplicationStackOverflowHook
                0x080440e2        0xc C:\PROGRA~2\VT3_8920\VT3\RESOUR~1\targets\CANVIEW4\lib\lld\libCANView4.a(CANView4_Task_Manager.o)
                0x080440e2                vApplicationStackOverflowHook
 *fill*         0x080440ee        0x2 
 .text.CodeFlashCalcCKS
                0x080440f0       0x88 C:\PROGRA~2\VT3_8920\VT3\RESOUR~1\targets\CANVIEW4\lib\lld\libCANView4.a(KWP2000_Light.o)
                0x080440f0                CodeFlashCalcCKS
 .text.Lib_KWP2000Init
                0x08044178      0x244 C:\PROGRA~2\VT3_8920\VT3\RESOUR~1\targets\CANVIEW4\lib\lld\libCANView4.a(KWP2000_Light.o)
                0x08044178                Lib_KWP2000Init
 .text.Lib_KWP2000RxManager_Light
                0x080443bc       0x60 C:\PROGRA~2\VT3_8920\VT3\RESOUR~1\targets\CANVIEW4\lib\lld\libCANView4.a(KWP2000_Light.o)
                0x080443bc                Lib_KWP2000RxManager_Light
 .text.KWP2000_Security_Key_calc
                0x0804441c       0x50 C:\PROGRA~2\VT3_8920\VT3\RESOUR~1\targets\CANVIEW4\lib\lld\libCANView4.a(KWP2000_Light.o)
                0x0804441c                KWP2000_Security_Key_calc
 .text.Virtual_TIMs_Init
                0x0804446c       0xac C:\PROGRA~2\VT3_8920\VT3\RESOUR~1\targets\CANVIEW4\lib\lld\libCANView4.a(Virtual_TIMs.o)
                0x0804446c                Virtual_TIMs_Init
 .text.Virtual_TIMs_Deinit
                0x08044518       0x2c C:\PROGRA~2\VT3_8920\VT3\RESOUR~1\targets\CANVIEW4\lib\lld\libCANView4.a(Virtual_TIMs.o)
                0x08044518                Virtual_TIMs_Deinit
 .text.VTIM_Enable
                0x08044544       0x60 C:\PROGRA~2\VT3_8920\VT3\RESOUR~1\targets\CANVIEW4\lib\lld\libCANView4.a(Virtual_TIMs.o)
                0x08044544                VTIM_Enable
 .text.VTIM_Disable
                0x080445a4       0x28 C:\PROGRA~2\VT3_8920\VT3\RESOUR~1\targets\CANVIEW4\lib\lld\libCANView4.a(Virtual_TIMs.o)
                0x080445a4                VTIM_Disable
 .text.VTIM_Reset
                0x080445cc       0x28 C:\PROGRA~2\VT3_8920\VT3\RESOUR~1\targets\CANVIEW4\lib\lld\libCANView4.a(Virtual_TIMs.o)
                0x080445cc                VTIM_Reset
 .text.VTIMs_Task
                0x080445f4       0x9c C:\PROGRA~2\VT3_8920\VT3\RESOUR~1\targets\CANVIEW4\lib\lld\libCANView4.a(Virtual_TIMs.o)
                0x080445f4                VTIMs_Task
 .text.CANView4_Display_Init
                0x08044690       0x80 C:\PROGRA~2\VT3_8920\VT3\RESOUR~1\targets\CANVIEW4\lib\lld\libCANView4.a(Display_Utilities.o)
                0x08044690                CANView4_Display_Init
 .text.CANView4_Layer_Switch
                0x08044710       0xb0 C:\PROGRA~2\VT3_8920\VT3\RESOUR~1\targets\CANVIEW4\lib\lld\libCANView4.a(Display_Utilities.o)
                0x08044710                CANView4_Layer_Switch
 .text.LL_ConvertLineToARGB8888
                0x080447c0       0x78 C:\PROGRA~2\VT3_8920\VT3\RESOUR~1\targets\CANVIEW4\lib\lld\libCANView4.a(Display_lib.o)
 .text.CANView4_LCD_DrawPixel.part.6
                0x08044838       0x38 C:\PROGRA~2\VT3_8920\VT3\RESOUR~1\targets\CANVIEW4\lib\lld\libCANView4.a(Display_lib.o)
 .text.LL_FillBuffer
                0x08044870       0x70 C:\PROGRA~2\VT3_8920\VT3\RESOUR~1\targets\CANVIEW4\lib\lld\libCANView4.a(Display_lib.o)
 .text.CANView4_LCD_DrawHLine.part.2
                0x080448e0       0x70 C:\PROGRA~2\VT3_8920\VT3\RESOUR~1\targets\CANVIEW4\lib\lld\libCANView4.a(Display_lib.o)
 .text.CANView4_LCD_DrawVLine.part.4
                0x08044950       0x70 C:\PROGRA~2\VT3_8920\VT3\RESOUR~1\targets\CANVIEW4\lib\lld\libCANView4.a(Display_lib.o)
 .text.CANView4_LCD_FillRect.part.5
                0x080449c0       0xd0 C:\PROGRA~2\VT3_8920\VT3\RESOUR~1\targets\CANVIEW4\lib\lld\libCANView4.a(Display_lib.o)
 .text.CANView4_LCD_GetXSize
                0x08044a90       0x18 C:\PROGRA~2\VT3_8920\VT3\RESOUR~1\targets\CANVIEW4\lib\lld\libCANView4.a(Display_lib.o)
                0x08044a90                CANView4_LCD_GetXSize
 .text.CANView4_LCD_GetYSize
                0x08044aa8       0x18 C:\PROGRA~2\VT3_8920\VT3\RESOUR~1\targets\CANVIEW4\lib\lld\libCANView4.a(Display_lib.o)
                0x08044aa8                CANView4_LCD_GetYSize
 .text.CANView4_LCD_LayerDefaultInit
                0x08044ac0       0x74 C:\PROGRA~2\VT3_8920\VT3\RESOUR~1\targets\CANVIEW4\lib\lld\libCANView4.a(Display_lib.o)
                0x08044ac0                CANView4_LCD_LayerDefaultInit
 .text.CANView4_LCD_SelectLayer
                0x08044b34        0xc C:\PROGRA~2\VT3_8920\VT3\RESOUR~1\targets\CANVIEW4\lib\lld\libCANView4.a(Display_lib.o)
                0x08044b34                CANView4_LCD_SelectLayer
 .text.CANView4_LCD_SetLayerVisible
                0x08044b40       0x28 C:\PROGRA~2\VT3_8920\VT3\RESOUR~1\targets\CANVIEW4\lib\lld\libCANView4.a(Display_lib.o)
                0x08044b40                CANView4_LCD_SetLayerVisible
 .text.CANView4_LCD_SetTransparency
                0x08044b68        0xc C:\PROGRA~2\VT3_8920\VT3\RESOUR~1\targets\CANVIEW4\lib\lld\libCANView4.a(Display_lib.o)
                0x08044b68                CANView4_LCD_SetTransparency
 .text.CANView4_LCD_SetLayerAddress
                0x08044b74        0xc C:\PROGRA~2\VT3_8920\VT3\RESOUR~1\targets\CANVIEW4\lib\lld\libCANView4.a(Display_lib.o)
                0x08044b74                CANView4_LCD_SetLayerAddress
 .text.CANView4_LCD_SetLayerWindow
                0x08044b80       0x30 C:\PROGRA~2\VT3_8920\VT3\RESOUR~1\targets\CANVIEW4\lib\lld\libCANView4.a(Display_lib.o)
                0x08044b80                CANView4_LCD_SetLayerWindow
 .text.CANView4_LCD_SetColorKeying
                0x08044bb0       0x20 C:\PROGRA~2\VT3_8920\VT3\RESOUR~1\targets\CANVIEW4\lib\lld\libCANView4.a(Display_lib.o)
                0x08044bb0                CANView4_LCD_SetColorKeying
 .text.CANView4_LCD_ResetColorKeying
                0x08044bd0        0xc C:\PROGRA~2\VT3_8920\VT3\RESOUR~1\targets\CANVIEW4\lib\lld\libCANView4.a(Display_lib.o)
                0x08044bd0                CANView4_LCD_ResetColorKeying
 .text.CANView4_LCD_SetTextColor
                0x08044bdc       0x14 C:\PROGRA~2\VT3_8920\VT3\RESOUR~1\targets\CANVIEW4\lib\lld\libCANView4.a(Display_lib.o)
                0x08044bdc                CANView4_LCD_SetTextColor
 .text.CANView4_LCD_GetTextColor
                0x08044bf0       0x14 C:\PROGRA~2\VT3_8920\VT3\RESOUR~1\targets\CANVIEW4\lib\lld\libCANView4.a(Display_lib.o)
                0x08044bf0                CANView4_LCD_GetTextColor
 .text.CANView4_LCD_SetBackColor
                0x08044c04       0x14 C:\PROGRA~2\VT3_8920\VT3\RESOUR~1\targets\CANVIEW4\lib\lld\libCANView4.a(Display_lib.o)
                0x08044c04                CANView4_LCD_SetBackColor
 .text.CANView4_LCD_GetBackColor
                0x08044c18       0x14 C:\PROGRA~2\VT3_8920\VT3\RESOUR~1\targets\CANVIEW4\lib\lld\libCANView4.a(Display_lib.o)
                0x08044c18                CANView4_LCD_GetBackColor
 .text.CANView4_LCD_SetFont
                0x08044c2c       0x14 C:\PROGRA~2\VT3_8920\VT3\RESOUR~1\targets\CANVIEW4\lib\lld\libCANView4.a(Display_lib.o)
                0x08044c2c                CANView4_LCD_SetFont
 .text.CANView4_LCD_GetFont
                0x08044c40       0x14 C:\PROGRA~2\VT3_8920\VT3\RESOUR~1\targets\CANVIEW4\lib\lld\libCANView4.a(Display_lib.o)
                0x08044c40                CANView4_LCD_GetFont
 .text.CANView4_LCD_ReadPixel
                0x08044c54       0x64 C:\PROGRA~2\VT3_8920\VT3\RESOUR~1\targets\CANVIEW4\lib\lld\libCANView4.a(Display_lib.o)
                0x08044c54                CANView4_LCD_ReadPixel
 .text.CANView4_LCD_Clear
                0x08044cb8       0x30 C:\PROGRA~2\VT3_8920\VT3\RESOUR~1\targets\CANVIEW4\lib\lld\libCANView4.a(Display_lib.o)
                0x08044cb8                CANView4_LCD_Clear
 .text.CANView4_LCD_CleanBuffer
                0x08044ce8       0x24 C:\PROGRA~2\VT3_8920\VT3\RESOUR~1\targets\CANVIEW4\lib\lld\libCANView4.a(Display_lib.o)
                0x08044ce8                CANView4_LCD_CleanBuffer
 .text.CANView4_LCD_ClearStringLine
                0x08044d0c       0x6c C:\PROGRA~2\VT3_8920\VT3\RESOUR~1\targets\CANVIEW4\lib\lld\libCANView4.a(Display_lib.o)
                0x08044d0c                CANView4_LCD_ClearStringLine
 .text.CANView4_LCD_DisplayChar
                0x08044d78       0xdc C:\PROGRA~2\VT3_8920\VT3\RESOUR~1\targets\CANVIEW4\lib\lld\libCANView4.a(Display_lib.o)
                0x08044d78                CANView4_LCD_DisplayChar
 .text.CANView4_LCD_DisplayStringAt
                0x08044e54       0xe8 C:\PROGRA~2\VT3_8920\VT3\RESOUR~1\targets\CANVIEW4\lib\lld\libCANView4.a(Display_lib.o)
                0x08044e54                CANView4_LCD_DisplayStringAt
 .text.CANView4_LCD_DisplayStringAtLine
                0x08044f3c       0x24 C:\PROGRA~2\VT3_8920\VT3\RESOUR~1\targets\CANVIEW4\lib\lld\libCANView4.a(Display_lib.o)
                0x08044f3c                CANView4_LCD_DisplayStringAtLine
 .text.CANView4_LCD_DrawHLine
                0x08044f60       0x24 C:\PROGRA~2\VT3_8920\VT3\RESOUR~1\targets\CANVIEW4\lib\lld\libCANView4.a(Display_lib.o)
                0x08044f60                CANView4_LCD_DrawHLine
 .text.CANView4_LCD_DrawVLine
                0x08044f84       0x24 C:\PROGRA~2\VT3_8920\VT3\RESOUR~1\targets\CANVIEW4\lib\lld\libCANView4.a(Display_lib.o)
                0x08044f84                CANView4_LCD_DrawVLine
 .text.CANView4_LCD_DrawSimpleLine
                0x08044fa8      0x10c C:\PROGRA~2\VT3_8920\VT3\RESOUR~1\targets\CANVIEW4\lib\lld\libCANView4.a(Display_lib.o)
                0x08044fa8                CANView4_LCD_DrawSimpleLine
 .text.FillTriangle
                0x080450b4       0xf8 C:\PROGRA~2\VT3_8920\VT3\RESOUR~1\targets\CANVIEW4\lib\lld\libCANView4.a(Display_lib.o)
 .text.CANView4_LCD_DrawTLine
                0x080451ac      0x104 C:\PROGRA~2\VT3_8920\VT3\RESOUR~1\targets\CANVIEW4\lib\lld\libCANView4.a(Display_lib.o)
                0x080451ac                CANView4_LCD_DrawTLine
 .text.CANView4_LCD_DrawLine
                0x080452b0      0x12c C:\PROGRA~2\VT3_8920\VT3\RESOUR~1\targets\CANVIEW4\lib\lld\libCANView4.a(Display_lib.o)
                0x080452b0                CANView4_LCD_DrawLine
 .text.CANView4_LCD_DrawRect
                0x080453dc       0x94 C:\PROGRA~2\VT3_8920\VT3\RESOUR~1\targets\CANVIEW4\lib\lld\libCANView4.a(Display_lib.o)
                0x080453dc                CANView4_LCD_DrawRect
 .text.CANView4_LCD_DrawCircle
                0x08045470      0x27c C:\PROGRA~2\VT3_8920\VT3\RESOUR~1\targets\CANVIEW4\lib\lld\libCANView4.a(Display_lib.o)
                0x08045470                CANView4_LCD_DrawCircle
 .text.CANView4_LCD_DrawPolygon
                0x080456ec       0x78 C:\PROGRA~2\VT3_8920\VT3\RESOUR~1\targets\CANVIEW4\lib\lld\libCANView4.a(Display_lib.o)
                0x080456ec                CANView4_LCD_DrawPolygon
 .text.CANView4_LCD_DrawEllipse
                0x08045764      0x180 C:\PROGRA~2\VT3_8920\VT3\RESOUR~1\targets\CANVIEW4\lib\lld\libCANView4.a(Display_lib.o)
                0x08045764                CANView4_LCD_DrawEllipse
 .text.CANView4_LCD_DrawBitmap
                0x080458e4      0x34c C:\PROGRA~2\VT3_8920\VT3\RESOUR~1\targets\CANVIEW4\lib\lld\libCANView4.a(Display_lib.o)
                0x080458e4                CANView4_LCD_DrawBitmap
 .text.CANView4_LCD_DrawSubBitmap
                0x08045c30      0x270 C:\PROGRA~2\VT3_8920\VT3\RESOUR~1\targets\CANVIEW4\lib\lld\libCANView4.a(Display_lib.o)
                0x08045c30                CANView4_LCD_DrawSubBitmap
 .text.pixel_blend_ARGB8888
                0x08045ea0       0x90 C:\PROGRA~2\VT3_8920\VT3\RESOUR~1\targets\CANVIEW4\lib\lld\libCANView4.a(Display_lib.o)
                0x08045ea0                pixel_blend_ARGB8888
 .text.CANView4_LCD_FillRect
                0x08045f30       0x28 C:\PROGRA~2\VT3_8920\VT3\RESOUR~1\targets\CANVIEW4\lib\lld\libCANView4.a(Display_lib.o)
                0x08045f30                CANView4_LCD_FillRect
 .text.CANView4_LCD_FillCircle
                0x08045f58      0x11c C:\PROGRA~2\VT3_8920\VT3\RESOUR~1\targets\CANVIEW4\lib\lld\libCANView4.a(Display_lib.o)
                0x08045f58                CANView4_LCD_FillCircle
 .text.CANView4_LCD_FillRing
                0x08046074      0x2a8 C:\PROGRA~2\VT3_8920\VT3\RESOUR~1\targets\CANVIEW4\lib\lld\libCANView4.a(Display_lib.o)
                0x08046074                CANView4_LCD_FillRing
 .text.CANView4_LCD_FillPolygon
                0x0804631c      0x190 C:\PROGRA~2\VT3_8920\VT3\RESOUR~1\targets\CANVIEW4\lib\lld\libCANView4.a(Display_lib.o)
                0x0804631c                CANView4_LCD_FillPolygon
 .text.CANView4_LCD_FillQuadrilateral
                0x080464ac        0x4 C:\PROGRA~2\VT3_8920\VT3\RESOUR~1\targets\CANVIEW4\lib\lld\libCANView4.a(Display_lib.o)
                0x080464ac                CANView4_LCD_FillQuadrilateral
 .text.CANView4_LCD_FillEllipse
                0x080464b0      0x108 C:\PROGRA~2\VT3_8920\VT3\RESOUR~1\targets\CANVIEW4\lib\lld\libCANView4.a(Display_lib.o)
                0x080464b0                CANView4_LCD_FillEllipse
 .text.CANView4_LCD_DisplayOn
                0x080465b8       0x14 C:\PROGRA~2\VT3_8920\VT3\RESOUR~1\targets\CANVIEW4\lib\lld\libCANView4.a(Display_lib.o)
                0x080465b8                CANView4_LCD_DisplayOn
 .text.CANView4_LCD_DisplayOff
                0x080465cc       0x14 C:\PROGRA~2\VT3_8920\VT3\RESOUR~1\targets\CANVIEW4\lib\lld\libCANView4.a(Display_lib.o)
                0x080465cc                CANView4_LCD_DisplayOff
 .text.CANView4_LCD_DrawPixel
                0x080465e0       0x10 C:\PROGRA~2\VT3_8920\VT3\RESOUR~1\targets\CANVIEW4\lib\lld\libCANView4.a(Display_lib.o)
                0x080465e0                CANView4_LCD_DrawPixel
 .text.CANView4_LCD_DrawChar
                0x080465f0       0xe8 C:\PROGRA~2\VT3_8920\VT3\RESOUR~1\targets\CANVIEW4\lib\lld\libCANView4.a(Display_lib.o)
                0x080465f0                CANView4_LCD_DrawChar
 .text.Set_DMA2D_Callback
                0x080466d8       0x10 C:\PROGRA~2\VT3_8920\VT3\RESOUR~1\targets\CANVIEW4\lib\lld\libCANView4.a(Display_lib.o)
                0x080466d8                Set_DMA2D_Callback
 .text.CANView4_LCD_DrawCameraLine
                0x080466e8       0x34 C:\PROGRA~2\VT3_8920\VT3\RESOUR~1\targets\CANVIEW4\lib\lld\libCANView4.a(Display_lib.o)
                0x080466e8                CANView4_LCD_DrawCameraLine
 .text.CANView4_LCD_FillTriangle
                0x0804671c      0x45c C:\PROGRA~2\VT3_8920\VT3\RESOUR~1\targets\CANVIEW4\lib\lld\libCANView4.a(Display_lib.o)
                0x0804671c                CANView4_LCD_FillTriangle
 .text.EEPROM_ErasePage
                0x08046b78       0x74 C:\PROGRA~2\VT3_8920\VT3\RESOUR~1\targets\CANVIEW4\lib\lld\libCANView4.a(eeprom.o)
                0x08046b78                EEPROM_ErasePage
 .text.EEPROM_WriteBlock
                0x08046bec       0x78 C:\PROGRA~2\VT3_8920\VT3\RESOUR~1\targets\CANVIEW4\lib\lld\libCANView4.a(eeprom.o)
                0x08046bec                EEPROM_WriteBlock
 .text.EEPROM_Read
                0x08046c64       0xe4 C:\PROGRA~2\VT3_8920\VT3\RESOUR~1\targets\CANVIEW4\lib\lld\libCANView4.a(eeprom.o)
                0x08046c64                EEPROM_Read
 .text.EEPROM_Check
                0x08046d48      0x10e C:\PROGRA~2\VT3_8920\VT3\RESOUR~1\targets\CANVIEW4\lib\lld\libCANView4.a(eeprom.o)
                0x08046d48                EEPROM_Check
 *fill*         0x08046e56        0x2 
 .text.EEPROM_Write
                0x08046e58      0x2dc C:\PROGRA~2\VT3_8920\VT3\RESOUR~1\targets\CANVIEW4\lib\lld\libCANView4.a(eeprom.o)
                0x08046e58                EEPROM_Write
 .text.EEPROM_GetStatus
                0x08047134      0x1f8 C:\PROGRA~2\VT3_8920\VT3\RESOUR~1\targets\CANVIEW4\lib\lld\libCANView4.a(eeprom.o)
                0x08047134                EEPROM_GetStatus
 .text.EEPROM_Write_Buffer
                0x0804732c       0x74 C:\PROGRA~2\VT3_8920\VT3\RESOUR~1\targets\CANVIEW4\lib\lld\libCANView4.a(eeprom.o)
                0x0804732c                EEPROM_Write_Buffer
 .text.EEPROM_Read_Buffer
                0x080473a0       0x5a C:\PROGRA~2\VT3_8920\VT3\RESOUR~1\targets\CANVIEW4\lib\lld\libCANView4.a(eeprom.o)
                0x080473a0                EEPROM_Read_Buffer
 .text.HAL_NV_BL_DataRead
                0x080473fa       0x58 C:\PROGRA~2\VT3_8920\VT3\RESOUR~1\targets\CANVIEW4\lib\lld\libCANView4.a(eeprom.o)
                0x080473fa                HAL_NV_BL_DataRead
 *fill*         0x08047452        0x2 
 .text.HAL_NV_BL_DataWrite
                0x08047454       0x5c C:\PROGRA~2\VT3_8920\VT3\RESOUR~1\targets\CANVIEW4\lib\lld\libCANView4.a(eeprom.o)
                0x08047454                HAL_NV_BL_DataWrite
 .text.EEPROM_Corrupts_CRC
                0x080474b0       0x62 C:\PROGRA~2\VT3_8920\VT3\RESOUR~1\targets\CANVIEW4\lib\lld\libCANView4.a(eeprom.o)
                0x080474b0                EEPROM_Corrupts_CRC
 .text.EEPROM_Corrupts_Data
                0x08047512       0x66 C:\PROGRA~2\VT3_8920\VT3\RESOUR~1\targets\CANVIEW4\lib\lld\libCANView4.a(eeprom.o)
                0x08047512                EEPROM_Corrupts_Data
 .text.SpansionInit
                0x08047578       0xb0 C:\PROGRA~2\VT3_8920\VT3\RESOUR~1\targets\CANVIEW4\lib\lld\libCANView4.a(Spansion_128Mb.o)
                0x08047578                SpansionInit
 .text.SPI5_IRQHandler
                0x08047628       0x14 C:\PROGRA~2\VT3_8920\VT3\RESOUR~1\targets\CANVIEW4\lib\lld\libCANView4.a(Spansion_128Mb.o)
                0x08047628                SPI5_IRQHandler
 .text.HAL_SPI_TxCpltCallback
                0x0804763c       0x20 C:\PROGRA~2\VT3_8920\VT3\RESOUR~1\targets\CANVIEW4\lib\lld\libCANView4.a(Spansion_128Mb.o)
                0x0804763c                HAL_SPI_TxCpltCallback
 .text.HAL_SPI_RxCpltCallback
                0x0804765c       0x20 C:\PROGRA~2\VT3_8920\VT3\RESOUR~1\targets\CANVIEW4\lib\lld\libCANView4.a(Spansion_128Mb.o)
                0x0804765c                HAL_SPI_RxCpltCallback
 .text.SpansionSpiSend_IT
                0x0804767c       0x84 C:\PROGRA~2\VT3_8920\VT3\RESOUR~1\targets\CANVIEW4\lib\lld\libCANView4.a(Spansion_128Mb.o)
                0x0804767c                SpansionSpiSend_IT
 .text.SpansionSpiRecv_IT
                0x08047700       0x80 C:\PROGRA~2\VT3_8920\VT3\RESOUR~1\targets\CANVIEW4\lib\lld\libCANView4.a(Spansion_128Mb.o)
                0x08047700                SpansionSpiRecv_IT
 .text.SpansionSpiSend
                0x08047780       0x54 C:\PROGRA~2\VT3_8920\VT3\RESOUR~1\targets\CANVIEW4\lib\lld\libCANView4.a(Spansion_128Mb.o)
                0x08047780                SpansionSpiSend
 .text.SpansionSpiRecv
                0x080477d4       0x54 C:\PROGRA~2\VT3_8920\VT3\RESOUR~1\targets\CANVIEW4\lib\lld\libCANView4.a(Spansion_128Mb.o)
                0x080477d4                SpansionSpiRecv
 .text.SpansionSpiRecv_DMA
                0x08047828       0x4c C:\PROGRA~2\VT3_8920\VT3\RESOUR~1\targets\CANVIEW4\lib\lld\libCANView4.a(Spansion_128Mb.o)
                0x08047828                SpansionSpiRecv_DMA
 .text.SpansionSpiCsEnable
                0x08047874       0x34 C:\PROGRA~2\VT3_8920\VT3\RESOUR~1\targets\CANVIEW4\lib\lld\libCANView4.a(Spansion_128Mb.o)
                0x08047874                SpansionSpiCsEnable
 .text.SpansionEraseFile
                0x080478a8       0x54 C:\PROGRA~2\VT3_8920\VT3\RESOUR~1\targets\CANVIEW4\lib\lld\libCANView4.a(Spansion_128Mb.o)
                0x080478a8                SpansionEraseFile
 .text.SpansionGetFile
                0x080478fc       0x30 C:\PROGRA~2\VT3_8920\VT3\RESOUR~1\targets\CANVIEW4\lib\lld\libCANView4.a(Spansion_128Mb.o)
                0x080478fc                SpansionGetFile
 .text.SpansionGetFileCalcHash
                0x0804792c      0x162 C:\PROGRA~2\VT3_8920\VT3\RESOUR~1\targets\CANVIEW4\lib\lld\libCANView4.a(Spansion_128Mb.o)
                0x0804792c                SpansionGetFileCalcHash
 .text.SpansionGetFileInfo
                0x08047a8e      0x19e C:\PROGRA~2\VT3_8920\VT3\RESOUR~1\targets\CANVIEW4\lib\lld\libCANView4.a(Spansion_128Mb.o)
                0x08047a8e                SpansionGetFileInfo
 .text.Lib_SPANSIONReadID
                0x08047c2c       0x60 C:\PROGRA~2\VT3_8920\VT3\RESOUR~1\targets\CANVIEW4\lib\lld\libCANView4.a(Spansion_128Mb.o)
                0x08047c2c                Lib_SPANSIONReadID
 .text.Lib_SPANSIONReadRegister
                0x08047c8c       0x46 C:\PROGRA~2\VT3_8920\VT3\RESOUR~1\targets\CANVIEW4\lib\lld\libCANView4.a(Spansion_128Mb.o)
                0x08047c8c                Lib_SPANSIONReadRegister
 *fill*         0x08047cd2        0x2 
 .text.Lib_SPANSIONWriteRegister
                0x08047cd4       0x4c C:\PROGRA~2\VT3_8920\VT3\RESOUR~1\targets\CANVIEW4\lib\lld\libCANView4.a(Spansion_128Mb.o)
                0x08047cd4                Lib_SPANSIONWriteRegister
 .text.Lib_SPANSIONWriteEnable
                0x08047d20       0x34 C:\PROGRA~2\VT3_8920\VT3\RESOUR~1\targets\CANVIEW4\lib\lld\libCANView4.a(Spansion_128Mb.o)
                0x08047d20                Lib_SPANSIONWriteEnable
 .text.Lib_SPANSIONWriteDisable
                0x08047d54       0x34 C:\PROGRA~2\VT3_8920\VT3\RESOUR~1\targets\CANVIEW4\lib\lld\libCANView4.a(Spansion_128Mb.o)
                0x08047d54                Lib_SPANSIONWriteDisable
 .text.Lib_SPANSIONWriteData
                0x08047d88       0xd6 C:\PROGRA~2\VT3_8920\VT3\RESOUR~1\targets\CANVIEW4\lib\lld\libCANView4.a(Spansion_128Mb.o)
                0x08047d88                Lib_SPANSIONWriteData
 .text.Lib_SPANSIONReadData
                0x08047e5e       0xca C:\PROGRA~2\VT3_8920\VT3\RESOUR~1\targets\CANVIEW4\lib\lld\libCANView4.a(Spansion_128Mb.o)
                0x08047e5e                Lib_SPANSIONReadData
 .text.Lib_SPANSIONReadData_DMA
                0x08047f28       0xdc C:\PROGRA~2\VT3_8920\VT3\RESOUR~1\targets\CANVIEW4\lib\lld\libCANView4.a(Spansion_128Mb.o)
                0x08047f28                Lib_SPANSIONReadData_DMA
 .text.Lib_SPANSION_Wait_RX_OK
                0x08048004       0x3c C:\PROGRA~2\VT3_8920\VT3\RESOUR~1\targets\CANVIEW4\lib\lld\libCANView4.a(Spansion_128Mb.o)
                0x08048004                Lib_SPANSION_Wait_RX_OK
 .text.Check_Pending_RX
                0x08048040       0x40 C:\PROGRA~2\VT3_8920\VT3\RESOUR~1\targets\CANVIEW4\lib\lld\libCANView4.a(Spansion_128Mb.o)
                0x08048040                Check_Pending_RX
 .text.Lib_SPANSION_Wait_TX_OK
                0x08048080       0x3c C:\PROGRA~2\VT3_8920\VT3\RESOUR~1\targets\CANVIEW4\lib\lld\libCANView4.a(Spansion_128Mb.o)
                0x08048080                Lib_SPANSION_Wait_TX_OK
 .text.Lib_SPANSIONEraseData
                0x080480bc      0x1a2 C:\PROGRA~2\VT3_8920\VT3\RESOUR~1\targets\CANVIEW4\lib\lld\libCANView4.a(Spansion_128Mb.o)
                0x080480bc                Lib_SPANSIONEraseData
 *fill*         0x0804825e        0x2 
 .text.Lib_SPANSIONBulkErase
                0x08048260       0x84 C:\PROGRA~2\VT3_8920\VT3\RESOUR~1\targets\CANVIEW4\lib\lld\libCANView4.a(Spansion_128Mb.o)
                0x08048260                Lib_SPANSIONBulkErase
 .text.Lib_SPANSIONSectorErase
                0x080482e4       0xdc C:\PROGRA~2\VT3_8920\VT3\RESOUR~1\targets\CANVIEW4\lib\lld\libCANView4.a(Spansion_128Mb.o)
                0x080482e4                Lib_SPANSIONSectorErase
 .text.Lib_SPANSIONEraseSector_ByNumber
                0x080483c0       0x1e C:\PROGRA~2\VT3_8920\VT3\RESOUR~1\targets\CANVIEW4\lib\lld\libCANView4.a(Spansion_128Mb.o)
                0x080483c0                Lib_SPANSIONEraseSector_ByNumber
 *fill*         0x080483de        0x2 
 .text.Lib_SPANSIONReset
                0x080483e0       0x3c C:\PROGRA~2\VT3_8920\VT3\RESOUR~1\targets\CANVIEW4\lib\lld\libCANView4.a(Spansion_128Mb.o)
                0x080483e0                Lib_SPANSIONReset
 .text.Lib_SPANSIONBankRegisterWrite
                0x0804841c       0x44 C:\PROGRA~2\VT3_8920\VT3\RESOUR~1\targets\CANVIEW4\lib\lld\libCANView4.a(Spansion_128Mb.o)
                0x0804841c                Lib_SPANSIONBankRegisterWrite
 .text.Lib_SPANSIONPowerUp
                0x08048460       0x34 C:\PROGRA~2\VT3_8920\VT3\RESOUR~1\targets\CANVIEW4\lib\lld\libCANView4.a(Spansion_128Mb.o)
                0x08048460                Lib_SPANSIONPowerUp
 .text.Lib_SPANSIONPowerDown
                0x08048494       0x4c C:\PROGRA~2\VT3_8920\VT3\RESOUR~1\targets\CANVIEW4\lib\lld\libCANView4.a(Spansion_128Mb.o)
                0x08048494                Lib_SPANSIONPowerDown
 .text.SPANSIONWriteFormattedData
                0x080484e0      0x104 C:\PROGRA~2\VT3_8920\VT3\RESOUR~1\targets\CANVIEW4\lib\lld\libCANView4.a(Spansion_128Mb.o)
                0x080484e0                SPANSIONWriteFormattedData
 .text.SPANSIONTimerManager
                0x080485e4       0x2c C:\PROGRA~2\VT3_8920\VT3\RESOUR~1\targets\CANVIEW4\lib\lld\libCANView4.a(Spansion_128Mb.o)
                0x080485e4                SPANSIONTimerManager
 .text.CANSetWinscope
                0x08048610       0x8c C:\PROGRA~2\VT3_8920\VT3\RESOUR~1\targets\CANVIEW4\lib\lld\libCANView4.a(CAN.o)
                0x08048610                CANSetWinscope
 .text.CANSetBootloader
                0x0804869c       0x54 C:\PROGRA~2\VT3_8920\VT3\RESOUR~1\targets\CANVIEW4\lib\lld\libCANView4.a(CAN.o)
                0x0804869c                CANSetBootloader
 .text.SetCanRxProc
                0x080486f0       0x48 C:\PROGRA~2\VT3_8920\VT3\RESOUR~1\targets\CANVIEW4\lib\lld\libCANView4.a(CAN.o)
                0x080486f0                SetCanRxProc
 .text.SetCanDebugProc
                0x08048738       0x34 C:\PROGRA~2\VT3_8920\VT3\RESOUR~1\targets\CANVIEW4\lib\lld\libCANView4.a(CAN.o)
                0x08048738                SetCanDebugProc
 .text.GetCanDebugProc
                0x0804876c       0x18 C:\PROGRA~2\VT3_8920\VT3\RESOUR~1\targets\CANVIEW4\lib\lld\libCANView4.a(CAN.o)
                0x0804876c                GetCanDebugProc
 .text.CAN1_RX0_IRQHandler
                0x08048784       0x14 C:\PROGRA~2\VT3_8920\VT3\RESOUR~1\targets\CANVIEW4\lib\lld\libCANView4.a(CAN.o)
                0x08048784                CAN1_RX0_IRQHandler
 .text.CAN1_RX1_IRQHandler
                0x08048798       0x14 C:\PROGRA~2\VT3_8920\VT3\RESOUR~1\targets\CANVIEW4\lib\lld\libCANView4.a(CAN.o)
                0x08048798                CAN1_RX1_IRQHandler
 .text.CAN1_TX_IRQHandler
                0x080487ac       0x14 C:\PROGRA~2\VT3_8920\VT3\RESOUR~1\targets\CANVIEW4\lib\lld\libCANView4.a(CAN.o)
                0x080487ac                CAN1_TX_IRQHandler
 .text.CAN2_RX0_IRQHandler
                0x080487c0       0x14 C:\PROGRA~2\VT3_8920\VT3\RESOUR~1\targets\CANVIEW4\lib\lld\libCANView4.a(CAN.o)
                0x080487c0                CAN2_RX0_IRQHandler
 .text.CAN2_RX1_IRQHandler
                0x080487d4       0x14 C:\PROGRA~2\VT3_8920\VT3\RESOUR~1\targets\CANVIEW4\lib\lld\libCANView4.a(CAN.o)
                0x080487d4                CAN2_RX1_IRQHandler
 .text.CAN2_TX_IRQHandler
                0x080487e8       0x14 C:\PROGRA~2\VT3_8920\VT3\RESOUR~1\targets\CANVIEW4\lib\lld\libCANView4.a(CAN.o)
                0x080487e8                CAN2_TX_IRQHandler
 .text.HAL_CAN_RxCpltCallback
                0x080487fc       0xc8 C:\PROGRA~2\VT3_8920\VT3\RESOUR~1\targets\CANVIEW4\lib\lld\libCANView4.a(CAN.o)
                0x080487fc                HAL_CAN_RxCpltCallback
 .text.CANDeInit
                0x080488c4       0x48 C:\PROGRA~2\VT3_8920\VT3\RESOUR~1\targets\CANVIEW4\lib\lld\libCANView4.a(CAN.o)
                0x080488c4                CANDeInit
 .text.CANFilterInit
                0x0804890c       0xbc C:\PROGRA~2\VT3_8920\VT3\RESOUR~1\targets\CANVIEW4\lib\lld\libCANView4.a(CAN.o)
                0x0804890c                CANFilterInit
 .text.CANInit  0x080489c8      0x388 C:\PROGRA~2\VT3_8920\VT3\RESOUR~1\targets\CANVIEW4\lib\lld\libCANView4.a(CAN.o)
                0x080489c8                CANInit
 .text.CANMessageTx
                0x08048d50       0xd4 C:\PROGRA~2\VT3_8920\VT3\RESOUR~1\targets\CANVIEW4\lib\lld\libCANView4.a(CAN.o)
                0x08048d50                CANMessageTx
 .text.CANMessageTx_IT
                0x08048e24       0x20 C:\PROGRA~2\VT3_8920\VT3\RESOUR~1\targets\CANVIEW4\lib\lld\libCANView4.a(CAN.o)
                0x08048e24                CANMessageTx_IT
 .text.TaskCanTx
                0x08048e44      0x3c0 C:\PROGRA~2\VT3_8920\VT3\RESOUR~1\targets\CANVIEW4\lib\lld\libCANView4.a(CAN.o)
                0x08048e44                TaskCanTx
 .text.CANTask  0x08049204       0x1e C:\PROGRA~2\VT3_8920\VT3\RESOUR~1\targets\CANVIEW4\lib\lld\libCANView4.a(CAN.o)
                0x08049204                CANTask
 *fill*         0x08049222        0x2 
 .text.TaskCanRx
                0x08049224      0x2f8 C:\PROGRA~2\VT3_8920\VT3\RESOUR~1\targets\CANVIEW4\lib\lld\libCANView4.a(CAN.o)
                0x08049224                TaskCanRx
 .text.CANconfigRxMsg
                0x0804951c      0x36c C:\PROGRA~2\VT3_8920\VT3\RESOUR~1\targets\CANVIEW4\lib\lld\libCANView4.a(CAN.o)
                0x0804951c                CANconfigRxMsg
 .text.FullBufferCanRx
                0x08049888      0xd28 C:\PROGRA~2\VT3_8920\VT3\RESOUR~1\targets\CANVIEW4\lib\lld\libCANView4.a(CAN.o)
                0x08049888                FullBufferCanRx
 .text.CANGetMessage
                0x0804a5b0       0x70 C:\PROGRA~2\VT3_8920\VT3\RESOUR~1\targets\CANVIEW4\lib\lld\libCANView4.a(CAN.o)
                0x0804a5b0                CANGetMessage
 .text.TxBufferSizeFree
                0x0804a620       0x34 C:\PROGRA~2\VT3_8920\VT3\RESOUR~1\targets\CANVIEW4\lib\lld\libCANView4.a(CAN.o)
                0x0804a620                TxBufferSizeFree
 .text.TxBufSize
                0x0804a654       0x18 C:\PROGRA~2\VT3_8920\VT3\RESOUR~1\targets\CANVIEW4\lib\lld\libCANView4.a(CAN.o)
                0x0804a654                TxBufSize
 .text.SearchJ1939CanMP
                0x0804a66c      0x35c C:\PROGRA~2\VT3_8920\VT3\RESOUR~1\targets\CANVIEW4\lib\lld\libCANView4.a(CAN.o)
                0x0804a66c                SearchJ1939CanMP
 .text.IO_Init  0x0804a9c8       0x54 C:\PROGRA~2\VT3_8920\VT3\RESOUR~1\targets\CANVIEW4\lib\lld\libCANView4.a(Generic_IO.o)
                0x0804a9c8                IO_Init
 .text.Read_Inputs
                0x0804aa1c      0x110 C:\PROGRA~2\VT3_8920\VT3\RESOUR~1\targets\CANVIEW4\lib\lld\libCANView4.a(Generic_IO.o)
                0x0804aa1c                Read_Inputs
 .text.Lib_UARTInit
                0x0804ab2c       0xbc C:\PROGRA~2\VT3_8920\VT3\RESOUR~1\targets\CANVIEW4\lib\lld\libCANView4.a(RS232.o)
                0x0804ab2c                Lib_UARTInit
 .text.Lib_UARTSetRxProc
                0x0804abe8       0x30 C:\PROGRA~2\VT3_8920\VT3\RESOUR~1\targets\CANVIEW4\lib\lld\libCANView4.a(RS232.o)
                0x0804abe8                Lib_UARTSetRxProc
 .text.Lib_UARTSendData
                0x0804ac18       0x38 C:\PROGRA~2\VT3_8920\VT3\RESOUR~1\targets\CANVIEW4\lib\lld\libCANView4.a(RS232.o)
                0x0804ac18                Lib_UARTSendData
 .text.HAL_UART_RxCpltCallback
                0x0804ac50       0x3c C:\PROGRA~2\VT3_8920\VT3\RESOUR~1\targets\CANVIEW4\lib\lld\libCANView4.a(RS232.o)
                0x0804ac50                HAL_UART_RxCpltCallback
 .text.MD5Init  0x0804ac8c       0x4c C:\PROGRA~2\VT3_8920\VT3\RESOUR~1\targets\CANVIEW4\lib\lld\libCANView4.a(MD5.o)
                0x0804ac8c                MD5Init
 .text.MD5Update
                0x0804acd8       0xf2 C:\PROGRA~2\VT3_8920\VT3\RESOUR~1\targets\CANVIEW4\lib\lld\libCANView4.a(MD5.o)
                0x0804acd8                MD5Update
 *fill*         0x0804adca        0x2 
 .text.MD5Final
                0x0804adcc      0x144 C:\PROGRA~2\VT3_8920\VT3\RESOUR~1\targets\CANVIEW4\lib\lld\libCANView4.a(MD5.o)
                0x0804adcc                MD5Final
 .text.Transform
                0x0804af10      0xd50 C:\PROGRA~2\VT3_8920\VT3\RESOUR~1\targets\CANVIEW4\lib\lld\libCANView4.a(MD5.o)
 .text.MDPrint  0x0804bc60       0x84 C:\PROGRA~2\VT3_8920\VT3\RESOUR~1\targets\CANVIEW4\lib\lld\libCANView4.a(MD5.o)
                0x0804bc60                MDPrint
 .text.MDString
                0x0804bce4       0x48 C:\PROGRA~2\VT3_8920\VT3\RESOUR~1\targets\CANVIEW4\lib\lld\libCANView4.a(MD5.o)
                0x0804bce4                MDString
 .text.MDbuffer
                0x0804bd2c       0x46 C:\PROGRA~2\VT3_8920\VT3\RESOUR~1\targets\CANVIEW4\lib\lld\libCANView4.a(MD5.o)
                0x0804bd2c                MDbuffer
 *fill*         0x0804bd72        0x2 
 .text.MDFile   0x0804bd74       0xa0 C:\PROGRA~2\VT3_8920\VT3\RESOUR~1\targets\CANVIEW4\lib\lld\libCANView4.a(MD5.o)
 .text.RTC_init
                0x0804be14       0x5c C:\PROGRA~2\VT3_8920\VT3\RESOUR~1\targets\CANVIEW4\lib\lld\libCANView4.a(RTC.o)
                0x0804be14                RTC_init
 .text.RTC_ReadTime
                0x0804be70       0x90 C:\PROGRA~2\VT3_8920\VT3\RESOUR~1\targets\CANVIEW4\lib\lld\libCANView4.a(RTC.o)
                0x0804be70                RTC_ReadTime
 .text.RTC_WriteTime
                0x0804bf00       0xfc C:\PROGRA~2\VT3_8920\VT3\RESOUR~1\targets\CANVIEW4\lib\lld\libCANView4.a(RTC.o)
                0x0804bf00                RTC_WriteTime
 .text.RTC_Read_Status
                0x0804bffc       0x88 C:\PROGRA~2\VT3_8920\VT3\RESOUR~1\targets\CANVIEW4\lib\lld\libCANView4.a(CANView4_Mem_RTC.o)
                0x0804bffc                RTC_Read_Status
 .text.RTC_Read_Buffer
                0x0804c084       0x70 C:\PROGRA~2\VT3_8920\VT3\RESOUR~1\targets\CANVIEW4\lib\lld\libCANView4.a(CANView4_Mem_RTC.o)
                0x0804c084                RTC_Read_Buffer
 .text.RTC_Write_Buffer
                0x0804c0f4       0xdc C:\PROGRA~2\VT3_8920\VT3\RESOUR~1\targets\CANVIEW4\lib\lld\libCANView4.a(CANView4_Mem_RTC.o)
                0x0804c0f4                RTC_Write_Buffer
 .text.RTC_Corrupts_CRC
                0x0804c1d0       0x40 C:\PROGRA~2\VT3_8920\VT3\RESOUR~1\targets\CANVIEW4\lib\lld\libCANView4.a(CANView4_Mem_RTC.o)
                0x0804c1d0                RTC_Corrupts_CRC
 .text.RTC_Corrupts_Data
                0x0804c210       0x50 C:\PROGRA~2\VT3_8920\VT3\RESOUR~1\targets\CANVIEW4\lib\lld\libCANView4.a(CANView4_Mem_RTC.o)
                0x0804c210                RTC_Corrupts_Data
 .text.RTC_Test
                0x0804c260      0x140 C:\PROGRA~2\VT3_8920\VT3\RESOUR~1\targets\CANVIEW4\lib\lld\libCANView4.a(CANView4_Mem_RTC.o)
                0x0804c260                RTC_Test
 .text.TVP5150_Enable
                0x0804c3a0       0x18 C:\PROGRA~2\VT3_8920\VT3\RESOUR~1\targets\CANVIEW4\lib\lld\libCANView4.a(TVP5150.o)
                0x0804c3a0                TVP5150_Enable
 .text.TVP5150_Disable
                0x0804c3b8       0x18 C:\PROGRA~2\VT3_8920\VT3\RESOUR~1\targets\CANVIEW4\lib\lld\libCANView4.a(TVP5150.o)
                0x0804c3b8                TVP5150_Disable
 .text.TVP5150_Init
                0x0804c3d0       0x88 C:\PROGRA~2\VT3_8920\VT3\RESOUR~1\targets\CANVIEW4\lib\lld\libCANView4.a(TVP5150.o)
                0x0804c3d0                TVP5150_Init
 .text.TVP5150_Write_Reg
                0x0804c458       0x48 C:\PROGRA~2\VT3_8920\VT3\RESOUR~1\targets\CANVIEW4\lib\lld\libCANView4.a(TVP5150.o)
                0x0804c458                TVP5150_Write_Reg
 .text.TVP5150_Read_Reg
                0x0804c4a0       0x5c C:\PROGRA~2\VT3_8920\VT3\RESOUR~1\targets\CANVIEW4\lib\lld\libCANView4.a(TVP5150.o)
                0x0804c4a0                TVP5150_Read_Reg
 .text.TVP5150_Transmit
                0x0804c4fc       0x40 C:\PROGRA~2\VT3_8920\VT3\RESOUR~1\targets\CANVIEW4\lib\lld\libCANView4.a(TVP5150.o)
                0x0804c4fc                TVP5150_Transmit
 .text.TVP5150_Receive
                0x0804c53c       0x40 C:\PROGRA~2\VT3_8920\VT3\RESOUR~1\targets\CANVIEW4\lib\lld\libCANView4.a(TVP5150.o)
                0x0804c53c                TVP5150_Receive
 .text.TVP5150_Set_Offset
                0x0804c57c       0x94 C:\PROGRA~2\VT3_8920\VT3\RESOUR~1\targets\CANVIEW4\lib\lld\libCANView4.a(TVP5150.o)
                0x0804c57c                TVP5150_Set_Offset
 .text.TVP5150_Set_Input
                0x0804c610       0x56 C:\PROGRA~2\VT3_8920\VT3\RESOUR~1\targets\CANVIEW4\lib\lld\libCANView4.a(TVP5150.o)
                0x0804c610                TVP5150_Set_Input
 .text.TVP5150_Set_Brightness
                0x0804c666       0x2c C:\PROGRA~2\VT3_8920\VT3\RESOUR~1\targets\CANVIEW4\lib\lld\libCANView4.a(TVP5150.o)
                0x0804c666                TVP5150_Set_Brightness
 .text.TVP5150_Set_Color
                0x0804c692       0x2c C:\PROGRA~2\VT3_8920\VT3\RESOUR~1\targets\CANVIEW4\lib\lld\libCANView4.a(TVP5150.o)
                0x0804c692                TVP5150_Set_Color
 .text.TVP5150_Set_Contrast
                0x0804c6be       0x2c C:\PROGRA~2\VT3_8920\VT3\RESOUR~1\targets\CANVIEW4\lib\lld\libCANView4.a(TVP5150.o)
                0x0804c6be                TVP5150_Set_Contrast
 .text.TVP5150_Video_Lock
                0x0804c6ea       0x36 C:\PROGRA~2\VT3_8920\VT3\RESOUR~1\targets\CANVIEW4\lib\lld\libCANView4.a(TVP5150.o)
                0x0804c6ea                TVP5150_Video_Lock
 .text.TVP5150_Video_Color
                0x0804c720       0x36 C:\PROGRA~2\VT3_8920\VT3\RESOUR~1\targets\CANVIEW4\lib\lld\libCANView4.a(TVP5150.o)
                0x0804c720                TVP5150_Video_Color
 .text.TVP5150_Get_Frame_Type
                0x0804c756       0x34 C:\PROGRA~2\VT3_8920\VT3\RESOUR~1\targets\CANVIEW4\lib\lld\libCANView4.a(TVP5150.o)
                0x0804c756                TVP5150_Get_Frame_Type
 *fill*         0x0804c78a        0x2 
 .text.TVP5150_Get_Video_Format
                0x0804c78c       0x74 C:\PROGRA~2\VT3_8920\VT3\RESOUR~1\targets\CANVIEW4\lib\lld\libCANView4.a(TVP5150.o)
                0x0804c78c                TVP5150_Get_Video_Format
 .text.init_USB
                0x0804c800       0x10 C:\PROGRA~2\VT3_8920\VT3\RESOUR~1\targets\CANVIEW4\lib\lld\libCANView4.a(USB_Utilities.o)
                0x0804c800                init_USB
 .text.USB_mount
                0x0804c810       0x40 C:\PROGRA~2\VT3_8920\VT3\RESOUR~1\targets\CANVIEW4\lib\lld\libCANView4.a(USB_Utilities.o)
                0x0804c810                USB_mount
 .text.USB_unmount
                0x0804c850       0x30 C:\PROGRA~2\VT3_8920\VT3\RESOUR~1\targets\CANVIEW4\lib\lld\libCANView4.a(USB_Utilities.o)
                0x0804c850                USB_unmount
 .text.USB_file_open
                0x0804c880       0x34 C:\PROGRA~2\VT3_8920\VT3\RESOUR~1\targets\CANVIEW4\lib\lld\libCANView4.a(USB_Utilities.o)
                0x0804c880                USB_file_open
 .text.USB_file_close
                0x0804c8b4       0x28 C:\PROGRA~2\VT3_8920\VT3\RESOUR~1\targets\CANVIEW4\lib\lld\libCANView4.a(USB_Utilities.o)
                0x0804c8b4                USB_file_close
 .text.USB_file_read
                0x0804c8dc       0x34 C:\PROGRA~2\VT3_8920\VT3\RESOUR~1\targets\CANVIEW4\lib\lld\libCANView4.a(USB_Utilities.o)
                0x0804c8dc                USB_file_read
 .text.USB_file_write
                0x0804c910       0x34 C:\PROGRA~2\VT3_8920\VT3\RESOUR~1\targets\CANVIEW4\lib\lld\libCANView4.a(USB_Utilities.o)
                0x0804c910                USB_file_write
 .text.SwapWord
                0x0804c944       0x36 C:\PROGRA~2\VT3_8920\VT3\RESOUR~1\targets\CANVIEW4\lib\lld\libCANView4.a(Utilities.o)
                0x0804c944                SwapWord
 .text.SwapHWord
                0x0804c97a       0x2c C:\PROGRA~2\VT3_8920\VT3\RESOUR~1\targets\CANVIEW4\lib\lld\libCANView4.a(Utilities.o)
                0x0804c97a                SwapHWord
 .text.mem_cpy  0x0804c9a6       0x3c C:\PROGRA~2\VT3_8920\VT3\RESOUR~1\targets\CANVIEW4\lib\lld\libCANView4.a(ff.o)
 .text.mem_set  0x0804c9e2       0x34 C:\PROGRA~2\VT3_8920\VT3\RESOUR~1\targets\CANVIEW4\lib\lld\libCANView4.a(ff.o)
 .text.mem_cmp  0x0804ca16       0x4e C:\PROGRA~2\VT3_8920\VT3\RESOUR~1\targets\CANVIEW4\lib\lld\libCANView4.a(ff.o)
 .text.chk_chr  0x0804ca64       0x36 C:\PROGRA~2\VT3_8920\VT3\RESOUR~1\targets\CANVIEW4\lib\lld\libCANView4.a(ff.o)
 *fill*         0x0804ca9a        0x2 
 .text.chk_lock
                0x0804ca9c       0xdc C:\PROGRA~2\VT3_8920\VT3\RESOUR~1\targets\CANVIEW4\lib\lld\libCANView4.a(ff.o)
 .text.enq_lock
                0x0804cb78       0x48 C:\PROGRA~2\VT3_8920\VT3\RESOUR~1\targets\CANVIEW4\lib\lld\libCANView4.a(ff.o)
 .text.inc_lock
                0x0804cbc0      0x170 C:\PROGRA~2\VT3_8920\VT3\RESOUR~1\targets\CANVIEW4\lib\lld\libCANView4.a(ff.o)
 .text.dec_lock
                0x0804cd30       0x88 C:\PROGRA~2\VT3_8920\VT3\RESOUR~1\targets\CANVIEW4\lib\lld\libCANView4.a(ff.o)
 .text.clear_lock
                0x0804cdb8       0x54 C:\PROGRA~2\VT3_8920\VT3\RESOUR~1\targets\CANVIEW4\lib\lld\libCANView4.a(ff.o)
 .text.sync_window
                0x0804ce0c       0x92 C:\PROGRA~2\VT3_8920\VT3\RESOUR~1\targets\CANVIEW4\lib\lld\libCANView4.a(ff.o)
 .text.move_window
                0x0804ce9e       0x5c C:\PROGRA~2\VT3_8920\VT3\RESOUR~1\targets\CANVIEW4\lib\lld\libCANView4.a(ff.o)
 .text.sync_fs  0x0804cefa      0x15a C:\PROGRA~2\VT3_8920\VT3\RESOUR~1\targets\CANVIEW4\lib\lld\libCANView4.a(ff.o)
 .text.clust2sect
                0x0804d054       0x44 C:\PROGRA~2\VT3_8920\VT3\RESOUR~1\targets\CANVIEW4\lib\lld\libCANView4.a(ff.o)
                0x0804d054                clust2sect
 .text.get_fat  0x0804d098      0x16e C:\PROGRA~2\VT3_8920\VT3\RESOUR~1\targets\CANVIEW4\lib\lld\libCANView4.a(ff.o)
                0x0804d098                get_fat
 .text.put_fat  0x0804d206      0x216 C:\PROGRA~2\VT3_8920\VT3\RESOUR~1\targets\CANVIEW4\lib\lld\libCANView4.a(ff.o)
                0x0804d206                put_fat
 .text.remove_chain
                0x0804d41c       0xb4 C:\PROGRA~2\VT3_8920\VT3\RESOUR~1\targets\CANVIEW4\lib\lld\libCANView4.a(ff.o)
 .text.create_chain
                0x0804d4d0      0x13a C:\PROGRA~2\VT3_8920\VT3\RESOUR~1\targets\CANVIEW4\lib\lld\libCANView4.a(ff.o)
 .text.clmt_clust
                0x0804d60a       0x6a C:\PROGRA~2\VT3_8920\VT3\RESOUR~1\targets\CANVIEW4\lib\lld\libCANView4.a(ff.o)
 .text.dir_sdi  0x0804d674      0x128 C:\PROGRA~2\VT3_8920\VT3\RESOUR~1\targets\CANVIEW4\lib\lld\libCANView4.a(ff.o)
 .text.dir_next
                0x0804d79c      0x1ee C:\PROGRA~2\VT3_8920\VT3\RESOUR~1\targets\CANVIEW4\lib\lld\libCANView4.a(ff.o)
 .text.dir_alloc
                0x0804d98a       0x94 C:\PROGRA~2\VT3_8920\VT3\RESOUR~1\targets\CANVIEW4\lib\lld\libCANView4.a(ff.o)
 .text.ld_clust
                0x0804da1e       0x5c C:\PROGRA~2\VT3_8920\VT3\RESOUR~1\targets\CANVIEW4\lib\lld\libCANView4.a(ff.o)
 .text.st_clust
                0x0804da7a       0x4e C:\PROGRA~2\VT3_8920\VT3\RESOUR~1\targets\CANVIEW4\lib\lld\libCANView4.a(ff.o)
 .text.cmp_lfn  0x0804dac8       0xdc C:\PROGRA~2\VT3_8920\VT3\RESOUR~1\targets\CANVIEW4\lib\lld\libCANView4.a(ff.o)
 .text.pick_lfn
                0x0804dba4       0xc8 C:\PROGRA~2\VT3_8920\VT3\RESOUR~1\targets\CANVIEW4\lib\lld\libCANView4.a(ff.o)
 .text.fit_lfn  0x0804dc6c       0xec C:\PROGRA~2\VT3_8920\VT3\RESOUR~1\targets\CANVIEW4\lib\lld\libCANView4.a(ff.o)
 .text.gen_numname
                0x0804dd58      0x11e C:\PROGRA~2\VT3_8920\VT3\RESOUR~1\targets\CANVIEW4\lib\lld\libCANView4.a(ff.o)
 .text.sum_sfn  0x0804de76       0x42 C:\PROGRA~2\VT3_8920\VT3\RESOUR~1\targets\CANVIEW4\lib\lld\libCANView4.a(ff.o)
 .text.dir_find
                0x0804deb8      0x180 C:\PROGRA~2\VT3_8920\VT3\RESOUR~1\targets\CANVIEW4\lib\lld\libCANView4.a(ff.o)
 .text.dir_read
                0x0804e038      0x14e C:\PROGRA~2\VT3_8920\VT3\RESOUR~1\targets\CANVIEW4\lib\lld\libCANView4.a(ff.o)
 *fill*         0x0804e186        0x2 
 .text.dir_register
                0x0804e188      0x21c C:\PROGRA~2\VT3_8920\VT3\RESOUR~1\targets\CANVIEW4\lib\lld\libCANView4.a(ff.o)
 .text.dir_remove
                0x0804e3a4       0xba C:\PROGRA~2\VT3_8920\VT3\RESOUR~1\targets\CANVIEW4\lib\lld\libCANView4.a(ff.o)
 .text.get_fileinfo
                0x0804e45e      0x19c C:\PROGRA~2\VT3_8920\VT3\RESOUR~1\targets\CANVIEW4\lib\lld\libCANView4.a(ff.o)
 *fill*         0x0804e5fa        0x2 
 .text.create_name
                0x0804e5fc      0x370 C:\PROGRA~2\VT3_8920\VT3\RESOUR~1\targets\CANVIEW4\lib\lld\libCANView4.a(ff.o)
 .text.follow_path
                0x0804e96c       0xdc C:\PROGRA~2\VT3_8920\VT3\RESOUR~1\targets\CANVIEW4\lib\lld\libCANView4.a(ff.o)
 .text.get_ldnumber
                0x0804ea48       0x88 C:\PROGRA~2\VT3_8920\VT3\RESOUR~1\targets\CANVIEW4\lib\lld\libCANView4.a(ff.o)
 .text.check_fs
                0x0804ead0       0xd4 C:\PROGRA~2\VT3_8920\VT3\RESOUR~1\targets\CANVIEW4\lib\lld\libCANView4.a(ff.o)
 .text.find_volume
                0x0804eba4      0x594 C:\PROGRA~2\VT3_8920\VT3\RESOUR~1\targets\CANVIEW4\lib\lld\libCANView4.a(ff.o)
 .text.validate
                0x0804f138       0x66 C:\PROGRA~2\VT3_8920\VT3\RESOUR~1\targets\CANVIEW4\lib\lld\libCANView4.a(ff.o)
 *fill*         0x0804f19e        0x2 
 .text.f_mount  0x0804f1a0       0x90 C:\PROGRA~2\VT3_8920\VT3\RESOUR~1\targets\CANVIEW4\lib\lld\libCANView4.a(ff.o)
                0x0804f1a0                f_mount
 .text.f_open   0x0804f230      0x424 C:\PROGRA~2\VT3_8920\VT3\RESOUR~1\targets\CANVIEW4\lib\lld\libCANView4.a(ff.o)
                0x0804f230                f_open
 .text.f_read   0x0804f654      0x2d6 C:\PROGRA~2\VT3_8920\VT3\RESOUR~1\targets\CANVIEW4\lib\lld\libCANView4.a(ff.o)
                0x0804f654                f_read
 .text.f_write  0x0804f92a      0x35a C:\PROGRA~2\VT3_8920\VT3\RESOUR~1\targets\CANVIEW4\lib\lld\libCANView4.a(ff.o)
                0x0804f92a                f_write
 .text.f_sync   0x0804fc84      0x174 C:\PROGRA~2\VT3_8920\VT3\RESOUR~1\targets\CANVIEW4\lib\lld\libCANView4.a(ff.o)
                0x0804fc84                f_sync
 .text.f_close  0x0804fdf8       0x50 C:\PROGRA~2\VT3_8920\VT3\RESOUR~1\targets\CANVIEW4\lib\lld\libCANView4.a(ff.o)
                0x0804fdf8                f_close
 .text.f_lseek  0x0804fe48      0x4bc C:\PROGRA~2\VT3_8920\VT3\RESOUR~1\targets\CANVIEW4\lib\lld\libCANView4.a(ff.o)
                0x0804fe48                f_lseek
 .text.f_opendir
                0x08050304      0x110 C:\PROGRA~2\VT3_8920\VT3\RESOUR~1\targets\CANVIEW4\lib\lld\libCANView4.a(ff.o)
                0x08050304                f_opendir
 .text.f_closedir
                0x08050414       0x4a C:\PROGRA~2\VT3_8920\VT3\RESOUR~1\targets\CANVIEW4\lib\lld\libCANView4.a(ff.o)
                0x08050414                f_closedir
 *fill*         0x0805045e        0x2 
 .text.f_readdir
                0x08050460       0x98 C:\PROGRA~2\VT3_8920\VT3\RESOUR~1\targets\CANVIEW4\lib\lld\libCANView4.a(ff.o)
                0x08050460                f_readdir
 .text.f_stat   0x080504f8       0xa0 C:\PROGRA~2\VT3_8920\VT3\RESOUR~1\targets\CANVIEW4\lib\lld\libCANView4.a(ff.o)
                0x080504f8                f_stat
 .text.f_getfree
                0x08050598      0x19a C:\PROGRA~2\VT3_8920\VT3\RESOUR~1\targets\CANVIEW4\lib\lld\libCANView4.a(ff.o)
                0x08050598                f_getfree
 .text.f_truncate
                0x08050732      0x17c C:\PROGRA~2\VT3_8920\VT3\RESOUR~1\targets\CANVIEW4\lib\lld\libCANView4.a(ff.o)
                0x08050732                f_truncate
 *fill*         0x080508ae        0x2 
 .text.f_unlink
                0x080508b0      0x1c0 C:\PROGRA~2\VT3_8920\VT3\RESOUR~1\targets\CANVIEW4\lib\lld\libCANView4.a(ff.o)
                0x080508b0                f_unlink
 .text.f_mkdir  0x08050a70      0x328 C:\PROGRA~2\VT3_8920\VT3\RESOUR~1\targets\CANVIEW4\lib\lld\libCANView4.a(ff.o)
                0x08050a70                f_mkdir
 .text.f_chmod  0x08050d98       0xf8 C:\PROGRA~2\VT3_8920\VT3\RESOUR~1\targets\CANVIEW4\lib\lld\libCANView4.a(ff.o)
                0x08050d98                f_chmod
 .text.f_rename
                0x08050e90      0x270 C:\PROGRA~2\VT3_8920\VT3\RESOUR~1\targets\CANVIEW4\lib\lld\libCANView4.a(ff.o)
                0x08050e90                f_rename
 .text.f_utime  0x08051100       0xfc C:\PROGRA~2\VT3_8920\VT3\RESOUR~1\targets\CANVIEW4\lib\lld\libCANView4.a(ff.o)
                0x08051100                f_utime
 .text.f_mkfs   0x080511fc      0x93c C:\PROGRA~2\VT3_8920\VT3\RESOUR~1\targets\CANVIEW4\lib\lld\libCANView4.a(ff.o)
                0x080511fc                f_mkfs
 .text.f_gets   0x08051b38       0x7a C:\PROGRA~2\VT3_8920\VT3\RESOUR~1\targets\CANVIEW4\lib\lld\libCANView4.a(ff.o)
                0x08051b38                f_gets
 .text.putc_bfd
                0x08051bb2       0x7a C:\PROGRA~2\VT3_8920\VT3\RESOUR~1\targets\CANVIEW4\lib\lld\libCANView4.a(ff.o)
 .text.f_putc   0x08051c2c       0x66 C:\PROGRA~2\VT3_8920\VT3\RESOUR~1\targets\CANVIEW4\lib\lld\libCANView4.a(ff.o)
                0x08051c2c                f_putc
 .text.f_puts   0x08051c92       0x74 C:\PROGRA~2\VT3_8920\VT3\RESOUR~1\targets\CANVIEW4\lib\lld\libCANView4.a(ff.o)
                0x08051c92                f_puts
 *fill*         0x08051d06        0x2 
 .text.f_printf
                0x08051d08      0x434 C:\PROGRA~2\VT3_8920\VT3\RESOUR~1\targets\CANVIEW4\lib\lld\libCANView4.a(ff.o)
                0x08051d08                f_printf
 .text.makeFreeRtosPriority
                0x0805213c       0x30 C:\PROGRA~2\VT3_8920\VT3\RESOUR~1\targets\CANVIEW4\lib\lld\libCANView4.a(cmsis_os.o)
 .text.makeCmsisPriority
                0x0805216c       0x2c C:\PROGRA~2\VT3_8920\VT3\RESOUR~1\targets\CANVIEW4\lib\lld\libCANView4.a(cmsis_os.o)
 .text.inHandlerMode
                0x08052198       0x24 C:\PROGRA~2\VT3_8920\VT3\RESOUR~1\targets\CANVIEW4\lib\lld\libCANView4.a(cmsis_os.o)
 .text.osKernelStart
                0x080521bc        0xe C:\PROGRA~2\VT3_8920\VT3\RESOUR~1\targets\CANVIEW4\lib\lld\libCANView4.a(cmsis_os.o)
                0x080521bc                osKernelStart
 .text.osKernelRunning
                0x080521ca       0x18 C:\PROGRA~2\VT3_8920\VT3\RESOUR~1\targets\CANVIEW4\lib\lld\libCANView4.a(cmsis_os.o)
                0x080521ca                osKernelRunning
 .text.osKernelSysTick
                0x080521e2       0x20 C:\PROGRA~2\VT3_8920\VT3\RESOUR~1\targets\CANVIEW4\lib\lld\libCANView4.a(cmsis_os.o)
                0x080521e2                osKernelSysTick
 .text.osThreadCreate
                0x08052202       0x56 C:\PROGRA~2\VT3_8920\VT3\RESOUR~1\targets\CANVIEW4\lib\lld\libCANView4.a(cmsis_os.o)
                0x08052202                osThreadCreate
 .text.osThreadGetId
                0x08052258        0xe C:\PROGRA~2\VT3_8920\VT3\RESOUR~1\targets\CANVIEW4\lib\lld\libCANView4.a(cmsis_os.o)
                0x08052258                osThreadGetId
 .text.osThreadTerminate
                0x08052266       0x18 C:\PROGRA~2\VT3_8920\VT3\RESOUR~1\targets\CANVIEW4\lib\lld\libCANView4.a(cmsis_os.o)
                0x08052266                osThreadTerminate
 *fill*         0x0805227e        0x2 
 .text.osThreadYield
                0x08052280       0x24 C:\PROGRA~2\VT3_8920\VT3\RESOUR~1\targets\CANVIEW4\lib\lld\libCANView4.a(cmsis_os.o)
                0x08052280                osThreadYield
 .text.osThreadSetPriority
                0x080522a4       0x2a C:\PROGRA~2\VT3_8920\VT3\RESOUR~1\targets\CANVIEW4\lib\lld\libCANView4.a(cmsis_os.o)
                0x080522a4                osThreadSetPriority
 .text.osThreadGetPriority
                0x080522ce       0x3c C:\PROGRA~2\VT3_8920\VT3\RESOUR~1\targets\CANVIEW4\lib\lld\libCANView4.a(cmsis_os.o)
                0x080522ce                osThreadGetPriority
 .text.osDelay  0x0805230a       0x28 C:\PROGRA~2\VT3_8920\VT3\RESOUR~1\targets\CANVIEW4\lib\lld\libCANView4.a(cmsis_os.o)
                0x0805230a                osDelay
 .text.osTimerCreate
                0x08052332       0x1c C:\PROGRA~2\VT3_8920\VT3\RESOUR~1\targets\CANVIEW4\lib\lld\libCANView4.a(cmsis_os.o)
                0x08052332                osTimerCreate
 .text.osTimerStart
                0x0805234e       0x20 C:\PROGRA~2\VT3_8920\VT3\RESOUR~1\targets\CANVIEW4\lib\lld\libCANView4.a(cmsis_os.o)
                0x0805234e                osTimerStart
 .text.osTimerStop
                0x0805236e       0x1e C:\PROGRA~2\VT3_8920\VT3\RESOUR~1\targets\CANVIEW4\lib\lld\libCANView4.a(cmsis_os.o)
                0x0805236e                osTimerStop
 .text.osTimerDelete
                0x0805238c       0x1e C:\PROGRA~2\VT3_8920\VT3\RESOUR~1\targets\CANVIEW4\lib\lld\libCANView4.a(cmsis_os.o)
                0x0805238c                osTimerDelete
 *fill*         0x080523aa        0x2 
 .text.osSignalSet
                0x080523ac       0x6c C:\PROGRA~2\VT3_8920\VT3\RESOUR~1\targets\CANVIEW4\lib\lld\libCANView4.a(cmsis_os.o)
                0x080523ac                osSignalSet
 .text.osSignalWait
                0x08052418       0x98 C:\PROGRA~2\VT3_8920\VT3\RESOUR~1\targets\CANVIEW4\lib\lld\libCANView4.a(cmsis_os.o)
                0x08052418                osSignalWait
 .text.osMutexCreate
                0x080524b0       0x18 C:\PROGRA~2\VT3_8920\VT3\RESOUR~1\targets\CANVIEW4\lib\lld\libCANView4.a(cmsis_os.o)
                0x080524b0                osMutexCreate
 .text.osMutexWait
                0x080524c8       0xa0 C:\PROGRA~2\VT3_8920\VT3\RESOUR~1\targets\CANVIEW4\lib\lld\libCANView4.a(cmsis_os.o)
                0x080524c8                osMutexWait
 .text.osMutexRelease
                0x08052568       0x6c C:\PROGRA~2\VT3_8920\VT3\RESOUR~1\targets\CANVIEW4\lib\lld\libCANView4.a(cmsis_os.o)
                0x08052568                osMutexRelease
 .text.osMutexDelete
                0x080525d4       0x26 C:\PROGRA~2\VT3_8920\VT3\RESOUR~1\targets\CANVIEW4\lib\lld\libCANView4.a(cmsis_os.o)
                0x080525d4                osMutexDelete
 .text.osSemaphoreCreate
                0x080525fa       0x46 C:\PROGRA~2\VT3_8920\VT3\RESOUR~1\targets\CANVIEW4\lib\lld\libCANView4.a(cmsis_os.o)
                0x080525fa                osSemaphoreCreate
 .text.osSemaphoreWait
                0x08052640       0xa0 C:\PROGRA~2\VT3_8920\VT3\RESOUR~1\targets\CANVIEW4\lib\lld\libCANView4.a(cmsis_os.o)
                0x08052640                osSemaphoreWait
 .text.osSemaphoreRelease
                0x080526e0       0x6c C:\PROGRA~2\VT3_8920\VT3\RESOUR~1\targets\CANVIEW4\lib\lld\libCANView4.a(cmsis_os.o)
                0x080526e0                osSemaphoreRelease
 .text.osSemaphoreDelete
                0x0805274c       0x26 C:\PROGRA~2\VT3_8920\VT3\RESOUR~1\targets\CANVIEW4\lib\lld\libCANView4.a(cmsis_os.o)
                0x0805274c                osSemaphoreDelete
 .text.osPoolCreate
                0x08052772       0xba C:\PROGRA~2\VT3_8920\VT3\RESOUR~1\targets\CANVIEW4\lib\lld\libCANView4.a(cmsis_os.o)
                0x08052772                osPoolCreate
 .text.osPoolAlloc
                0x0805282c       0xc4 C:\PROGRA~2\VT3_8920\VT3\RESOUR~1\targets\CANVIEW4\lib\lld\libCANView4.a(cmsis_os.o)
                0x0805282c                osPoolAlloc
 .text.osPoolCAlloc
                0x080528f0       0x2a C:\PROGRA~2\VT3_8920\VT3\RESOUR~1\targets\CANVIEW4\lib\lld\libCANView4.a(cmsis_os.o)
                0x080528f0                osPoolCAlloc
 .text.osPoolFree
                0x0805291a       0x82 C:\PROGRA~2\VT3_8920\VT3\RESOUR~1\targets\CANVIEW4\lib\lld\libCANView4.a(cmsis_os.o)
                0x0805291a                osPoolFree
 .text.osMessageCreate
                0x0805299c       0x24 C:\PROGRA~2\VT3_8920\VT3\RESOUR~1\targets\CANVIEW4\lib\lld\libCANView4.a(cmsis_os.o)
                0x0805299c                osMessageCreate
 .text.osMessagePut
                0x080529c0       0x80 C:\PROGRA~2\VT3_8920\VT3\RESOUR~1\targets\CANVIEW4\lib\lld\libCANView4.a(cmsis_os.o)
                0x080529c0                osMessagePut
 .text.osMessageGet
                0x08052a40       0xe8 C:\PROGRA~2\VT3_8920\VT3\RESOUR~1\targets\CANVIEW4\lib\lld\libCANView4.a(cmsis_os.o)
                0x08052a40                osMessageGet
 .text.osMailCreate
                0x08052b28       0xb8 C:\PROGRA~2\VT3_8920\VT3\RESOUR~1\targets\CANVIEW4\lib\lld\libCANView4.a(cmsis_os.o)
                0x08052b28                osMailCreate
 .text.osMailAlloc
                0x08052be0       0x2a C:\PROGRA~2\VT3_8920\VT3\RESOUR~1\targets\CANVIEW4\lib\lld\libCANView4.a(cmsis_os.o)
                0x08052be0                osMailAlloc
 .text.osMailCAlloc
                0x08052c0a       0x40 C:\PROGRA~2\VT3_8920\VT3\RESOUR~1\targets\CANVIEW4\lib\lld\libCANView4.a(cmsis_os.o)
                0x08052c0a                osMailCAlloc
 *fill*         0x08052c4a        0x2 
 .text.osMailPut
                0x08052c4c       0x7c C:\PROGRA~2\VT3_8920\VT3\RESOUR~1\targets\CANVIEW4\lib\lld\libCANView4.a(cmsis_os.o)
                0x08052c4c                osMailPut
 .text.osMailGet
                0x08052cc8       0xe8 C:\PROGRA~2\VT3_8920\VT3\RESOUR~1\targets\CANVIEW4\lib\lld\libCANView4.a(cmsis_os.o)
                0x08052cc8                osMailGet
 .text.osMailFree
                0x08052db0       0x2a C:\PROGRA~2\VT3_8920\VT3\RESOUR~1\targets\CANVIEW4\lib\lld\libCANView4.a(cmsis_os.o)
                0x08052db0                osMailFree
 .text.osSystickHandler
                0x08052dda       0x16 C:\PROGRA~2\VT3_8920\VT3\RESOUR~1\targets\CANVIEW4\lib\lld\libCANView4.a(cmsis_os.o)
                0x08052dda                osSystickHandler
 .text.osThreadSuspend
                0x08052df0       0x18 C:\PROGRA~2\VT3_8920\VT3\RESOUR~1\targets\CANVIEW4\lib\lld\libCANView4.a(cmsis_os.o)
                0x08052df0                osThreadSuspend
 .text.osThreadResume
                0x08052e08       0x44 C:\PROGRA~2\VT3_8920\VT3\RESOUR~1\targets\CANVIEW4\lib\lld\libCANView4.a(cmsis_os.o)
                0x08052e08                osThreadResume
 .text.osThreadSuspendAll
                0x08052e4c        0xe C:\PROGRA~2\VT3_8920\VT3\RESOUR~1\targets\CANVIEW4\lib\lld\libCANView4.a(cmsis_os.o)
                0x08052e4c                osThreadSuspendAll
 .text.osThreadResumeAll
                0x08052e5a       0x18 C:\PROGRA~2\VT3_8920\VT3\RESOUR~1\targets\CANVIEW4\lib\lld\libCANView4.a(cmsis_os.o)
                0x08052e5a                osThreadResumeAll
 .text.osDelayUntil
                0x08052e72       0x18 C:\PROGRA~2\VT3_8920\VT3\RESOUR~1\targets\CANVIEW4\lib\lld\libCANView4.a(cmsis_os.o)
                0x08052e72                osDelayUntil
 .text.osThreadList
                0x08052e8a       0x16 C:\PROGRA~2\VT3_8920\VT3\RESOUR~1\targets\CANVIEW4\lib\lld\libCANView4.a(cmsis_os.o)
                0x08052e8a                osThreadList
 .text.osMessagePeek
                0x08052ea0       0x96 C:\PROGRA~2\VT3_8920\VT3\RESOUR~1\targets\CANVIEW4\lib\lld\libCANView4.a(cmsis_os.o)
                0x08052ea0                osMessagePeek
 .text.osRecursiveMutexCreate
                0x08052f36       0x18 C:\PROGRA~2\VT3_8920\VT3\RESOUR~1\targets\CANVIEW4\lib\lld\libCANView4.a(cmsis_os.o)
                0x08052f36                osRecursiveMutexCreate
 .text.osRecursiveMutexRelease
                0x08052f4e       0x26 C:\PROGRA~2\VT3_8920\VT3\RESOUR~1\targets\CANVIEW4\lib\lld\libCANView4.a(cmsis_os.o)
                0x08052f4e                osRecursiveMutexRelease
 .text.osRecursiveMutexWait
                0x08052f74       0x58 C:\PROGRA~2\VT3_8920\VT3\RESOUR~1\targets\CANVIEW4\lib\lld\libCANView4.a(cmsis_os.o)
                0x08052f74                osRecursiveMutexWait
 .text.pvPortMalloc
                0x08052fcc      0x184 C:\PROGRA~2\VT3_8920\VT3\RESOUR~1\targets\CANVIEW4\lib\lld\libCANView4.a(heap_4.o)
                0x08052fcc                pvPortMalloc
 .text.vPortFree
                0x08053150       0xb0 C:\PROGRA~2\VT3_8920\VT3\RESOUR~1\targets\CANVIEW4\lib\lld\libCANView4.a(heap_4.o)
                0x08053150                vPortFree
 .text.xPortGetFreeHeapSize
                0x08053200       0x18 C:\PROGRA~2\VT3_8920\VT3\RESOUR~1\targets\CANVIEW4\lib\lld\libCANView4.a(heap_4.o)
                0x08053200                xPortGetFreeHeapSize
 .text.xPortGetMinimumEverFreeHeapSize
                0x08053218       0x18 C:\PROGRA~2\VT3_8920\VT3\RESOUR~1\targets\CANVIEW4\lib\lld\libCANView4.a(heap_4.o)
                0x08053218                xPortGetMinimumEverFreeHeapSize
 .text.vPortInitialiseBlocks
                0x08053230        0xe C:\PROGRA~2\VT3_8920\VT3\RESOUR~1\targets\CANVIEW4\lib\lld\libCANView4.a(heap_4.o)
                0x08053230                vPortInitialiseBlocks
 *fill*         0x0805323e        0x2 
 .text.prvHeapInit
                0x08053240       0xc4 C:\PROGRA~2\VT3_8920\VT3\RESOUR~1\targets\CANVIEW4\lib\lld\libCANView4.a(heap_4.o)
 .text.prvInsertBlockIntoFreeList
                0x08053304       0xb4 C:\PROGRA~2\VT3_8920\VT3\RESOUR~1\targets\CANVIEW4\lib\lld\libCANView4.a(heap_4.o)
 .text.pxPortInitialiseStack
                0x080533b8       0x64 C:\PROGRA~2\VT3_8920\VT3\RESOUR~1\targets\CANVIEW4\lib\lld\libCANView4.a(port.o)
                0x080533b8                pxPortInitialiseStack
 .text.prvTaskExitError
                0x0805341c       0x3c C:\PROGRA~2\VT3_8920\VT3\RESOUR~1\targets\CANVIEW4\lib\lld\libCANView4.a(port.o)
 .text.SVC_Handler
                0x08053458       0x24 C:\PROGRA~2\VT3_8920\VT3\RESOUR~1\targets\CANVIEW4\lib\lld\libCANView4.a(port.o)
                0x08053458                SVC_Handler
 .text.prvPortStartFirstTask
                0x0805347c       0x20 C:\PROGRA~2\VT3_8920\VT3\RESOUR~1\targets\CANVIEW4\lib\lld\libCANView4.a(port.o)
 .text.xPortStartScheduler
                0x0805349c      0x118 C:\PROGRA~2\VT3_8920\VT3\RESOUR~1\targets\CANVIEW4\lib\lld\libCANView4.a(port.o)
                0x0805349c                xPortStartScheduler
 .text.vPortEndScheduler
                0x080535b4       0x34 C:\PROGRA~2\VT3_8920\VT3\RESOUR~1\targets\CANVIEW4\lib\lld\libCANView4.a(port.o)
                0x080535b4                vPortEndScheduler
 .text.vPortEnterCritical
                0x080535e8       0x5c C:\PROGRA~2\VT3_8920\VT3\RESOUR~1\targets\CANVIEW4\lib\lld\libCANView4.a(port.o)
                0x080535e8                vPortEnterCritical
 .text.vPortExitCritical
                0x08053644       0x50 C:\PROGRA~2\VT3_8920\VT3\RESOUR~1\targets\CANVIEW4\lib\lld\libCANView4.a(port.o)
                0x08053644                vPortExitCritical
 .text.PendSV_Handler
                0x08053694       0x64 C:\PROGRA~2\VT3_8920\VT3\RESOUR~1\targets\CANVIEW4\lib\lld\libCANView4.a(port.o)
                0x08053694                PendSV_Handler
 .text.xPortSysTickHandler
                0x080536f8       0x48 C:\PROGRA~2\VT3_8920\VT3\RESOUR~1\targets\CANVIEW4\lib\lld\libCANView4.a(port.o)
                0x080536f8                xPortSysTickHandler
 .text.vPortSetupTimerInterrupt
                0x08053740       0x38 C:\PROGRA~2\VT3_8920\VT3\RESOUR~1\targets\CANVIEW4\lib\lld\libCANView4.a(port.o)
                0x08053740                vPortSetupTimerInterrupt
 .text.vPortEnableVFP
                0x08053778       0x14 C:\PROGRA~2\VT3_8920\VT3\RESOUR~1\targets\CANVIEW4\lib\lld\libCANView4.a(port.o)
 .text.vPortValidateInterruptPriority
                0x0805378c       0x7c C:\PROGRA~2\VT3_8920\VT3\RESOUR~1\targets\CANVIEW4\lib\lld\libCANView4.a(port.o)
                0x0805378c                vPortValidateInterruptPriority
 .text.xQueueGenericReset
                0x08053808       0xd0 C:\PROGRA~2\VT3_8920\VT3\RESOUR~1\targets\CANVIEW4\lib\lld\libCANView4.a(queue.o)
                0x08053808                xQueueGenericReset
 .text.xQueueGenericCreate
                0x080538d8       0xb6 C:\PROGRA~2\VT3_8920\VT3\RESOUR~1\targets\CANVIEW4\lib\lld\libCANView4.a(queue.o)
                0x080538d8                xQueueGenericCreate
 .text.xQueueCreateMutex
                0x0805398e       0x9e C:\PROGRA~2\VT3_8920\VT3\RESOUR~1\targets\CANVIEW4\lib\lld\libCANView4.a(queue.o)
                0x0805398e                xQueueCreateMutex
 .text.xQueueGiveMutexRecursive
                0x08053a2c       0x66 C:\PROGRA~2\VT3_8920\VT3\RESOUR~1\targets\CANVIEW4\lib\lld\libCANView4.a(queue.o)
                0x08053a2c                xQueueGiveMutexRecursive
 .text.xQueueTakeMutexRecursive
                0x08053a92       0x6e C:\PROGRA~2\VT3_8920\VT3\RESOUR~1\targets\CANVIEW4\lib\lld\libCANView4.a(queue.o)
                0x08053a92                xQueueTakeMutexRecursive
 .text.xQueueCreateCountingSemaphore
                0x08053b00       0x7c C:\PROGRA~2\VT3_8920\VT3\RESOUR~1\targets\CANVIEW4\lib\lld\libCANView4.a(queue.o)
                0x08053b00                xQueueCreateCountingSemaphore
 .text.xQueueGenericSend
                0x08053b7c      0x1e8 C:\PROGRA~2\VT3_8920\VT3\RESOUR~1\targets\CANVIEW4\lib\lld\libCANView4.a(queue.o)
                0x08053b7c                xQueueGenericSend
 .text.xQueueGenericSendFromISR
                0x08053d64      0x118 C:\PROGRA~2\VT3_8920\VT3\RESOUR~1\targets\CANVIEW4\lib\lld\libCANView4.a(queue.o)
                0x08053d64                xQueueGenericSendFromISR
 .text.xQueueGiveFromISR
                0x08053e7c      0x100 C:\PROGRA~2\VT3_8920\VT3\RESOUR~1\targets\CANVIEW4\lib\lld\libCANView4.a(queue.o)
                0x08053e7c                xQueueGiveFromISR
 .text.xQueueGenericReceive
                0x08053f7c      0x208 C:\PROGRA~2\VT3_8920\VT3\RESOUR~1\targets\CANVIEW4\lib\lld\libCANView4.a(queue.o)
                0x08053f7c                xQueueGenericReceive
 .text.xQueueReceiveFromISR
                0x08054184       0xe8 C:\PROGRA~2\VT3_8920\VT3\RESOUR~1\targets\CANVIEW4\lib\lld\libCANView4.a(queue.o)
                0x08054184                xQueueReceiveFromISR
 .text.xQueuePeekFromISR
                0x0805426c       0xca C:\PROGRA~2\VT3_8920\VT3\RESOUR~1\targets\CANVIEW4\lib\lld\libCANView4.a(queue.o)
                0x0805426c                xQueuePeekFromISR
 .text.uxQueueMessagesWaiting
                0x08054336       0x3a C:\PROGRA~2\VT3_8920\VT3\RESOUR~1\targets\CANVIEW4\lib\lld\libCANView4.a(queue.o)
                0x08054336                uxQueueMessagesWaiting
 .text.uxQueueSpacesAvailable
                0x08054370       0x44 C:\PROGRA~2\VT3_8920\VT3\RESOUR~1\targets\CANVIEW4\lib\lld\libCANView4.a(queue.o)
                0x08054370                uxQueueSpacesAvailable
 .text.uxQueueMessagesWaitingFromISR
                0x080543b4       0x36 C:\PROGRA~2\VT3_8920\VT3\RESOUR~1\targets\CANVIEW4\lib\lld\libCANView4.a(queue.o)
                0x080543b4                uxQueueMessagesWaitingFromISR
 .text.vQueueDelete
                0x080543ea       0x3a C:\PROGRA~2\VT3_8920\VT3\RESOUR~1\targets\CANVIEW4\lib\lld\libCANView4.a(queue.o)
                0x080543ea                vQueueDelete
 .text.uxQueueGetQueueNumber
                0x08054424       0x18 C:\PROGRA~2\VT3_8920\VT3\RESOUR~1\targets\CANVIEW4\lib\lld\libCANView4.a(queue.o)
                0x08054424                uxQueueGetQueueNumber
 .text.vQueueSetQueueNumber
                0x0805443c       0x1c C:\PROGRA~2\VT3_8920\VT3\RESOUR~1\targets\CANVIEW4\lib\lld\libCANView4.a(queue.o)
                0x0805443c                vQueueSetQueueNumber
 .text.ucQueueGetQueueType
                0x08054458       0x1a C:\PROGRA~2\VT3_8920\VT3\RESOUR~1\targets\CANVIEW4\lib\lld\libCANView4.a(queue.o)
                0x08054458                ucQueueGetQueueType
 .text.prvCopyDataToQueue
                0x08054472       0xd6 C:\PROGRA~2\VT3_8920\VT3\RESOUR~1\targets\CANVIEW4\lib\lld\libCANView4.a(queue.o)
 .text.prvCopyDataFromQueue
                0x08054548       0x4c C:\PROGRA~2\VT3_8920\VT3\RESOUR~1\targets\CANVIEW4\lib\lld\libCANView4.a(queue.o)
 .text.prvUnlockQueue
                0x08054594       0x98 C:\PROGRA~2\VT3_8920\VT3\RESOUR~1\targets\CANVIEW4\lib\lld\libCANView4.a(queue.o)
 .text.prvIsQueueEmpty
                0x0805462c       0x2c C:\PROGRA~2\VT3_8920\VT3\RESOUR~1\targets\CANVIEW4\lib\lld\libCANView4.a(queue.o)
 .text.xQueueIsQueueEmptyFromISR
                0x08054658       0x42 C:\PROGRA~2\VT3_8920\VT3\RESOUR~1\targets\CANVIEW4\lib\lld\libCANView4.a(queue.o)
                0x08054658                xQueueIsQueueEmptyFromISR
 .text.prvIsQueueFull
                0x0805469a       0x30 C:\PROGRA~2\VT3_8920\VT3\RESOUR~1\targets\CANVIEW4\lib\lld\libCANView4.a(queue.o)
 .text.xQueueIsQueueFullFromISR
                0x080546ca       0x46 C:\PROGRA~2\VT3_8920\VT3\RESOUR~1\targets\CANVIEW4\lib\lld\libCANView4.a(queue.o)
                0x080546ca                xQueueIsQueueFullFromISR
 .text.vQueueAddToRegistry
                0x08054710       0x50 C:\PROGRA~2\VT3_8920\VT3\RESOUR~1\targets\CANVIEW4\lib\lld\libCANView4.a(queue.o)
                0x08054710                vQueueAddToRegistry
 .text.vQueueUnregisterQueue
                0x08054760       0x48 C:\PROGRA~2\VT3_8920\VT3\RESOUR~1\targets\CANVIEW4\lib\lld\libCANView4.a(queue.o)
                0x08054760                vQueueUnregisterQueue
 .text.xTaskGenericCreate
                0x080547a8      0x1a0 C:\PROGRA~2\VT3_8920\VT3\RESOUR~1\targets\CANVIEW4\lib\lld\libCANView4.a(tasks.o)
                0x080547a8                xTaskGenericCreate
 .text.vTaskDelete
                0x08054948      0x108 C:\PROGRA~2\VT3_8920\VT3\RESOUR~1\targets\CANVIEW4\lib\lld\libCANView4.a(tasks.o)
                0x08054948                vTaskDelete
 .text.vTaskDelay
                0x08054a50       0xa4 C:\PROGRA~2\VT3_8920\VT3\RESOUR~1\targets\CANVIEW4\lib\lld\libCANView4.a(tasks.o)
                0x08054a50                vTaskDelay
 .text.uxTaskPriorityGet
                0x08054af4       0x34 C:\PROGRA~2\VT3_8920\VT3\RESOUR~1\targets\CANVIEW4\lib\lld\libCANView4.a(tasks.o)
                0x08054af4                uxTaskPriorityGet
 .text.uxTaskPriorityGetFromISR
                0x08054b28       0x58 C:\PROGRA~2\VT3_8920\VT3\RESOUR~1\targets\CANVIEW4\lib\lld\libCANView4.a(tasks.o)
                0x08054b28                uxTaskPriorityGetFromISR
 .text.vTaskPrioritySet
                0x08054b80      0x15c C:\PROGRA~2\VT3_8920\VT3\RESOUR~1\targets\CANVIEW4\lib\lld\libCANView4.a(tasks.o)
                0x08054b80                vTaskPrioritySet
 .text.vTaskSuspend
                0x08054cdc      0x110 C:\PROGRA~2\VT3_8920\VT3\RESOUR~1\targets\CANVIEW4\lib\lld\libCANView4.a(tasks.o)
                0x08054cdc                vTaskSuspend
 .text.prvTaskIsTaskSuspended
                0x08054dec       0x74 C:\PROGRA~2\VT3_8920\VT3\RESOUR~1\targets\CANVIEW4\lib\lld\libCANView4.a(tasks.o)
 .text.vTaskResume
                0x08054e60       0xb8 C:\PROGRA~2\VT3_8920\VT3\RESOUR~1\targets\CANVIEW4\lib\lld\libCANView4.a(tasks.o)
                0x08054e60                vTaskResume
 .text.xTaskResumeFromISR
                0x08054f18       0xe0 C:\PROGRA~2\VT3_8920\VT3\RESOUR~1\targets\CANVIEW4\lib\lld\libCANView4.a(tasks.o)
                0x08054f18                xTaskResumeFromISR
 .text.vTaskStartScheduler
                0x08054ff8       0x84 C:\PROGRA~2\VT3_8920\VT3\RESOUR~1\targets\CANVIEW4\lib\lld\libCANView4.a(tasks.o)
                0x08054ff8                vTaskStartScheduler
 .text.vTaskEndScheduler
                0x0805507c       0x30 C:\PROGRA~2\VT3_8920\VT3\RESOUR~1\targets\CANVIEW4\lib\lld\libCANView4.a(tasks.o)
                0x0805507c                vTaskEndScheduler
 .text.vTaskSuspendAll
                0x080550ac       0x1c C:\PROGRA~2\VT3_8920\VT3\RESOUR~1\targets\CANVIEW4\lib\lld\libCANView4.a(tasks.o)
                0x080550ac                vTaskSuspendAll
 .text.xTaskResumeAll
                0x080550c8      0x128 C:\PROGRA~2\VT3_8920\VT3\RESOUR~1\targets\CANVIEW4\lib\lld\libCANView4.a(tasks.o)
                0x080550c8                xTaskResumeAll
 .text.xTaskGetTickCount
                0x080551f0       0x20 C:\PROGRA~2\VT3_8920\VT3\RESOUR~1\targets\CANVIEW4\lib\lld\libCANView4.a(tasks.o)
                0x080551f0                xTaskGetTickCount
 .text.xTaskGetTickCountFromISR
                0x08055210       0x24 C:\PROGRA~2\VT3_8920\VT3\RESOUR~1\targets\CANVIEW4\lib\lld\libCANView4.a(tasks.o)
                0x08055210                xTaskGetTickCountFromISR
 .text.uxTaskGetNumberOfTasks
                0x08055234       0x18 C:\PROGRA~2\VT3_8920\VT3\RESOUR~1\targets\CANVIEW4\lib\lld\libCANView4.a(tasks.o)
                0x08055234                uxTaskGetNumberOfTasks
 .text.uxTaskGetSystemState
                0x0805524c       0xf4 C:\PROGRA~2\VT3_8920\VT3\RESOUR~1\targets\CANVIEW4\lib\lld\libCANView4.a(tasks.o)
                0x0805524c                uxTaskGetSystemState
 .text.xTaskIncrementTick
                0x08055340      0x17c C:\PROGRA~2\VT3_8920\VT3\RESOUR~1\targets\CANVIEW4\lib\lld\libCANView4.a(tasks.o)
                0x08055340                xTaskIncrementTick
 .text.vTaskSwitchContext
                0x080554bc       0xd4 C:\PROGRA~2\VT3_8920\VT3\RESOUR~1\targets\CANVIEW4\lib\lld\libCANView4.a(tasks.o)
                0x080554bc                vTaskSwitchContext
 .text.vTaskPlaceOnEventList
                0x08055590       0x9c C:\PROGRA~2\VT3_8920\VT3\RESOUR~1\targets\CANVIEW4\lib\lld\libCANView4.a(tasks.o)
                0x08055590                vTaskPlaceOnEventList
 .text.vTaskPlaceOnUnorderedEventList
                0x0805562c       0xcc C:\PROGRA~2\VT3_8920\VT3\RESOUR~1\targets\CANVIEW4\lib\lld\libCANView4.a(tasks.o)
                0x0805562c                vTaskPlaceOnUnorderedEventList
 .text.xTaskRemoveFromEventList
                0x080556f8       0xc4 C:\PROGRA~2\VT3_8920\VT3\RESOUR~1\targets\CANVIEW4\lib\lld\libCANView4.a(tasks.o)
                0x080556f8                xTaskRemoveFromEventList
 .text.xTaskRemoveFromUnorderedEventList
                0x080557bc       0xcc C:\PROGRA~2\VT3_8920\VT3\RESOUR~1\targets\CANVIEW4\lib\lld\libCANView4.a(tasks.o)
                0x080557bc                xTaskRemoveFromUnorderedEventList
 .text.vTaskSetTimeOutState
                0x08055888       0x48 C:\PROGRA~2\VT3_8920\VT3\RESOUR~1\targets\CANVIEW4\lib\lld\libCANView4.a(tasks.o)
                0x08055888                vTaskSetTimeOutState
 .text.xTaskCheckForTimeOut
                0x080558d0       0xbc C:\PROGRA~2\VT3_8920\VT3\RESOUR~1\targets\CANVIEW4\lib\lld\libCANView4.a(tasks.o)
                0x080558d0                xTaskCheckForTimeOut
 .text.vTaskMissedYield
                0x0805598c       0x18 C:\PROGRA~2\VT3_8920\VT3\RESOUR~1\targets\CANVIEW4\lib\lld\libCANView4.a(tasks.o)
                0x0805598c                vTaskMissedYield
 .text.uxTaskGetTaskNumber
                0x080559a4       0x2c C:\PROGRA~2\VT3_8920\VT3\RESOUR~1\targets\CANVIEW4\lib\lld\libCANView4.a(tasks.o)
                0x080559a4                uxTaskGetTaskNumber
 .text.vTaskSetTaskNumber
                0x080559d0       0x26 C:\PROGRA~2\VT3_8920\VT3\RESOUR~1\targets\CANVIEW4\lib\lld\libCANView4.a(tasks.o)
                0x080559d0                vTaskSetTaskNumber
 *fill*         0x080559f6        0x2 
 .text.prvIdleTask
                0x080559f8       0x30 C:\PROGRA~2\VT3_8920\VT3\RESOUR~1\targets\CANVIEW4\lib\lld\libCANView4.a(tasks.o)
 .text.prvInitialiseTCBVariables
                0x08055a28       0xa8 C:\PROGRA~2\VT3_8920\VT3\RESOUR~1\targets\CANVIEW4\lib\lld\libCANView4.a(tasks.o)
 .text.prvInitialiseTaskLists
                0x08055ad0       0x80 C:\PROGRA~2\VT3_8920\VT3\RESOUR~1\targets\CANVIEW4\lib\lld\libCANView4.a(tasks.o)
 .text.prvCheckTasksWaitingTermination
                0x08055b50       0x78 C:\PROGRA~2\VT3_8920\VT3\RESOUR~1\targets\CANVIEW4\lib\lld\libCANView4.a(tasks.o)
 .text.prvAddCurrentTaskToDelayedList
                0x08055bc8       0x6c C:\PROGRA~2\VT3_8920\VT3\RESOUR~1\targets\CANVIEW4\lib\lld\libCANView4.a(tasks.o)
 .text.prvAllocateTCBAndStack
                0x08055c34       0x6c C:\PROGRA~2\VT3_8920\VT3\RESOUR~1\targets\CANVIEW4\lib\lld\libCANView4.a(tasks.o)
 .text.prvListTaskWithinSingleList
                0x08055ca0      0x116 C:\PROGRA~2\VT3_8920\VT3\RESOUR~1\targets\CANVIEW4\lib\lld\libCANView4.a(tasks.o)
 .text.prvTaskCheckFreeStackSpace
                0x08055db6       0x38 C:\PROGRA~2\VT3_8920\VT3\RESOUR~1\targets\CANVIEW4\lib\lld\libCANView4.a(tasks.o)
 *fill*         0x08055dee        0x2 
 .text.uxTaskGetStackHighWaterMark
                0x08055df0       0x38 C:\PROGRA~2\VT3_8920\VT3\RESOUR~1\targets\CANVIEW4\lib\lld\libCANView4.a(tasks.o)
                0x08055df0                uxTaskGetStackHighWaterMark
 .text.prvDeleteTCB
                0x08055e28       0x20 C:\PROGRA~2\VT3_8920\VT3\RESOUR~1\targets\CANVIEW4\lib\lld\libCANView4.a(tasks.o)
 .text.prvResetNextTaskUnblockTime
                0x08055e48       0x4c C:\PROGRA~2\VT3_8920\VT3\RESOUR~1\targets\CANVIEW4\lib\lld\libCANView4.a(tasks.o)
 .text.xTaskGetCurrentTaskHandle
                0x08055e94       0x20 C:\PROGRA~2\VT3_8920\VT3\RESOUR~1\targets\CANVIEW4\lib\lld\libCANView4.a(tasks.o)
                0x08055e94                xTaskGetCurrentTaskHandle
 .text.xTaskGetSchedulerState
                0x08055eb4       0x3c C:\PROGRA~2\VT3_8920\VT3\RESOUR~1\targets\CANVIEW4\lib\lld\libCANView4.a(tasks.o)
                0x08055eb4                xTaskGetSchedulerState
 .text.vTaskPriorityInherit
                0x08055ef0       0xec C:\PROGRA~2\VT3_8920\VT3\RESOUR~1\targets\CANVIEW4\lib\lld\libCANView4.a(tasks.o)
                0x08055ef0                vTaskPriorityInherit
 .text.xTaskPriorityDisinherit
                0x08055fdc      0x108 C:\PROGRA~2\VT3_8920\VT3\RESOUR~1\targets\CANVIEW4\lib\lld\libCANView4.a(tasks.o)
                0x08055fdc                xTaskPriorityDisinherit
 .text.uxTaskResetEventItemValue
                0x080560e4       0x30 C:\PROGRA~2\VT3_8920\VT3\RESOUR~1\targets\CANVIEW4\lib\lld\libCANView4.a(tasks.o)
                0x080560e4                uxTaskResetEventItemValue
 .text.pvTaskIncrementMutexHeldCount
                0x08056114       0x28 C:\PROGRA~2\VT3_8920\VT3\RESOUR~1\targets\CANVIEW4\lib\lld\libCANView4.a(tasks.o)
                0x08056114                pvTaskIncrementMutexHeldCount
 .text.ulTaskNotifyTake
                0x0805613c       0xe8 C:\PROGRA~2\VT3_8920\VT3\RESOUR~1\targets\CANVIEW4\lib\lld\libCANView4.a(tasks.o)
                0x0805613c                ulTaskNotifyTake
 .text.xTaskNotifyWait
                0x08056224      0x10c C:\PROGRA~2\VT3_8920\VT3\RESOUR~1\targets\CANVIEW4\lib\lld\libCANView4.a(tasks.o)
                0x08056224                xTaskNotifyWait
 .text.xTaskGenericNotify
                0x08056330      0x140 C:\PROGRA~2\VT3_8920\VT3\RESOUR~1\targets\CANVIEW4\lib\lld\libCANView4.a(tasks.o)
                0x08056330                xTaskGenericNotify
 .text.xTaskNotifyFromISR
                0x08056470      0x170 C:\PROGRA~2\VT3_8920\VT3\RESOUR~1\targets\CANVIEW4\lib\lld\libCANView4.a(tasks.o)
                0x08056470                xTaskNotifyFromISR
 .text.vTaskNotifyGiveFromISR
                0x080565e0      0x114 C:\PROGRA~2\VT3_8920\VT3\RESOUR~1\targets\CANVIEW4\lib\lld\libCANView4.a(tasks.o)
                0x080565e0                vTaskNotifyGiveFromISR
 .text.getTaskName
                0x080566f4       0x24 C:\PROGRA~2\VT3_8920\VT3\RESOUR~1\targets\CANVIEW4\lib\lld\libCANView4.a(tasks.o)
                0x080566f4                getTaskName
 .text.getTaskNumber
                0x08056718       0x20 C:\PROGRA~2\VT3_8920\VT3\RESOUR~1\targets\CANVIEW4\lib\lld\libCANView4.a(tasks.o)
                0x08056718                getTaskNumber
 .text.USBH_Init
                0x08056738       0xa4 C:\PROGRA~2\VT3_8920\VT3\RESOUR~1\targets\CANVIEW4\lib\lld\libCANView4.a(usbh_core.o)
                0x08056738                USBH_Init
 .text.USBH_DeInit
                0x080567dc       0x32 C:\PROGRA~2\VT3_8920\VT3\RESOUR~1\targets\CANVIEW4\lib\lld\libCANView4.a(usbh_core.o)
                0x080567dc                USBH_DeInit
 .text.DeInitStateMachine
                0x0805680e       0x94 C:\PROGRA~2\VT3_8920\VT3\RESOUR~1\targets\CANVIEW4\lib\lld\libCANView4.a(usbh_core.o)
 .text.USBH_RegisterClass
                0x080568a2       0x54 C:\PROGRA~2\VT3_8920\VT3\RESOUR~1\targets\CANVIEW4\lib\lld\libCANView4.a(usbh_core.o)
                0x080568a2                USBH_RegisterClass
 .text.USBH_SelectInterface
                0x080568f6       0x38 C:\PROGRA~2\VT3_8920\VT3\RESOUR~1\targets\CANVIEW4\lib\lld\libCANView4.a(usbh_core.o)
                0x080568f6                USBH_SelectInterface
 .text.USBH_GetActiveClass
                0x0805692e       0x1a C:\PROGRA~2\VT3_8920\VT3\RESOUR~1\targets\CANVIEW4\lib\lld\libCANView4.a(usbh_core.o)
                0x0805692e                USBH_GetActiveClass
 .text.USBH_FindInterface
                0x08056948       0x96 C:\PROGRA~2\VT3_8920\VT3\RESOUR~1\targets\CANVIEW4\lib\lld\libCANView4.a(usbh_core.o)
                0x08056948                USBH_FindInterface
 .text.USBH_FindInterfaceIndex
                0x080569de       0x70 C:\PROGRA~2\VT3_8920\VT3\RESOUR~1\targets\CANVIEW4\lib\lld\libCANView4.a(usbh_core.o)
                0x080569de                USBH_FindInterfaceIndex
 .text.USBH_Start
                0x08056a4e       0x20 C:\PROGRA~2\VT3_8920\VT3\RESOUR~1\targets\CANVIEW4\lib\lld\libCANView4.a(usbh_core.o)
                0x08056a4e                USBH_Start
 .text.USBH_Stop
                0x08056a6e       0x38 C:\PROGRA~2\VT3_8920\VT3\RESOUR~1\targets\CANVIEW4\lib\lld\libCANView4.a(usbh_core.o)
                0x08056a6e                USBH_Stop
 .text.USBH_ReEnumerate
                0x08056aa6       0x3a C:\PROGRA~2\VT3_8920\VT3\RESOUR~1\targets\CANVIEW4\lib\lld\libCANView4.a(usbh_core.o)
                0x08056aa6                USBH_ReEnumerate
 .text.USBH_Process
                0x08056ae0      0x2e4 C:\PROGRA~2\VT3_8920\VT3\RESOUR~1\targets\CANVIEW4\lib\lld\libCANView4.a(usbh_core.o)
                0x08056ae0                USBH_Process
 .text.USBH_HandleEnum
                0x08056dc4      0x274 C:\PROGRA~2\VT3_8920\VT3\RESOUR~1\targets\CANVIEW4\lib\lld\libCANView4.a(usbh_core.o)
 .text.USBH_LL_SetTimer
                0x08057038       0x1e C:\PROGRA~2\VT3_8920\VT3\RESOUR~1\targets\CANVIEW4\lib\lld\libCANView4.a(usbh_core.o)
                0x08057038                USBH_LL_SetTimer
 .text.USBH_LL_IncTimer
                0x08057056       0x24 C:\PROGRA~2\VT3_8920\VT3\RESOUR~1\targets\CANVIEW4\lib\lld\libCANView4.a(usbh_core.o)
                0x08057056                USBH_LL_IncTimer
 .text.USBH_HandleSof
                0x0805707a       0x30 C:\PROGRA~2\VT3_8920\VT3\RESOUR~1\targets\CANVIEW4\lib\lld\libCANView4.a(usbh_core.o)
 .text.USBH_LL_Connect
                0x080570aa       0x5c C:\PROGRA~2\VT3_8920\VT3\RESOUR~1\targets\CANVIEW4\lib\lld\libCANView4.a(usbh_core.o)
                0x080570aa                USBH_LL_Connect
 .text.USBH_LL_Disconnect
                0x08057106       0x6a C:\PROGRA~2\VT3_8920\VT3\RESOUR~1\targets\CANVIEW4\lib\lld\libCANView4.a(usbh_core.o)
                0x08057106                USBH_LL_Disconnect
 .text.USBH_Process_OS
                0x08057170       0x2a C:\PROGRA~2\VT3_8920\VT3\RESOUR~1\targets\CANVIEW4\lib\lld\libCANView4.a(usbh_core.o)
 .text.USBH_LL_NotifyURBChange
                0x0805719a       0x22 C:\PROGRA~2\VT3_8920\VT3\RESOUR~1\targets\CANVIEW4\lib\lld\libCANView4.a(usbh_core.o)
                0x0805719a                USBH_LL_NotifyURBChange
 .text.USBH_Get_DevDesc
                0x080571bc       0x50 C:\PROGRA~2\VT3_8920\VT3\RESOUR~1\targets\CANVIEW4\lib\lld\libCANView4.a(usbh_ctlreq.o)
                0x080571bc                USBH_Get_DevDesc
 .text.USBH_Get_CfgDesc
                0x0805720c       0x48 C:\PROGRA~2\VT3_8920\VT3\RESOUR~1\targets\CANVIEW4\lib\lld\libCANView4.a(usbh_ctlreq.o)
                0x0805720c                USBH_Get_CfgDesc
 .text.USBH_Get_StringDesc
                0x08057254       0x58 C:\PROGRA~2\VT3_8920\VT3\RESOUR~1\targets\CANVIEW4\lib\lld\libCANView4.a(usbh_ctlreq.o)
                0x08057254                USBH_Get_StringDesc
 .text.USBH_GetDescriptor
                0x080572ac       0x6a C:\PROGRA~2\VT3_8920\VT3\RESOUR~1\targets\CANVIEW4\lib\lld\libCANView4.a(usbh_ctlreq.o)
                0x080572ac                USBH_GetDescriptor
 .text.USBH_SetAddress
                0x08057316       0x48 C:\PROGRA~2\VT3_8920\VT3\RESOUR~1\targets\CANVIEW4\lib\lld\libCANView4.a(usbh_ctlreq.o)
                0x08057316                USBH_SetAddress
 .text.USBH_SetCfg
                0x0805735e       0x46 C:\PROGRA~2\VT3_8920\VT3\RESOUR~1\targets\CANVIEW4\lib\lld\libCANView4.a(usbh_ctlreq.o)
                0x0805735e                USBH_SetCfg
 .text.USBH_SetInterface
                0x080573a4       0x4e C:\PROGRA~2\VT3_8920\VT3\RESOUR~1\targets\CANVIEW4\lib\lld\libCANView4.a(usbh_ctlreq.o)
                0x080573a4                USBH_SetInterface
 .text.USBH_ClrFeature
                0x080573f2       0x48 C:\PROGRA~2\VT3_8920\VT3\RESOUR~1\targets\CANVIEW4\lib\lld\libCANView4.a(usbh_ctlreq.o)
                0x080573f2                USBH_ClrFeature
 .text.USBH_ParseDevDesc
                0x0805743a       0xe0 C:\PROGRA~2\VT3_8920\VT3\RESOUR~1\targets\CANVIEW4\lib\lld\libCANView4.a(usbh_ctlreq.o)
 .text.USBH_ParseCfgDesc
                0x0805751a      0x14c C:\PROGRA~2\VT3_8920\VT3\RESOUR~1\targets\CANVIEW4\lib\lld\libCANView4.a(usbh_ctlreq.o)
 .text.USBH_ParseInterfaceDesc
                0x08057666       0x5e C:\PROGRA~2\VT3_8920\VT3\RESOUR~1\targets\CANVIEW4\lib\lld\libCANView4.a(usbh_ctlreq.o)
 .text.USBH_ParseEPDesc
                0x080576c4       0x5a C:\PROGRA~2\VT3_8920\VT3\RESOUR~1\targets\CANVIEW4\lib\lld\libCANView4.a(usbh_ctlreq.o)
 .text.USBH_ParseStringDesc
                0x0805771e       0x66 C:\PROGRA~2\VT3_8920\VT3\RESOUR~1\targets\CANVIEW4\lib\lld\libCANView4.a(usbh_ctlreq.o)
 .text.USBH_GetNextDesc
                0x08057784       0x36 C:\PROGRA~2\VT3_8920\VT3\RESOUR~1\targets\CANVIEW4\lib\lld\libCANView4.a(usbh_ctlreq.o)
                0x08057784                USBH_GetNextDesc
 .text.USBH_CtlReq
                0x080577ba       0x8c C:\PROGRA~2\VT3_8920\VT3\RESOUR~1\targets\CANVIEW4\lib\lld\libCANView4.a(usbh_ctlreq.o)
                0x080577ba                USBH_CtlReq
 *fill*         0x08057846        0x2 
 .text.USBH_HandleControl
                0x08057848      0x3c0 C:\PROGRA~2\VT3_8920\VT3\RESOUR~1\targets\CANVIEW4\lib\lld\libCANView4.a(usbh_ctlreq.o)
 .text.USBH_CtlSendSetup
                0x08057c08       0x34 C:\PROGRA~2\VT3_8920\VT3\RESOUR~1\targets\CANVIEW4\lib\lld\libCANView4.a(usbh_ioreq.o)
                0x08057c08                USBH_CtlSendSetup
 .text.USBH_CtlSendData
                0x08057c3c       0x4a C:\PROGRA~2\VT3_8920\VT3\RESOUR~1\targets\CANVIEW4\lib\lld\libCANView4.a(usbh_ioreq.o)
                0x08057c3c                USBH_CtlSendData
 .text.USBH_CtlReceiveData
                0x08057c86       0x3c C:\PROGRA~2\VT3_8920\VT3\RESOUR~1\targets\CANVIEW4\lib\lld\libCANView4.a(usbh_ioreq.o)
                0x08057c86                USBH_CtlReceiveData
 .text.USBH_BulkSendData
                0x08057cc2       0x4a C:\PROGRA~2\VT3_8920\VT3\RESOUR~1\targets\CANVIEW4\lib\lld\libCANView4.a(usbh_ioreq.o)
                0x08057cc2                USBH_BulkSendData
 .text.USBH_BulkReceiveData
                0x08057d0c       0x3c C:\PROGRA~2\VT3_8920\VT3\RESOUR~1\targets\CANVIEW4\lib\lld\libCANView4.a(usbh_ioreq.o)
                0x08057d0c                USBH_BulkReceiveData
 .text.USBH_InterruptReceiveData
                0x08057d48       0x3e C:\PROGRA~2\VT3_8920\VT3\RESOUR~1\targets\CANVIEW4\lib\lld\libCANView4.a(usbh_ioreq.o)
                0x08057d48                USBH_InterruptReceiveData
 .text.USBH_InterruptSendData
                0x08057d86       0x3e C:\PROGRA~2\VT3_8920\VT3\RESOUR~1\targets\CANVIEW4\lib\lld\libCANView4.a(usbh_ioreq.o)
                0x08057d86                USBH_InterruptSendData
 .text.USBH_IsocReceiveData
                0x08057dc4       0x36 C:\PROGRA~2\VT3_8920\VT3\RESOUR~1\targets\CANVIEW4\lib\lld\libCANView4.a(usbh_ioreq.o)
                0x08057dc4                USBH_IsocReceiveData
 .text.USBH_IsocSendData
                0x08057dfa       0x36 C:\PROGRA~2\VT3_8920\VT3\RESOUR~1\targets\CANVIEW4\lib\lld\libCANView4.a(usbh_ioreq.o)
                0x08057dfa                USBH_IsocSendData
 .text.USBH_OpenPipe
                0x08057e30       0x3e C:\PROGRA~2\VT3_8920\VT3\RESOUR~1\targets\CANVIEW4\lib\lld\libCANView4.a(usbh_pipes.o)
                0x08057e30                USBH_OpenPipe
 .text.USBH_ClosePipe
                0x08057e6e       0x20 C:\PROGRA~2\VT3_8920\VT3\RESOUR~1\targets\CANVIEW4\lib\lld\libCANView4.a(usbh_pipes.o)
                0x08057e6e                USBH_ClosePipe
 .text.USBH_AllocPipe
                0x08057e8e       0x40 C:\PROGRA~2\VT3_8920\VT3\RESOUR~1\targets\CANVIEW4\lib\lld\libCANView4.a(usbh_pipes.o)
                0x08057e8e                USBH_AllocPipe
 .text.USBH_FreePipe
                0x08057ece       0x3c C:\PROGRA~2\VT3_8920\VT3\RESOUR~1\targets\CANVIEW4\lib\lld\libCANView4.a(usbh_pipes.o)
                0x08057ece                USBH_FreePipe
 .text.USBH_GetFreePipe
                0x08057f0a       0x48 C:\PROGRA~2\VT3_8920\VT3\RESOUR~1\targets\CANVIEW4\lib\lld\libCANView4.a(usbh_pipes.o)
 *fill*         0x08057f52        0x2 
 .text.MX_FATFS_Init
                0x08057f54       0x24 C:\PROGRA~2\VT3_8920\VT3\RESOUR~1\targets\CANVIEW4\lib\lld\libCANView4.a(fatfs.o)
                0x08057f54                MX_FATFS_Init
 .text.get_fattime
                0x08057f78       0x10 C:\PROGRA~2\VT3_8920\VT3\RESOUR~1\targets\CANVIEW4\lib\lld\libCANView4.a(fatfs.o)
                0x08057f78                get_fattime
 .text.HAL_MspInit
                0x08057f88       0x1a C:\PROGRA~2\VT3_8920\VT3\RESOUR~1\targets\CANVIEW4\lib\lld\libCANView4.a(stm32f4xx_hal_msp.o)
                0x08057f88                HAL_MspInit
 *fill*         0x08057fa2        0x2 
 .text.HAL_ADC_MspInit
                0x08057fa4       0x58 C:\PROGRA~2\VT3_8920\VT3\RESOUR~1\targets\CANVIEW4\lib\lld\libCANView4.a(stm32f4xx_hal_msp.o)
                0x08057fa4                HAL_ADC_MspInit
 .text.HAL_ADC_MspDeInit
                0x08057ffc       0x3c C:\PROGRA~2\VT3_8920\VT3\RESOUR~1\targets\CANVIEW4\lib\lld\libCANView4.a(stm32f4xx_hal_msp.o)
                0x08057ffc                HAL_ADC_MspDeInit
 .text.HAL_CAN_MspInit
                0x08058038      0x108 C:\PROGRA~2\VT3_8920\VT3\RESOUR~1\targets\CANVIEW4\lib\lld\libCANView4.a(stm32f4xx_hal_msp.o)
                0x08058038                HAL_CAN_MspInit
 .text.HAL_CAN_MspDeInit
                0x08058140       0x9c C:\PROGRA~2\VT3_8920\VT3\RESOUR~1\targets\CANVIEW4\lib\lld\libCANView4.a(stm32f4xx_hal_msp.o)
                0x08058140                HAL_CAN_MspDeInit
 .text.HAL_DCMI_MspInit
                0x080581dc      0x190 C:\PROGRA~2\VT3_8920\VT3\RESOUR~1\targets\CANVIEW4\lib\lld\libCANView4.a(stm32f4xx_hal_msp.o)
                0x080581dc                HAL_DCMI_MspInit
 .text.HAL_DCMI_MspDeInit
                0x0805836c       0x78 C:\PROGRA~2\VT3_8920\VT3\RESOUR~1\targets\CANVIEW4\lib\lld\libCANView4.a(stm32f4xx_hal_msp.o)
                0x0805836c                HAL_DCMI_MspDeInit
 .text.HAL_DMA2D_MspInit
                0x080583e4       0x40 C:\PROGRA~2\VT3_8920\VT3\RESOUR~1\targets\CANVIEW4\lib\lld\libCANView4.a(stm32f4xx_hal_msp.o)
                0x080583e4                HAL_DMA2D_MspInit
 .text.HAL_DMA2D_MspDeInit
                0x08058424       0x34 C:\PROGRA~2\VT3_8920\VT3\RESOUR~1\targets\CANVIEW4\lib\lld\libCANView4.a(stm32f4xx_hal_msp.o)
                0x08058424                HAL_DMA2D_MspDeInit
 .text.HAL_I2C_MspInit
                0x08058458       0x60 C:\PROGRA~2\VT3_8920\VT3\RESOUR~1\targets\CANVIEW4\lib\lld\libCANView4.a(stm32f4xx_hal_msp.o)
                0x08058458                HAL_I2C_MspInit
 .text.HAL_I2C_MspDeInit
                0x080584b8       0x3c C:\PROGRA~2\VT3_8920\VT3\RESOUR~1\targets\CANVIEW4\lib\lld\libCANView4.a(stm32f4xx_hal_msp.o)
                0x080584b8                HAL_I2C_MspDeInit
 .text.HAL_LTDC_MspInit
                0x080584f4       0xac C:\PROGRA~2\VT3_8920\VT3\RESOUR~1\targets\CANVIEW4\lib\lld\libCANView4.a(stm32f4xx_hal_msp.o)
                0x080584f4                HAL_LTDC_MspInit
 .text.HAL_LTDC_MspDeInit
                0x080585a0       0x58 C:\PROGRA~2\VT3_8920\VT3\RESOUR~1\targets\CANVIEW4\lib\lld\libCANView4.a(stm32f4xx_hal_msp.o)
                0x080585a0                HAL_LTDC_MspDeInit
 .text.HAL_SPI_MspInit
                0x080585f8      0x19c C:\PROGRA~2\VT3_8920\VT3\RESOUR~1\targets\CANVIEW4\lib\lld\libCANView4.a(stm32f4xx_hal_msp.o)
                0x080585f8                HAL_SPI_MspInit
 .text.HAL_SPI_MspDeInit
                0x08058794       0x74 C:\PROGRA~2\VT3_8920\VT3\RESOUR~1\targets\CANVIEW4\lib\lld\libCANView4.a(stm32f4xx_hal_msp.o)
                0x08058794                HAL_SPI_MspDeInit
 .text.HAL_TIM_PWM_MspInit
                0x08058808      0x118 C:\PROGRA~2\VT3_8920\VT3\RESOUR~1\targets\CANVIEW4\lib\lld\libCANView4.a(stm32f4xx_hal_msp.o)
                0x08058808                HAL_TIM_PWM_MspInit
 .text.HAL_TIM_PWM_MspDeInit
                0x08058920       0x84 C:\PROGRA~2\VT3_8920\VT3\RESOUR~1\targets\CANVIEW4\lib\lld\libCANView4.a(stm32f4xx_hal_msp.o)
                0x08058920                HAL_TIM_PWM_MspDeInit
 .text.HAL_TIM_Base_MspInit
                0x080589a4       0x4c C:\PROGRA~2\VT3_8920\VT3\RESOUR~1\targets\CANVIEW4\lib\lld\libCANView4.a(stm32f4xx_hal_msp.o)
                0x080589a4                HAL_TIM_Base_MspInit
 .text.HAL_TIM_Base_MspDeinit
                0x080589f0       0x34 C:\PROGRA~2\VT3_8920\VT3\RESOUR~1\targets\CANVIEW4\lib\lld\libCANView4.a(stm32f4xx_hal_msp.o)
                0x080589f0                HAL_TIM_Base_MspDeinit
 .text.HAL_UART_MspInit
                0x08058a24       0x60 C:\PROGRA~2\VT3_8920\VT3\RESOUR~1\targets\CANVIEW4\lib\lld\libCANView4.a(stm32f4xx_hal_msp.o)
                0x08058a24                HAL_UART_MspInit
 .text.HAL_UART_MspDeInit
                0x08058a84       0x3c C:\PROGRA~2\VT3_8920\VT3\RESOUR~1\targets\CANVIEW4\lib\lld\libCANView4.a(stm32f4xx_hal_msp.o)
                0x08058a84                HAL_UART_MspDeInit
 .text.HAL_FMC_MspInit
                0x08058ac0      0x118 C:\PROGRA~2\VT3_8920\VT3\RESOUR~1\targets\CANVIEW4\lib\lld\libCANView4.a(stm32f4xx_hal_msp.o)
 .text.HAL_SDRAM_MspInit
                0x08058bd8       0x14 C:\PROGRA~2\VT3_8920\VT3\RESOUR~1\targets\CANVIEW4\lib\lld\libCANView4.a(stm32f4xx_hal_msp.o)
                0x08058bd8                HAL_SDRAM_MspInit
 .text.HAL_FMC_MspDeInit
                0x08058bec       0x80 C:\PROGRA~2\VT3_8920\VT3\RESOUR~1\targets\CANVIEW4\lib\lld\libCANView4.a(stm32f4xx_hal_msp.o)
 .text.HAL_SDRAM_MspDeInit
                0x08058c6c       0x14 C:\PROGRA~2\VT3_8920\VT3\RESOUR~1\targets\CANVIEW4\lib\lld\libCANView4.a(stm32f4xx_hal_msp.o)
                0x08058c6c                HAL_SDRAM_MspDeInit
 .text.HAL_RTC_MspInit
                0x08058c80       0x3c C:\PROGRA~2\VT3_8920\VT3\RESOUR~1\targets\CANVIEW4\lib\lld\libCANView4.a(stm32f4xx_hal_msp.o)
                0x08058c80                HAL_RTC_MspInit
 .text.HAL_RTC_MspDeInit
                0x08058cbc       0x2c C:\PROGRA~2\VT3_8920\VT3\RESOUR~1\targets\CANVIEW4\lib\lld\libCANView4.a(stm32f4xx_hal_msp.o)
                0x08058cbc                HAL_RTC_MspDeInit
 .text.MX_USB_HOST_Init
                0x08058ce8       0x2c C:\PROGRA~2\VT3_8920\VT3\RESOUR~1\targets\CANVIEW4\lib\lld\libCANView4.a(usb_host.o)
                0x08058ce8                MX_USB_HOST_Init
 .text.MX_USB_HOST_Process
                0x08058d14       0x14 C:\PROGRA~2\VT3_8920\VT3\RESOUR~1\targets\CANVIEW4\lib\lld\libCANView4.a(usb_host.o)
                0x08058d14                MX_USB_HOST_Process
 .text.USBH_UserProcess
                0x08058d28       0x5c C:\PROGRA~2\VT3_8920\VT3\RESOUR~1\targets\CANVIEW4\lib\lld\libCANView4.a(usb_host.o)
 .text.HAL_ADC_Init
                0x08058d84       0x5a C:\PROGRA~2\VT3_8920\VT3\RESOUR~1\targets\CANVIEW4\lib\lld\libCANView4.a(stm32f4xx_hal_adc.o)
                0x08058d84                HAL_ADC_Init
 .text.HAL_ADC_DeInit
                0x08058dde       0x38 C:\PROGRA~2\VT3_8920\VT3\RESOUR~1\targets\CANVIEW4\lib\lld\libCANView4.a(stm32f4xx_hal_adc.o)
                0x08058dde                HAL_ADC_DeInit
 .text.HAL_ADC_MspInit
                0x08058e16       0x14 C:\PROGRA~2\VT3_8920\VT3\RESOUR~1\targets\CANVIEW4\lib\lld\libCANView4.a(stm32f4xx_hal_adc.o)
 .text.HAL_ADC_MspDeInit
                0x08058e2a       0x14 C:\PROGRA~2\VT3_8920\VT3\RESOUR~1\targets\CANVIEW4\lib\lld\libCANView4.a(stm32f4xx_hal_adc.o)
 *fill*         0x08058e3e        0x2 
 .text.HAL_ADC_Start
                0x08058e40       0xfc C:\PROGRA~2\VT3_8920\VT3\RESOUR~1\targets\CANVIEW4\lib\lld\libCANView4.a(stm32f4xx_hal_adc.o)
                0x08058e40                HAL_ADC_Start
 .text.HAL_ADC_Stop
                0x08058f3c       0x2e C:\PROGRA~2\VT3_8920\VT3\RESOUR~1\targets\CANVIEW4\lib\lld\libCANView4.a(stm32f4xx_hal_adc.o)
                0x08058f3c                HAL_ADC_Stop
 .text.HAL_ADC_PollForConversion
                0x08058f6a       0xae C:\PROGRA~2\VT3_8920\VT3\RESOUR~1\targets\CANVIEW4\lib\lld\libCANView4.a(stm32f4xx_hal_adc.o)
                0x08058f6a                HAL_ADC_PollForConversion
 .text.HAL_ADC_PollForEvent
                0x08059018       0x90 C:\PROGRA~2\VT3_8920\VT3\RESOUR~1\targets\CANVIEW4\lib\lld\libCANView4.a(stm32f4xx_hal_adc.o)
                0x08059018                HAL_ADC_PollForEvent
 .text.HAL_ADC_Start_IT
                0x080590a8      0x120 C:\PROGRA~2\VT3_8920\VT3\RESOUR~1\targets\CANVIEW4\lib\lld\libCANView4.a(stm32f4xx_hal_adc.o)
                0x080590a8                HAL_ADC_Start_IT
 .text.HAL_ADC_Stop_IT
                0x080591c8       0x4e C:\PROGRA~2\VT3_8920\VT3\RESOUR~1\targets\CANVIEW4\lib\lld\libCANView4.a(stm32f4xx_hal_adc.o)
                0x080591c8                HAL_ADC_Stop_IT
 .text.HAL_ADC_IRQHandler
                0x08059216      0x264 C:\PROGRA~2\VT3_8920\VT3\RESOUR~1\targets\CANVIEW4\lib\lld\libCANView4.a(stm32f4xx_hal_adc.o)
                0x08059216                HAL_ADC_IRQHandler
 *fill*         0x0805947a        0x2 
 .text.HAL_ADC_Start_DMA
                0x0805947c      0x100 C:\PROGRA~2\VT3_8920\VT3\RESOUR~1\targets\CANVIEW4\lib\lld\libCANView4.a(stm32f4xx_hal_adc.o)
                0x0805947c                HAL_ADC_Start_DMA
 .text.HAL_ADC_Stop_DMA
                0x0805957c       0x54 C:\PROGRA~2\VT3_8920\VT3\RESOUR~1\targets\CANVIEW4\lib\lld\libCANView4.a(stm32f4xx_hal_adc.o)
                0x0805957c                HAL_ADC_Stop_DMA
 .text.HAL_ADC_GetValue
                0x080595d0       0x1a C:\PROGRA~2\VT3_8920\VT3\RESOUR~1\targets\CANVIEW4\lib\lld\libCANView4.a(stm32f4xx_hal_adc.o)
                0x080595d0                HAL_ADC_GetValue
 .text.HAL_ADC_ConvCpltCallback
                0x080595ea       0x14 C:\PROGRA~2\VT3_8920\VT3\RESOUR~1\targets\CANVIEW4\lib\lld\libCANView4.a(stm32f4xx_hal_adc.o)
                0x080595ea                HAL_ADC_ConvCpltCallback
 .text.HAL_ADC_ConvHalfCpltCallback
                0x080595fe       0x14 C:\PROGRA~2\VT3_8920\VT3\RESOUR~1\targets\CANVIEW4\lib\lld\libCANView4.a(stm32f4xx_hal_adc.o)
                0x080595fe                HAL_ADC_ConvHalfCpltCallback
 .text.HAL_ADC_LevelOutOfWindowCallback
                0x08059612       0x14 C:\PROGRA~2\VT3_8920\VT3\RESOUR~1\targets\CANVIEW4\lib\lld\libCANView4.a(stm32f4xx_hal_adc.o)
                0x08059612                HAL_ADC_LevelOutOfWindowCallback
 .text.HAL_ADC_ErrorCallback
                0x08059626       0x14 C:\PROGRA~2\VT3_8920\VT3\RESOUR~1\targets\CANVIEW4\lib\lld\libCANView4.a(stm32f4xx_hal_adc.o)
                0x08059626                HAL_ADC_ErrorCallback
 *fill*         0x0805963a        0x2 
 .text.HAL_ADC_ConfigChannel
                0x0805963c      0x248 C:\PROGRA~2\VT3_8920\VT3\RESOUR~1\targets\CANVIEW4\lib\lld\libCANView4.a(stm32f4xx_hal_adc.o)
                0x0805963c                HAL_ADC_ConfigChannel
 .text.HAL_ADC_AnalogWDGConfig
                0x08059884       0xc0 C:\PROGRA~2\VT3_8920\VT3\RESOUR~1\targets\CANVIEW4\lib\lld\libCANView4.a(stm32f4xx_hal_adc.o)
                0x08059884                HAL_ADC_AnalogWDGConfig
 .text.HAL_ADC_GetState
                0x08059944       0x1c C:\PROGRA~2\VT3_8920\VT3\RESOUR~1\targets\CANVIEW4\lib\lld\libCANView4.a(stm32f4xx_hal_adc.o)
                0x08059944                HAL_ADC_GetState
 .text.HAL_ADC_GetError
                0x08059960       0x18 C:\PROGRA~2\VT3_8920\VT3\RESOUR~1\targets\CANVIEW4\lib\lld\libCANView4.a(stm32f4xx_hal_adc.o)
                0x08059960                HAL_ADC_GetError
 .text.ADC_Init
                0x08059978      0x208 C:\PROGRA~2\VT3_8920\VT3\RESOUR~1\targets\CANVIEW4\lib\lld\libCANView4.a(stm32f4xx_hal_adc.o)
 .text.ADC_DMAConvCplt
                0x08059b80       0x3a C:\PROGRA~2\VT3_8920\VT3\RESOUR~1\targets\CANVIEW4\lib\lld\libCANView4.a(stm32f4xx_hal_adc.o)
 .text.ADC_DMAHalfConvCplt
                0x08059bba       0x1c C:\PROGRA~2\VT3_8920\VT3\RESOUR~1\targets\CANVIEW4\lib\lld\libCANView4.a(stm32f4xx_hal_adc.o)
 .text.ADC_DMAError
                0x08059bd6       0x30 C:\PROGRA~2\VT3_8920\VT3\RESOUR~1\targets\CANVIEW4\lib\lld\libCANView4.a(stm32f4xx_hal_adc.o)
 *fill*         0x08059c06        0x2 
 .text.HAL_ADCEx_InjectedStart
                0x08059c08      0x158 C:\PROGRA~2\VT3_8920\VT3\RESOUR~1\targets\CANVIEW4\lib\lld\libCANView4.a(stm32f4xx_hal_adc_ex.o)
                0x08059c08                HAL_ADCEx_InjectedStart
 .text.HAL_ADCEx_InjectedStart_IT
                0x08059d60      0x17c C:\PROGRA~2\VT3_8920\VT3\RESOUR~1\targets\CANVIEW4\lib\lld\libCANView4.a(stm32f4xx_hal_adc_ex.o)
                0x08059d60                HAL_ADCEx_InjectedStart_IT
 .text.HAL_ADCEx_InjectedStop
                0x08059edc       0x2e C:\PROGRA~2\VT3_8920\VT3\RESOUR~1\targets\CANVIEW4\lib\lld\libCANView4.a(stm32f4xx_hal_adc_ex.o)
                0x08059edc                HAL_ADCEx_InjectedStop
 .text.HAL_ADCEx_InjectedPollForConversion
                0x08059f0a       0x7e C:\PROGRA~2\VT3_8920\VT3\RESOUR~1\targets\CANVIEW4\lib\lld\libCANView4.a(stm32f4xx_hal_adc_ex.o)
                0x08059f0a                HAL_ADCEx_InjectedPollForConversion
 .text.HAL_ADCEx_InjectedStop_IT
                0x08059f88       0x4e C:\PROGRA~2\VT3_8920\VT3\RESOUR~1\targets\CANVIEW4\lib\lld\libCANView4.a(stm32f4xx_hal_adc_ex.o)
                0x08059f88                HAL_ADCEx_InjectedStop_IT
 *fill*         0x08059fd6        0x2 
 .text.HAL_ADCEx_InjectedGetValue
                0x08059fd8       0x70 C:\PROGRA~2\VT3_8920\VT3\RESOUR~1\targets\CANVIEW4\lib\lld\libCANView4.a(stm32f4xx_hal_adc_ex.o)
                0x08059fd8                HAL_ADCEx_InjectedGetValue
 .text.HAL_ADCEx_MultiModeStart_DMA
                0x0805a048      0x114 C:\PROGRA~2\VT3_8920\VT3\RESOUR~1\targets\CANVIEW4\lib\lld\libCANView4.a(stm32f4xx_hal_adc_ex.o)
                0x0805a048                HAL_ADCEx_MultiModeStart_DMA
 .text.HAL_ADCEx_MultiModeStop_DMA
                0x0805a15c       0x74 C:\PROGRA~2\VT3_8920\VT3\RESOUR~1\targets\CANVIEW4\lib\lld\libCANView4.a(stm32f4xx_hal_adc_ex.o)
                0x0805a15c                HAL_ADCEx_MultiModeStop_DMA
 .text.HAL_ADCEx_MultiModeGetValue
                0x0805a1d0       0x1c C:\PROGRA~2\VT3_8920\VT3\RESOUR~1\targets\CANVIEW4\lib\lld\libCANView4.a(stm32f4xx_hal_adc_ex.o)
                0x0805a1d0                HAL_ADCEx_MultiModeGetValue
 .text.HAL_ADCEx_InjectedConvCpltCallback
                0x0805a1ec       0x14 C:\PROGRA~2\VT3_8920\VT3\RESOUR~1\targets\CANVIEW4\lib\lld\libCANView4.a(stm32f4xx_hal_adc_ex.o)
                0x0805a1ec                HAL_ADCEx_InjectedConvCpltCallback
 .text.HAL_ADCEx_InjectedConfigChannel
                0x0805a200      0x328 C:\PROGRA~2\VT3_8920\VT3\RESOUR~1\targets\CANVIEW4\lib\lld\libCANView4.a(stm32f4xx_hal_adc_ex.o)
                0x0805a200                HAL_ADCEx_InjectedConfigChannel
 .text.HAL_ADCEx_MultiModeConfigChannel
                0x0805a528       0x88 C:\PROGRA~2\VT3_8920\VT3\RESOUR~1\targets\CANVIEW4\lib\lld\libCANView4.a(stm32f4xx_hal_adc_ex.o)
                0x0805a528                HAL_ADCEx_MultiModeConfigChannel
 .text.ADC_MultiModeDMAConvCplt
                0x0805a5b0       0x3a C:\PROGRA~2\VT3_8920\VT3\RESOUR~1\targets\CANVIEW4\lib\lld\libCANView4.a(stm32f4xx_hal_adc_ex.o)
 .text.ADC_MultiModeDMAHalfConvCplt
                0x0805a5ea       0x1c C:\PROGRA~2\VT3_8920\VT3\RESOUR~1\targets\CANVIEW4\lib\lld\libCANView4.a(stm32f4xx_hal_adc_ex.o)
 .text.ADC_MultiModeDMAError
                0x0805a606       0x30 C:\PROGRA~2\VT3_8920\VT3\RESOUR~1\targets\CANVIEW4\lib\lld\libCANView4.a(stm32f4xx_hal_adc_ex.o)
 .text.HAL_CAN_Init
                0x0805a636      0x254 C:\PROGRA~2\VT3_8920\VT3\RESOUR~1\targets\CANVIEW4\lib\lld\libCANView4.a(stm32f4xx_hal_can.o)
                0x0805a636                HAL_CAN_Init
 *fill*         0x0805a88a        0x2 
 .text.HAL_CAN_ConfigFilter
                0x0805a88c      0x198 C:\PROGRA~2\VT3_8920\VT3\RESOUR~1\targets\CANVIEW4\lib\lld\libCANView4.a(stm32f4xx_hal_can.o)
                0x0805a88c                HAL_CAN_ConfigFilter
 .text.HAL_CAN_DeInit
                0x0805aa24       0x3a C:\PROGRA~2\VT3_8920\VT3\RESOUR~1\targets\CANVIEW4\lib\lld\libCANView4.a(stm32f4xx_hal_can.o)
                0x0805aa24                HAL_CAN_DeInit
 *fill*         0x0805aa5e        0x2 
 .text.HAL_CAN_Transmit
                0x0805aa60      0x318 C:\PROGRA~2\VT3_8920\VT3\RESOUR~1\targets\CANVIEW4\lib\lld\libCANView4.a(stm32f4xx_hal_can.o)
                0x0805aa60                HAL_CAN_Transmit
 .text.HAL_CAN_Transmit_IT
                0x0805ad78      0x278 C:\PROGRA~2\VT3_8920\VT3\RESOUR~1\targets\CANVIEW4\lib\lld\libCANView4.a(stm32f4xx_hal_can.o)
                0x0805ad78                HAL_CAN_Transmit_IT
 .text.HAL_CAN_Receive
                0x0805aff0      0x288 C:\PROGRA~2\VT3_8920\VT3\RESOUR~1\targets\CANVIEW4\lib\lld\libCANView4.a(stm32f4xx_hal_can.o)
                0x0805aff0                HAL_CAN_Receive
 .text.HAL_CAN_Receive_IT
                0x0805b278       0xf4 C:\PROGRA~2\VT3_8920\VT3\RESOUR~1\targets\CANVIEW4\lib\lld\libCANView4.a(stm32f4xx_hal_can.o)
                0x0805b278                HAL_CAN_Receive_IT
 .text.HAL_CAN_Sleep
                0x0805b36c       0xaa C:\PROGRA~2\VT3_8920\VT3\RESOUR~1\targets\CANVIEW4\lib\lld\libCANView4.a(stm32f4xx_hal_can.o)
                0x0805b36c                HAL_CAN_Sleep
 .text.HAL_CAN_WakeUp
                0x0805b416       0xa6 C:\PROGRA~2\VT3_8920\VT3\RESOUR~1\targets\CANVIEW4\lib\lld\libCANView4.a(stm32f4xx_hal_can.o)
                0x0805b416                HAL_CAN_WakeUp
 .text.HAL_CAN_IRQHandler
                0x0805b4bc      0x354 C:\PROGRA~2\VT3_8920\VT3\RESOUR~1\targets\CANVIEW4\lib\lld\libCANView4.a(stm32f4xx_hal_can.o)
                0x0805b4bc                HAL_CAN_IRQHandler
 .text.HAL_CAN_TxCpltCallback
                0x0805b810       0x14 C:\PROGRA~2\VT3_8920\VT3\RESOUR~1\targets\CANVIEW4\lib\lld\libCANView4.a(stm32f4xx_hal_can.o)
                0x0805b810                HAL_CAN_TxCpltCallback
 .text.HAL_CAN_RxCpltCallback
                0x0805b824       0x14 C:\PROGRA~2\VT3_8920\VT3\RESOUR~1\targets\CANVIEW4\lib\lld\libCANView4.a(stm32f4xx_hal_can.o)
 .text.HAL_CAN_ErrorCallback
                0x0805b838       0x14 C:\PROGRA~2\VT3_8920\VT3\RESOUR~1\targets\CANVIEW4\lib\lld\libCANView4.a(stm32f4xx_hal_can.o)
                0x0805b838                HAL_CAN_ErrorCallback
 .text.HAL_CAN_GetState
                0x0805b84c       0x1c C:\PROGRA~2\VT3_8920\VT3\RESOUR~1\targets\CANVIEW4\lib\lld\libCANView4.a(stm32f4xx_hal_can.o)
                0x0805b84c                HAL_CAN_GetState
 .text.HAL_CAN_GetError
                0x0805b868       0x18 C:\PROGRA~2\VT3_8920\VT3\RESOUR~1\targets\CANVIEW4\lib\lld\libCANView4.a(stm32f4xx_hal_can.o)
                0x0805b868                HAL_CAN_GetError
 .text.CAN_Transmit_IT
                0x0805b880       0xa2 C:\PROGRA~2\VT3_8920\VT3\RESOUR~1\targets\CANVIEW4\lib\lld\libCANView4.a(stm32f4xx_hal_can.o)
 .text.CAN_Receive_IT
                0x0805b922      0x24e C:\PROGRA~2\VT3_8920\VT3\RESOUR~1\targets\CANVIEW4\lib\lld\libCANView4.a(stm32f4xx_hal_can.o)
 .text.HAL_DMA2D_Init
                0x0805bb70       0xba C:\PROGRA~2\VT3_8920\VT3\RESOUR~1\targets\CANVIEW4\lib\lld\libCANView4.a(stm32f4xx_hal_dma2d.o)
                0x0805bb70                HAL_DMA2D_Init
 .text.HAL_DMA2D_DeInit
                0x0805bc2a       0x38 C:\PROGRA~2\VT3_8920\VT3\RESOUR~1\targets\CANVIEW4\lib\lld\libCANView4.a(stm32f4xx_hal_dma2d.o)
                0x0805bc2a                HAL_DMA2D_DeInit
 .text.HAL_DMA2D_Start
                0x0805bc62       0x66 C:\PROGRA~2\VT3_8920\VT3\RESOUR~1\targets\CANVIEW4\lib\lld\libCANView4.a(stm32f4xx_hal_dma2d.o)
                0x0805bc62                HAL_DMA2D_Start
 .text.HAL_DMA2D_Start_IT
                0x0805bcc8       0x96 C:\PROGRA~2\VT3_8920\VT3\RESOUR~1\targets\CANVIEW4\lib\lld\libCANView4.a(stm32f4xx_hal_dma2d.o)
                0x0805bcc8                HAL_DMA2D_Start_IT
 .text.HAL_DMA2D_BlendingStart
                0x0805bd5e       0x6e C:\PROGRA~2\VT3_8920\VT3\RESOUR~1\targets\CANVIEW4\lib\lld\libCANView4.a(stm32f4xx_hal_dma2d.o)
                0x0805bd5e                HAL_DMA2D_BlendingStart
 .text.HAL_DMA2D_BlendingStart_IT
                0x0805bdcc       0x9e C:\PROGRA~2\VT3_8920\VT3\RESOUR~1\targets\CANVIEW4\lib\lld\libCANView4.a(stm32f4xx_hal_dma2d.o)
                0x0805bdcc                HAL_DMA2D_BlendingStart_IT
 .text.HAL_DMA2D_Abort
                0x0805be6a       0x7c C:\PROGRA~2\VT3_8920\VT3\RESOUR~1\targets\CANVIEW4\lib\lld\libCANView4.a(stm32f4xx_hal_dma2d.o)
                0x0805be6a                HAL_DMA2D_Abort
 .text.HAL_DMA2D_Suspend
                0x0805bee6       0x6c C:\PROGRA~2\VT3_8920\VT3\RESOUR~1\targets\CANVIEW4\lib\lld\libCANView4.a(stm32f4xx_hal_dma2d.o)
                0x0805bee6                HAL_DMA2D_Suspend
 .text.HAL_DMA2D_Resume
                0x0805bf52       0x2e C:\PROGRA~2\VT3_8920\VT3\RESOUR~1\targets\CANVIEW4\lib\lld\libCANView4.a(stm32f4xx_hal_dma2d.o)
                0x0805bf52                HAL_DMA2D_Resume
 .text.HAL_DMA2D_PollForTransfer
                0x0805bf80      0x15e C:\PROGRA~2\VT3_8920\VT3\RESOUR~1\targets\CANVIEW4\lib\lld\libCANView4.a(stm32f4xx_hal_dma2d.o)
                0x0805bf80                HAL_DMA2D_PollForTransfer
 .text.HAL_DMA2D_IRQHandler
                0x0805c0de      0x12c C:\PROGRA~2\VT3_8920\VT3\RESOUR~1\targets\CANVIEW4\lib\lld\libCANView4.a(stm32f4xx_hal_dma2d.o)
                0x0805c0de                HAL_DMA2D_IRQHandler
 *fill*         0x0805c20a        0x2 
 .text.HAL_DMA2D_ConfigLayer
                0x0805c20c      0x1bc C:\PROGRA~2\VT3_8920\VT3\RESOUR~1\targets\CANVIEW4\lib\lld\libCANView4.a(stm32f4xx_hal_dma2d.o)
                0x0805c20c                HAL_DMA2D_ConfigLayer
 .text.HAL_DMA2D_ConfigCLUT
                0x0805c3c8       0xc4 C:\PROGRA~2\VT3_8920\VT3\RESOUR~1\targets\CANVIEW4\lib\lld\libCANView4.a(stm32f4xx_hal_dma2d.o)
                0x0805c3c8                HAL_DMA2D_ConfigCLUT
 .text.HAL_DMA2D_EnableCLUT
                0x0805c48c       0x40 C:\PROGRA~2\VT3_8920\VT3\RESOUR~1\targets\CANVIEW4\lib\lld\libCANView4.a(stm32f4xx_hal_dma2d.o)
                0x0805c48c                HAL_DMA2D_EnableCLUT
 .text.HAL_DMA2D_DisableCLUT
                0x0805c4cc       0x40 C:\PROGRA~2\VT3_8920\VT3\RESOUR~1\targets\CANVIEW4\lib\lld\libCANView4.a(stm32f4xx_hal_dma2d.o)
                0x0805c4cc                HAL_DMA2D_DisableCLUT
 .text.HAL_DMA2D_ProgramLineEvent
                0x0805c50c       0x50 C:\PROGRA~2\VT3_8920\VT3\RESOUR~1\targets\CANVIEW4\lib\lld\libCANView4.a(stm32f4xx_hal_dma2d.o)
                0x0805c50c                HAL_DMA2D_ProgramLineEvent
 .text.HAL_DMA2D_GetState
                0x0805c55c       0x1c C:\PROGRA~2\VT3_8920\VT3\RESOUR~1\targets\CANVIEW4\lib\lld\libCANView4.a(stm32f4xx_hal_dma2d.o)
                0x0805c55c                HAL_DMA2D_GetState
 .text.HAL_DMA2D_GetError
                0x0805c578       0x18 C:\PROGRA~2\VT3_8920\VT3\RESOUR~1\targets\CANVIEW4\lib\lld\libCANView4.a(stm32f4xx_hal_dma2d.o)
                0x0805c578                HAL_DMA2D_GetError
 .text.DMA2D_SetConfig
                0x0805c590      0x144 C:\PROGRA~2\VT3_8920\VT3\RESOUR~1\targets\CANVIEW4\lib\lld\libCANView4.a(stm32f4xx_hal_dma2d.o)
 .text.HAL_FLASH_Program
                0x0805c6d4       0xa8 C:\PROGRA~2\VT3_8920\VT3\RESOUR~1\targets\CANVIEW4\lib\lld\libCANView4.a(stm32f4xx_hal_flash.o)
                0x0805c6d4                HAL_FLASH_Program
 .text.HAL_FLASH_Program_IT
                0x0805c77c       0x9c C:\PROGRA~2\VT3_8920\VT3\RESOUR~1\targets\CANVIEW4\lib\lld\libCANView4.a(stm32f4xx_hal_flash.o)
                0x0805c77c                HAL_FLASH_Program_IT
 .text.HAL_FLASH_IRQHandler
                0x0805c818      0x144 C:\PROGRA~2\VT3_8920\VT3\RESOUR~1\targets\CANVIEW4\lib\lld\libCANView4.a(stm32f4xx_hal_flash.o)
                0x0805c818                HAL_FLASH_IRQHandler
 .text.HAL_FLASH_EndOfOperationCallback
                0x0805c95c       0x14 C:\PROGRA~2\VT3_8920\VT3\RESOUR~1\targets\CANVIEW4\lib\lld\libCANView4.a(stm32f4xx_hal_flash.o)
                0x0805c95c                HAL_FLASH_EndOfOperationCallback
 .text.HAL_FLASH_OperationErrorCallback
                0x0805c970       0x14 C:\PROGRA~2\VT3_8920\VT3\RESOUR~1\targets\CANVIEW4\lib\lld\libCANView4.a(stm32f4xx_hal_flash.o)
                0x0805c970                HAL_FLASH_OperationErrorCallback
 .text.HAL_FLASH_Unlock
                0x0805c984       0x34 C:\PROGRA~2\VT3_8920\VT3\RESOUR~1\targets\CANVIEW4\lib\lld\libCANView4.a(stm32f4xx_hal_flash.o)
                0x0805c984                HAL_FLASH_Unlock
 .text.HAL_FLASH_Lock
                0x0805c9b8       0x20 C:\PROGRA~2\VT3_8920\VT3\RESOUR~1\targets\CANVIEW4\lib\lld\libCANView4.a(stm32f4xx_hal_flash.o)
                0x0805c9b8                HAL_FLASH_Lock
 .text.HAL_FLASH_OB_Unlock
                0x0805c9d8       0x38 C:\PROGRA~2\VT3_8920\VT3\RESOUR~1\targets\CANVIEW4\lib\lld\libCANView4.a(stm32f4xx_hal_flash.o)
                0x0805c9d8                HAL_FLASH_OB_Unlock
 .text.HAL_FLASH_OB_Lock
                0x0805ca10       0x20 C:\PROGRA~2\VT3_8920\VT3\RESOUR~1\targets\CANVIEW4\lib\lld\libCANView4.a(stm32f4xx_hal_flash.o)
                0x0805ca10                HAL_FLASH_OB_Lock
 .text.HAL_FLASH_OB_Launch
                0x0805ca30       0x28 C:\PROGRA~2\VT3_8920\VT3\RESOUR~1\targets\CANVIEW4\lib\lld\libCANView4.a(stm32f4xx_hal_flash.o)
                0x0805ca30                HAL_FLASH_OB_Launch
 .text.HAL_FLASH_GetError
                0x0805ca58       0x18 C:\PROGRA~2\VT3_8920\VT3\RESOUR~1\targets\CANVIEW4\lib\lld\libCANView4.a(stm32f4xx_hal_flash.o)
                0x0805ca58                HAL_FLASH_GetError
 .text.FLASH_WaitForLastOperation
                0x0805ca70       0x80 C:\PROGRA~2\VT3_8920\VT3\RESOUR~1\targets\CANVIEW4\lib\lld\libCANView4.a(stm32f4xx_hal_flash.o)
                0x0805ca70                FLASH_WaitForLastOperation
 .text.FLASH_Program_DoubleWord
                0x0805caf0       0x48 C:\PROGRA~2\VT3_8920\VT3\RESOUR~1\targets\CANVIEW4\lib\lld\libCANView4.a(stm32f4xx_hal_flash.o)
 .text.FLASH_Program_Word
                0x0805cb38       0x44 C:\PROGRA~2\VT3_8920\VT3\RESOUR~1\targets\CANVIEW4\lib\lld\libCANView4.a(stm32f4xx_hal_flash.o)
 .text.FLASH_Program_HalfWord
                0x0805cb7c       0x48 C:\PROGRA~2\VT3_8920\VT3\RESOUR~1\targets\CANVIEW4\lib\lld\libCANView4.a(stm32f4xx_hal_flash.o)
 .text.FLASH_Program_Byte
                0x0805cbc4       0x44 C:\PROGRA~2\VT3_8920\VT3\RESOUR~1\targets\CANVIEW4\lib\lld\libCANView4.a(stm32f4xx_hal_flash.o)
 .text.FLASH_SetErrorCode
                0x0805cc08       0xcc C:\PROGRA~2\VT3_8920\VT3\RESOUR~1\targets\CANVIEW4\lib\lld\libCANView4.a(stm32f4xx_hal_flash.o)
 .text.HAL_FLASHEx_Erase
                0x0805ccd4       0xe4 C:\PROGRA~2\VT3_8920\VT3\RESOUR~1\targets\CANVIEW4\lib\lld\libCANView4.a(stm32f4xx_hal_flash_ex.o)
                0x0805ccd4                HAL_FLASHEx_Erase
 .text.HAL_FLASHEx_Erase_IT
                0x0805cdb8       0xac C:\PROGRA~2\VT3_8920\VT3\RESOUR~1\targets\CANVIEW4\lib\lld\libCANView4.a(stm32f4xx_hal_flash_ex.o)
                0x0805cdb8                HAL_FLASHEx_Erase_IT
 .text.HAL_FLASHEx_OBProgram
                0x0805ce64       0xdc C:\PROGRA~2\VT3_8920\VT3\RESOUR~1\targets\CANVIEW4\lib\lld\libCANView4.a(stm32f4xx_hal_flash_ex.o)
                0x0805ce64                HAL_FLASHEx_OBProgram
 .text.FLASH_FlushCaches
                0x0805cf40       0x8c C:\PROGRA~2\VT3_8920\VT3\RESOUR~1\targets\CANVIEW4\lib\lld\libCANView4.a(stm32f4xx_hal_flash_ex.o)
                0x0805cf40                FLASH_FlushCaches
 .text.HAL_FLASHEx_OBGetConfig
                0x0805cfcc       0x46 C:\PROGRA~2\VT3_8920\VT3\RESOUR~1\targets\CANVIEW4\lib\lld\libCANView4.a(stm32f4xx_hal_flash_ex.o)
                0x0805cfcc                HAL_FLASHEx_OBGetConfig
 .text.HAL_FLASHEx_AdvOBProgram
                0x0805d012       0x7a C:\PROGRA~2\VT3_8920\VT3\RESOUR~1\targets\CANVIEW4\lib\lld\libCANView4.a(stm32f4xx_hal_flash_ex.o)
                0x0805d012                HAL_FLASHEx_AdvOBProgram
 .text.HAL_FLASHEx_AdvOBGetConfig
                0x0805d08c       0x40 C:\PROGRA~2\VT3_8920\VT3\RESOUR~1\targets\CANVIEW4\lib\lld\libCANView4.a(stm32f4xx_hal_flash_ex.o)
                0x0805d08c                HAL_FLASHEx_AdvOBGetConfig
 .text.HAL_FLASHEx_OB_SelectPCROP
                0x0805d0cc       0x34 C:\PROGRA~2\VT3_8920\VT3\RESOUR~1\targets\CANVIEW4\lib\lld\libCANView4.a(stm32f4xx_hal_flash_ex.o)
                0x0805d0cc                HAL_FLASHEx_OB_SelectPCROP
 .text.HAL_FLASHEx_OB_DeSelectPCROP
                0x0805d100       0x30 C:\PROGRA~2\VT3_8920\VT3\RESOUR~1\targets\CANVIEW4\lib\lld\libCANView4.a(stm32f4xx_hal_flash_ex.o)
                0x0805d100                HAL_FLASHEx_OB_DeSelectPCROP
 .text.HAL_FLASHEx_OB_GetBank2WRP
                0x0805d130       0x18 C:\PROGRA~2\VT3_8920\VT3\RESOUR~1\targets\CANVIEW4\lib\lld\libCANView4.a(stm32f4xx_hal_flash_ex.o)
                0x0805d130                HAL_FLASHEx_OB_GetBank2WRP
 .text.FLASH_MassErase
                0x0805d148       0x7c C:\PROGRA~2\VT3_8920\VT3\RESOUR~1\targets\CANVIEW4\lib\lld\libCANView4.a(stm32f4xx_hal_flash_ex.o)
 .text.FLASH_Erase_Sector
                0x0805d1c4       0xb0 C:\PROGRA~2\VT3_8920\VT3\RESOUR~1\targets\CANVIEW4\lib\lld\libCANView4.a(stm32f4xx_hal_flash_ex.o)
                0x0805d1c4                FLASH_Erase_Sector
 .text.FLASH_OB_EnableWRP
                0x0805d274       0xdc C:\PROGRA~2\VT3_8920\VT3\RESOUR~1\targets\CANVIEW4\lib\lld\libCANView4.a(stm32f4xx_hal_flash_ex.o)
 .text.FLASH_OB_DisableWRP
                0x0805d350       0xcc C:\PROGRA~2\VT3_8920\VT3\RESOUR~1\targets\CANVIEW4\lib\lld\libCANView4.a(stm32f4xx_hal_flash_ex.o)
 .text.FLASH_OB_BootConfig
                0x0805d41c       0x50 C:\PROGRA~2\VT3_8920\VT3\RESOUR~1\targets\CANVIEW4\lib\lld\libCANView4.a(stm32f4xx_hal_flash_ex.o)
 .text.FLASH_OB_EnablePCROP
                0x0805d46c       0x90 C:\PROGRA~2\VT3_8920\VT3\RESOUR~1\targets\CANVIEW4\lib\lld\libCANView4.a(stm32f4xx_hal_flash_ex.o)
 .text.FLASH_OB_DisablePCROP
                0x0805d4fc       0x9c C:\PROGRA~2\VT3_8920\VT3\RESOUR~1\targets\CANVIEW4\lib\lld\libCANView4.a(stm32f4xx_hal_flash_ex.o)
 .text.FLASH_OB_RDP_LevelConfig
                0x0805d598       0x34 C:\PROGRA~2\VT3_8920\VT3\RESOUR~1\targets\CANVIEW4\lib\lld\libCANView4.a(stm32f4xx_hal_flash_ex.o)
 .text.FLASH_OB_UserConfig
                0x0805d5cc       0x60 C:\PROGRA~2\VT3_8920\VT3\RESOUR~1\targets\CANVIEW4\lib\lld\libCANView4.a(stm32f4xx_hal_flash_ex.o)
 .text.FLASH_OB_BOR_LevelConfig
                0x0805d62c       0x3c C:\PROGRA~2\VT3_8920\VT3\RESOUR~1\targets\CANVIEW4\lib\lld\libCANView4.a(stm32f4xx_hal_flash_ex.o)
 .text.FLASH_OB_GetUser
                0x0805d668       0x20 C:\PROGRA~2\VT3_8920\VT3\RESOUR~1\targets\CANVIEW4\lib\lld\libCANView4.a(stm32f4xx_hal_flash_ex.o)
 .text.FLASH_OB_GetWRP
                0x0805d688       0x18 C:\PROGRA~2\VT3_8920\VT3\RESOUR~1\targets\CANVIEW4\lib\lld\libCANView4.a(stm32f4xx_hal_flash_ex.o)
 .text.FLASH_OB_GetRDP
                0x0805d6a0       0x40 C:\PROGRA~2\VT3_8920\VT3\RESOUR~1\targets\CANVIEW4\lib\lld\libCANView4.a(stm32f4xx_hal_flash_ex.o)
 .text.FLASH_OB_GetBOR
                0x0805d6e0       0x20 C:\PROGRA~2\VT3_8920\VT3\RESOUR~1\targets\CANVIEW4\lib\lld\libCANView4.a(stm32f4xx_hal_flash_ex.o)
 .text.HAL_I2C_Init
                0x0805d700      0x1b4 C:\PROGRA~2\VT3_8920\VT3\RESOUR~1\targets\CANVIEW4\lib\lld\libCANView4.a(stm32f4xx_hal_i2c.o)
                0x0805d700                HAL_I2C_Init
 .text.HAL_I2C_DeInit
                0x0805d8b4       0x50 C:\PROGRA~2\VT3_8920\VT3\RESOUR~1\targets\CANVIEW4\lib\lld\libCANView4.a(stm32f4xx_hal_i2c.o)
                0x0805d8b4                HAL_I2C_DeInit
 .text.HAL_I2C_Master_Transmit
                0x0805d904      0x168 C:\PROGRA~2\VT3_8920\VT3\RESOUR~1\targets\CANVIEW4\lib\lld\libCANView4.a(stm32f4xx_hal_i2c.o)
                0x0805d904                HAL_I2C_Master_Transmit
 .text.HAL_I2C_Master_Receive
                0x0805da6c      0x2f0 C:\PROGRA~2\VT3_8920\VT3\RESOUR~1\targets\CANVIEW4\lib\lld\libCANView4.a(stm32f4xx_hal_i2c.o)
                0x0805da6c                HAL_I2C_Master_Receive
 .text.HAL_I2C_Slave_Transmit
                0x0805dd5c      0x19c C:\PROGRA~2\VT3_8920\VT3\RESOUR~1\targets\CANVIEW4\lib\lld\libCANView4.a(stm32f4xx_hal_i2c.o)
                0x0805dd5c                HAL_I2C_Slave_Transmit
 .text.HAL_I2C_Slave_Receive
                0x0805def8      0x180 C:\PROGRA~2\VT3_8920\VT3\RESOUR~1\targets\CANVIEW4\lib\lld\libCANView4.a(stm32f4xx_hal_i2c.o)
                0x0805def8                HAL_I2C_Slave_Receive
 .text.HAL_I2C_Master_Transmit_IT
                0x0805e078       0xfc C:\PROGRA~2\VT3_8920\VT3\RESOUR~1\targets\CANVIEW4\lib\lld\libCANView4.a(stm32f4xx_hal_i2c.o)
                0x0805e078                HAL_I2C_Master_Transmit_IT
 .text.HAL_I2C_Master_Receive_IT
                0x0805e174      0x18c C:\PROGRA~2\VT3_8920\VT3\RESOUR~1\targets\CANVIEW4\lib\lld\libCANView4.a(stm32f4xx_hal_i2c.o)
                0x0805e174                HAL_I2C_Master_Receive_IT
 .text.HAL_I2C_Slave_Transmit_IT
                0x0805e300       0xc4 C:\PROGRA~2\VT3_8920\VT3\RESOUR~1\targets\CANVIEW4\lib\lld\libCANView4.a(stm32f4xx_hal_i2c.o)
                0x0805e300                HAL_I2C_Slave_Transmit_IT
 .text.HAL_I2C_Slave_Receive_IT
                0x0805e3c4       0xc4 C:\PROGRA~2\VT3_8920\VT3\RESOUR~1\targets\CANVIEW4\lib\lld\libCANView4.a(stm32f4xx_hal_i2c.o)
                0x0805e3c4                HAL_I2C_Slave_Receive_IT
 .text.HAL_I2C_Master_Transmit_DMA
                0x0805e488      0x128 C:\PROGRA~2\VT3_8920\VT3\RESOUR~1\targets\CANVIEW4\lib\lld\libCANView4.a(stm32f4xx_hal_i2c.o)
                0x0805e488                HAL_I2C_Master_Transmit_DMA
 .text.HAL_I2C_Master_Receive_DMA
                0x0805e5b0      0x154 C:\PROGRA~2\VT3_8920\VT3\RESOUR~1\targets\CANVIEW4\lib\lld\libCANView4.a(stm32f4xx_hal_i2c.o)
                0x0805e5b0                HAL_I2C_Master_Receive_DMA
 .text.HAL_I2C_Slave_Transmit_DMA
                0x0805e704      0x168 C:\PROGRA~2\VT3_8920\VT3\RESOUR~1\targets\CANVIEW4\lib\lld\libCANView4.a(stm32f4xx_hal_i2c.o)
                0x0805e704                HAL_I2C_Slave_Transmit_DMA
 .text.HAL_I2C_Slave_Receive_DMA
                0x0805e86c      0x11c C:\PROGRA~2\VT3_8920\VT3\RESOUR~1\targets\CANVIEW4\lib\lld\libCANView4.a(stm32f4xx_hal_i2c.o)
                0x0805e86c                HAL_I2C_Slave_Receive_DMA
 .text.HAL_I2C_Mem_Write
                0x0805e988      0x160 C:\PROGRA~2\VT3_8920\VT3\RESOUR~1\targets\CANVIEW4\lib\lld\libCANView4.a(stm32f4xx_hal_i2c.o)
                0x0805e988                HAL_I2C_Mem_Write
 .text.HAL_I2C_Mem_Read
                0x0805eae8      0x2ec C:\PROGRA~2\VT3_8920\VT3\RESOUR~1\targets\CANVIEW4\lib\lld\libCANView4.a(stm32f4xx_hal_i2c.o)
                0x0805eae8                HAL_I2C_Mem_Read
 .text.HAL_I2C_Mem_Write_IT
                0x0805edd4       0xf8 C:\PROGRA~2\VT3_8920\VT3\RESOUR~1\targets\CANVIEW4\lib\lld\libCANView4.a(stm32f4xx_hal_i2c.o)
                0x0805edd4                HAL_I2C_Mem_Write_IT
 .text.HAL_I2C_Mem_Read_IT
                0x0805eecc      0x198 C:\PROGRA~2\VT3_8920\VT3\RESOUR~1\targets\CANVIEW4\lib\lld\libCANView4.a(stm32f4xx_hal_i2c.o)
                0x0805eecc                HAL_I2C_Mem_Read_IT
 .text.HAL_I2C_Mem_Write_DMA
                0x0805f064      0x124 C:\PROGRA~2\VT3_8920\VT3\RESOUR~1\targets\CANVIEW4\lib\lld\libCANView4.a(stm32f4xx_hal_i2c.o)
                0x0805f064                HAL_I2C_Mem_Write_DMA
 .text.HAL_I2C_Mem_Read_DMA
                0x0805f188      0x160 C:\PROGRA~2\VT3_8920\VT3\RESOUR~1\targets\CANVIEW4\lib\lld\libCANView4.a(stm32f4xx_hal_i2c.o)
                0x0805f188                HAL_I2C_Mem_Read_DMA
 .text.HAL_I2C_IsDeviceReady
                0x0805f2e8      0x224 C:\PROGRA~2\VT3_8920\VT3\RESOUR~1\targets\CANVIEW4\lib\lld\libCANView4.a(stm32f4xx_hal_i2c.o)
                0x0805f2e8                HAL_I2C_IsDeviceReady
 .text.HAL_I2C_EV_IRQHandler
                0x0805f50c      0x2f6 C:\PROGRA~2\VT3_8920\VT3\RESOUR~1\targets\CANVIEW4\lib\lld\libCANView4.a(stm32f4xx_hal_i2c.o)
                0x0805f50c                HAL_I2C_EV_IRQHandler
 .text.HAL_I2C_ER_IRQHandler
                0x0805f802      0x1cc C:\PROGRA~2\VT3_8920\VT3\RESOUR~1\targets\CANVIEW4\lib\lld\libCANView4.a(stm32f4xx_hal_i2c.o)
                0x0805f802                HAL_I2C_ER_IRQHandler
 .text.HAL_I2C_MasterTxCpltCallback
                0x0805f9ce       0x14 C:\PROGRA~2\VT3_8920\VT3\RESOUR~1\targets\CANVIEW4\lib\lld\libCANView4.a(stm32f4xx_hal_i2c.o)
                0x0805f9ce                HAL_I2C_MasterTxCpltCallback
 .text.HAL_I2C_MasterRxCpltCallback
                0x0805f9e2       0x14 C:\PROGRA~2\VT3_8920\VT3\RESOUR~1\targets\CANVIEW4\lib\lld\libCANView4.a(stm32f4xx_hal_i2c.o)
                0x0805f9e2                HAL_I2C_MasterRxCpltCallback
 .text.HAL_I2C_SlaveTxCpltCallback
                0x0805f9f6       0x14 C:\PROGRA~2\VT3_8920\VT3\RESOUR~1\targets\CANVIEW4\lib\lld\libCANView4.a(stm32f4xx_hal_i2c.o)
                0x0805f9f6                HAL_I2C_SlaveTxCpltCallback
 .text.HAL_I2C_SlaveRxCpltCallback
                0x0805fa0a       0x14 C:\PROGRA~2\VT3_8920\VT3\RESOUR~1\targets\CANVIEW4\lib\lld\libCANView4.a(stm32f4xx_hal_i2c.o)
                0x0805fa0a                HAL_I2C_SlaveRxCpltCallback
 .text.HAL_I2C_MemTxCpltCallback
                0x0805fa1e       0x14 C:\PROGRA~2\VT3_8920\VT3\RESOUR~1\targets\CANVIEW4\lib\lld\libCANView4.a(stm32f4xx_hal_i2c.o)
                0x0805fa1e                HAL_I2C_MemTxCpltCallback
 .text.HAL_I2C_MemRxCpltCallback
                0x0805fa32       0x14 C:\PROGRA~2\VT3_8920\VT3\RESOUR~1\targets\CANVIEW4\lib\lld\libCANView4.a(stm32f4xx_hal_i2c.o)
                0x0805fa32                HAL_I2C_MemRxCpltCallback
 .text.HAL_I2C_ErrorCallback
                0x0805fa46       0x14 C:\PROGRA~2\VT3_8920\VT3\RESOUR~1\targets\CANVIEW4\lib\lld\libCANView4.a(stm32f4xx_hal_i2c.o)
                0x0805fa46                HAL_I2C_ErrorCallback
 .text.HAL_I2C_GetState
                0x0805fa5a       0x1c C:\PROGRA~2\VT3_8920\VT3\RESOUR~1\targets\CANVIEW4\lib\lld\libCANView4.a(stm32f4xx_hal_i2c.o)
                0x0805fa5a                HAL_I2C_GetState
 .text.HAL_I2C_GetError
                0x0805fa76       0x18 C:\PROGRA~2\VT3_8920\VT3\RESOUR~1\targets\CANVIEW4\lib\lld\libCANView4.a(stm32f4xx_hal_i2c.o)
                0x0805fa76                HAL_I2C_GetError
 .text.I2C_MasterTransmit_TXE
                0x0805fa8e       0x50 C:\PROGRA~2\VT3_8920\VT3\RESOUR~1\targets\CANVIEW4\lib\lld\libCANView4.a(stm32f4xx_hal_i2c.o)
 .text.I2C_MasterTransmit_BTF
                0x0805fade       0x88 C:\PROGRA~2\VT3_8920\VT3\RESOUR~1\targets\CANVIEW4\lib\lld\libCANView4.a(stm32f4xx_hal_i2c.o)
 .text.I2C_MasterReceive_RXNE
                0x0805fb66       0xc2 C:\PROGRA~2\VT3_8920\VT3\RESOUR~1\targets\CANVIEW4\lib\lld\libCANView4.a(stm32f4xx_hal_i2c.o)
 .text.I2C_MasterReceive_BTF
                0x0805fc28      0x10c C:\PROGRA~2\VT3_8920\VT3\RESOUR~1\targets\CANVIEW4\lib\lld\libCANView4.a(stm32f4xx_hal_i2c.o)
 .text.I2C_SlaveTransmit_TXE
                0x0805fd34       0x40 C:\PROGRA~2\VT3_8920\VT3\RESOUR~1\targets\CANVIEW4\lib\lld\libCANView4.a(stm32f4xx_hal_i2c.o)
 .text.I2C_SlaveTransmit_BTF
                0x0805fd74       0x40 C:\PROGRA~2\VT3_8920\VT3\RESOUR~1\targets\CANVIEW4\lib\lld\libCANView4.a(stm32f4xx_hal_i2c.o)
 .text.I2C_SlaveReceive_RXNE
                0x0805fdb4       0x42 C:\PROGRA~2\VT3_8920\VT3\RESOUR~1\targets\CANVIEW4\lib\lld\libCANView4.a(stm32f4xx_hal_i2c.o)
 .text.I2C_SlaveReceive_BTF
                0x0805fdf6       0x42 C:\PROGRA~2\VT3_8920\VT3\RESOUR~1\targets\CANVIEW4\lib\lld\libCANView4.a(stm32f4xx_hal_i2c.o)
 .text.I2C_Slave_ADDR
                0x0805fe38       0x28 C:\PROGRA~2\VT3_8920\VT3\RESOUR~1\targets\CANVIEW4\lib\lld\libCANView4.a(stm32f4xx_hal_i2c.o)
 .text.I2C_Slave_STOPF
                0x0805fe60       0x5a C:\PROGRA~2\VT3_8920\VT3\RESOUR~1\targets\CANVIEW4\lib\lld\libCANView4.a(stm32f4xx_hal_i2c.o)
 .text.I2C_Slave_AF
                0x0805feba       0x4a C:\PROGRA~2\VT3_8920\VT3\RESOUR~1\targets\CANVIEW4\lib\lld\libCANView4.a(stm32f4xx_hal_i2c.o)
 .text.I2C_MasterRequestWrite
                0x0805ff04       0xc8 C:\PROGRA~2\VT3_8920\VT3\RESOUR~1\targets\CANVIEW4\lib\lld\libCANView4.a(stm32f4xx_hal_i2c.o)
 .text.I2C_MasterRequestRead
                0x0805ffcc      0x148 C:\PROGRA~2\VT3_8920\VT3\RESOUR~1\targets\CANVIEW4\lib\lld\libCANView4.a(stm32f4xx_hal_i2c.o)
 .text.I2C_RequestMemoryWrite
                0x08060114       0xec C:\PROGRA~2\VT3_8920\VT3\RESOUR~1\targets\CANVIEW4\lib\lld\libCANView4.a(stm32f4xx_hal_i2c.o)
 .text.I2C_RequestMemoryRead
                0x08060200      0x16c C:\PROGRA~2\VT3_8920\VT3\RESOUR~1\targets\CANVIEW4\lib\lld\libCANView4.a(stm32f4xx_hal_i2c.o)
 .text.I2C_DMAMasterTransmitCplt
                0x0806036c       0x7c C:\PROGRA~2\VT3_8920\VT3\RESOUR~1\targets\CANVIEW4\lib\lld\libCANView4.a(stm32f4xx_hal_i2c.o)
 .text.I2C_DMASlaveTransmitCplt
                0x080603e8       0x84 C:\PROGRA~2\VT3_8920\VT3\RESOUR~1\targets\CANVIEW4\lib\lld\libCANView4.a(stm32f4xx_hal_i2c.o)
 .text.I2C_DMAMasterReceiveCplt
                0x0806046c       0x7a C:\PROGRA~2\VT3_8920\VT3\RESOUR~1\targets\CANVIEW4\lib\lld\libCANView4.a(stm32f4xx_hal_i2c.o)
 *fill*         0x080604e6        0x2 
 .text.I2C_DMASlaveReceiveCplt
                0x080604e8       0x98 C:\PROGRA~2\VT3_8920\VT3\RESOUR~1\targets\CANVIEW4\lib\lld\libCANView4.a(stm32f4xx_hal_i2c.o)
 .text.I2C_DMAMemTransmitCplt
                0x08060580       0x7c C:\PROGRA~2\VT3_8920\VT3\RESOUR~1\targets\CANVIEW4\lib\lld\libCANView4.a(stm32f4xx_hal_i2c.o)
 .text.I2C_DMAMemReceiveCplt
                0x080605fc       0x7a C:\PROGRA~2\VT3_8920\VT3\RESOUR~1\targets\CANVIEW4\lib\lld\libCANView4.a(stm32f4xx_hal_i2c.o)
 .text.I2C_DMAError
                0x08060676       0x46 C:\PROGRA~2\VT3_8920\VT3\RESOUR~1\targets\CANVIEW4\lib\lld\libCANView4.a(stm32f4xx_hal_i2c.o)
 .text.I2C_WaitOnFlagUntilTimeout
                0x080606bc      0x112 C:\PROGRA~2\VT3_8920\VT3\RESOUR~1\targets\CANVIEW4\lib\lld\libCANView4.a(stm32f4xx_hal_i2c.o)
 .text.I2C_WaitOnMasterAddressFlagUntilTimeout
                0x080607ce       0xd8 C:\PROGRA~2\VT3_8920\VT3\RESOUR~1\targets\CANVIEW4\lib\lld\libCANView4.a(stm32f4xx_hal_i2c.o)
 *fill*         0x080608a6        0x2 
 .text.HAL_LTDC_Init
                0x080608a8      0x1b8 C:\PROGRA~2\VT3_8920\VT3\RESOUR~1\targets\CANVIEW4\lib\lld\libCANView4.a(stm32f4xx_hal_ltdc.o)
                0x080608a8                HAL_LTDC_Init
 .text.HAL_LTDC_DeInit
                0x08060a60       0x30 C:\PROGRA~2\VT3_8920\VT3\RESOUR~1\targets\CANVIEW4\lib\lld\libCANView4.a(stm32f4xx_hal_ltdc.o)
                0x08060a60                HAL_LTDC_DeInit
 .text.HAL_LTDC_IRQHandler
                0x08060a90      0x10e C:\PROGRA~2\VT3_8920\VT3\RESOUR~1\targets\CANVIEW4\lib\lld\libCANView4.a(stm32f4xx_hal_ltdc.o)
                0x08060a90                HAL_LTDC_IRQHandler
 .text.HAL_LTDC_ErrorCallback
                0x08060b9e       0x14 C:\PROGRA~2\VT3_8920\VT3\RESOUR~1\targets\CANVIEW4\lib\lld\libCANView4.a(stm32f4xx_hal_ltdc.o)
                0x08060b9e                HAL_LTDC_ErrorCallback
 .text.HAL_LTDC_LineEventCallback
                0x08060bb2       0x14 C:\PROGRA~2\VT3_8920\VT3\RESOUR~1\targets\CANVIEW4\lib\lld\libCANView4.a(stm32f4xx_hal_ltdc.o)
                0x08060bb2                HAL_LTDC_LineEventCallback
 .text.HAL_LTDC_ConfigLayer
                0x08060bc6       0x7c C:\PROGRA~2\VT3_8920\VT3\RESOUR~1\targets\CANVIEW4\lib\lld\libCANView4.a(stm32f4xx_hal_ltdc.o)
                0x08060bc6                HAL_LTDC_ConfigLayer
 .text.HAL_LTDC_ConfigColorKeying
                0x08060c42       0x88 C:\PROGRA~2\VT3_8920\VT3\RESOUR~1\targets\CANVIEW4\lib\lld\libCANView4.a(stm32f4xx_hal_ltdc.o)
                0x08060c42                HAL_LTDC_ConfigColorKeying
 .text.HAL_LTDC_ConfigCLUT
                0x08060cca       0xe8 C:\PROGRA~2\VT3_8920\VT3\RESOUR~1\targets\CANVIEW4\lib\lld\libCANView4.a(stm32f4xx_hal_ltdc.o)
                0x08060cca                HAL_LTDC_ConfigCLUT
 .text.HAL_LTDC_EnableColorKeying
                0x08060db2       0x72 C:\PROGRA~2\VT3_8920\VT3\RESOUR~1\targets\CANVIEW4\lib\lld\libCANView4.a(stm32f4xx_hal_ltdc.o)
                0x08060db2                HAL_LTDC_EnableColorKeying
 .text.HAL_LTDC_DisableColorKeying
                0x08060e24       0x72 C:\PROGRA~2\VT3_8920\VT3\RESOUR~1\targets\CANVIEW4\lib\lld\libCANView4.a(stm32f4xx_hal_ltdc.o)
                0x08060e24                HAL_LTDC_DisableColorKeying
 .text.HAL_LTDC_EnableCLUT
                0x08060e96       0x72 C:\PROGRA~2\VT3_8920\VT3\RESOUR~1\targets\CANVIEW4\lib\lld\libCANView4.a(stm32f4xx_hal_ltdc.o)
                0x08060e96                HAL_LTDC_EnableCLUT
 .text.HAL_LTDC_DisableCLUT
                0x08060f08       0x72 C:\PROGRA~2\VT3_8920\VT3\RESOUR~1\targets\CANVIEW4\lib\lld\libCANView4.a(stm32f4xx_hal_ltdc.o)
                0x08060f08                HAL_LTDC_DisableCLUT
 *fill*         0x08060f7a        0x2 
 .text.HAL_LTDC_EnableDither
                0x08060f7c       0x54 C:\PROGRA~2\VT3_8920\VT3\RESOUR~1\targets\CANVIEW4\lib\lld\libCANView4.a(stm32f4xx_hal_ltdc.o)
                0x08060f7c                HAL_LTDC_EnableDither
 .text.HAL_LTDC_DisableDither
                0x08060fd0       0x54 C:\PROGRA~2\VT3_8920\VT3\RESOUR~1\targets\CANVIEW4\lib\lld\libCANView4.a(stm32f4xx_hal_ltdc.o)
                0x08060fd0                HAL_LTDC_DisableDither
 .text.HAL_LTDC_SetWindowSize
                0x08061024       0x98 C:\PROGRA~2\VT3_8920\VT3\RESOUR~1\targets\CANVIEW4\lib\lld\libCANView4.a(stm32f4xx_hal_ltdc.o)
                0x08061024                HAL_LTDC_SetWindowSize
 .text.HAL_LTDC_SetWindowPosition
                0x080610bc       0x8c C:\PROGRA~2\VT3_8920\VT3\RESOUR~1\targets\CANVIEW4\lib\lld\libCANView4.a(stm32f4xx_hal_ltdc.o)
                0x080610bc                HAL_LTDC_SetWindowPosition
 .text.HAL_LTDC_SetPixelFormat
                0x08061148       0x6c C:\PROGRA~2\VT3_8920\VT3\RESOUR~1\targets\CANVIEW4\lib\lld\libCANView4.a(stm32f4xx_hal_ltdc.o)
                0x08061148                HAL_LTDC_SetPixelFormat
 .text.HAL_LTDC_SetAlpha
                0x080611b4       0x6c C:\PROGRA~2\VT3_8920\VT3\RESOUR~1\targets\CANVIEW4\lib\lld\libCANView4.a(stm32f4xx_hal_ltdc.o)
                0x080611b4                HAL_LTDC_SetAlpha
 .text.HAL_LTDC_SetAddress
                0x08061220       0x6c C:\PROGRA~2\VT3_8920\VT3\RESOUR~1\targets\CANVIEW4\lib\lld\libCANView4.a(stm32f4xx_hal_ltdc.o)
                0x08061220                HAL_LTDC_SetAddress
 .text.HAL_LTDC_SetPitch
                0x0806128c      0x118 C:\PROGRA~2\VT3_8920\VT3\RESOUR~1\targets\CANVIEW4\lib\lld\libCANView4.a(stm32f4xx_hal_ltdc.o)
                0x0806128c                HAL_LTDC_SetPitch
 .text.HAL_LTDC_ProgramLineEvent
                0x080613a4       0x60 C:\PROGRA~2\VT3_8920\VT3\RESOUR~1\targets\CANVIEW4\lib\lld\libCANView4.a(stm32f4xx_hal_ltdc.o)
                0x080613a4                HAL_LTDC_ProgramLineEvent
 .text.HAL_LTDC_GetState
                0x08061404       0x1c C:\PROGRA~2\VT3_8920\VT3\RESOUR~1\targets\CANVIEW4\lib\lld\libCANView4.a(stm32f4xx_hal_ltdc.o)
                0x08061404                HAL_LTDC_GetState
 .text.HAL_LTDC_GetError
                0x08061420       0x1a C:\PROGRA~2\VT3_8920\VT3\RESOUR~1\targets\CANVIEW4\lib\lld\libCANView4.a(stm32f4xx_hal_ltdc.o)
                0x08061420                HAL_LTDC_GetError
 .text.LTDC_SetConfig
                0x0806143a      0x33a C:\PROGRA~2\VT3_8920\VT3\RESOUR~1\targets\CANVIEW4\lib\lld\libCANView4.a(stm32f4xx_hal_ltdc.o)
 .text.HAL_PWR_DeInit
                0x08061774       0x2c C:\PROGRA~2\VT3_8920\VT3\RESOUR~1\targets\CANVIEW4\lib\lld\libCANView4.a(stm32f4xx_hal_pwr.o)
                0x08061774                HAL_PWR_DeInit
 .text.HAL_PWR_EnableBkUpAccess
                0x080617a0       0x36 C:\PROGRA~2\VT3_8920\VT3\RESOUR~1\targets\CANVIEW4\lib\lld\libCANView4.a(stm32f4xx_hal_pwr.o)
                0x080617a0                HAL_PWR_EnableBkUpAccess
 .text.HAL_PWR_DisableBkUpAccess
                0x080617d6       0x36 C:\PROGRA~2\VT3_8920\VT3\RESOUR~1\targets\CANVIEW4\lib\lld\libCANView4.a(stm32f4xx_hal_pwr.o)
                0x080617d6                HAL_PWR_DisableBkUpAccess
 .text.HAL_PWR_ConfigPVD
                0x0806180c       0xc0 C:\PROGRA~2\VT3_8920\VT3\RESOUR~1\targets\CANVIEW4\lib\lld\libCANView4.a(stm32f4xx_hal_pwr.o)
                0x0806180c                HAL_PWR_ConfigPVD
 .text.HAL_PWR_EnablePVD
                0x080618cc       0x34 C:\PROGRA~2\VT3_8920\VT3\RESOUR~1\targets\CANVIEW4\lib\lld\libCANView4.a(stm32f4xx_hal_pwr.o)
                0x080618cc                HAL_PWR_EnablePVD
 .text.HAL_PWR_DisablePVD
                0x08061900       0x34 C:\PROGRA~2\VT3_8920\VT3\RESOUR~1\targets\CANVIEW4\lib\lld\libCANView4.a(stm32f4xx_hal_pwr.o)
                0x08061900                HAL_PWR_DisablePVD
 .text.HAL_PWR_EnableWakeUpPin
                0x08061934       0x24 C:\PROGRA~2\VT3_8920\VT3\RESOUR~1\targets\CANVIEW4\lib\lld\libCANView4.a(stm32f4xx_hal_pwr.o)
                0x08061934                HAL_PWR_EnableWakeUpPin
 .text.HAL_PWR_DisableWakeUpPin
                0x08061958       0x28 C:\PROGRA~2\VT3_8920\VT3\RESOUR~1\targets\CANVIEW4\lib\lld\libCANView4.a(stm32f4xx_hal_pwr.o)
                0x08061958                HAL_PWR_DisableWakeUpPin
 .text.HAL_PWR_EnterSLEEPMode
                0x08061980       0x38 C:\PROGRA~2\VT3_8920\VT3\RESOUR~1\targets\CANVIEW4\lib\lld\libCANView4.a(stm32f4xx_hal_pwr.o)
                0x08061980                HAL_PWR_EnterSLEEPMode
 .text.HAL_PWR_EnterSTOPMode
                0x080619b8       0x58 C:\PROGRA~2\VT3_8920\VT3\RESOUR~1\targets\CANVIEW4\lib\lld\libCANView4.a(stm32f4xx_hal_pwr.o)
                0x080619b8                HAL_PWR_EnterSTOPMode
 .text.HAL_PWR_EnterSTANDBYMode
                0x08061a10       0x30 C:\PROGRA~2\VT3_8920\VT3\RESOUR~1\targets\CANVIEW4\lib\lld\libCANView4.a(stm32f4xx_hal_pwr.o)
                0x08061a10                HAL_PWR_EnterSTANDBYMode
 .text.HAL_PWR_PVD_IRQHandler
                0x08061a40       0x24 C:\PROGRA~2\VT3_8920\VT3\RESOUR~1\targets\CANVIEW4\lib\lld\libCANView4.a(stm32f4xx_hal_pwr.o)
                0x08061a40                HAL_PWR_PVD_IRQHandler
 .text.HAL_PWR_PVDCallback
                0x08061a64        0xe C:\PROGRA~2\VT3_8920\VT3\RESOUR~1\targets\CANVIEW4\lib\lld\libCANView4.a(stm32f4xx_hal_pwr.o)
                0x08061a64                HAL_PWR_PVDCallback
 *fill*         0x08061a72        0x2 
 .text.HAL_PWR_EnableSleepOnExit
                0x08061a74       0x20 C:\PROGRA~2\VT3_8920\VT3\RESOUR~1\targets\CANVIEW4\lib\lld\libCANView4.a(stm32f4xx_hal_pwr.o)
                0x08061a74                HAL_PWR_EnableSleepOnExit
 .text.HAL_PWR_DisableSleepOnExit
                0x08061a94       0x20 C:\PROGRA~2\VT3_8920\VT3\RESOUR~1\targets\CANVIEW4\lib\lld\libCANView4.a(stm32f4xx_hal_pwr.o)
                0x08061a94                HAL_PWR_DisableSleepOnExit
 .text.HAL_PWR_EnableSEVOnPend
                0x08061ab4       0x20 C:\PROGRA~2\VT3_8920\VT3\RESOUR~1\targets\CANVIEW4\lib\lld\libCANView4.a(stm32f4xx_hal_pwr.o)
                0x08061ab4                HAL_PWR_EnableSEVOnPend
 .text.HAL_PWR_DisableSEVOnPend
                0x08061ad4       0x20 C:\PROGRA~2\VT3_8920\VT3\RESOUR~1\targets\CANVIEW4\lib\lld\libCANView4.a(stm32f4xx_hal_pwr.o)
                0x08061ad4                HAL_PWR_DisableSEVOnPend
 .text.HAL_PWREx_EnableBkUpReg
                0x08061af4       0x68 C:\PROGRA~2\VT3_8920\VT3\RESOUR~1\targets\CANVIEW4\lib\lld\libCANView4.a(stm32f4xx_hal_pwr_ex.o)
                0x08061af4                HAL_PWREx_EnableBkUpReg
 .text.HAL_PWREx_DisableBkUpReg
                0x08061b5c       0x68 C:\PROGRA~2\VT3_8920\VT3\RESOUR~1\targets\CANVIEW4\lib\lld\libCANView4.a(stm32f4xx_hal_pwr_ex.o)
                0x08061b5c                HAL_PWREx_DisableBkUpReg
 .text.HAL_PWREx_EnableFlashPowerDown
                0x08061bc4       0x36 C:\PROGRA~2\VT3_8920\VT3\RESOUR~1\targets\CANVIEW4\lib\lld\libCANView4.a(stm32f4xx_hal_pwr_ex.o)
                0x08061bc4                HAL_PWREx_EnableFlashPowerDown
 .text.HAL_PWREx_DisableFlashPowerDown
                0x08061bfa       0x36 C:\PROGRA~2\VT3_8920\VT3\RESOUR~1\targets\CANVIEW4\lib\lld\libCANView4.a(stm32f4xx_hal_pwr_ex.o)
                0x08061bfa                HAL_PWREx_DisableFlashPowerDown
 .text.HAL_PWREx_GetVoltageRange
                0x08061c30       0x1c C:\PROGRA~2\VT3_8920\VT3\RESOUR~1\targets\CANVIEW4\lib\lld\libCANView4.a(stm32f4xx_hal_pwr_ex.o)
                0x08061c30                HAL_PWREx_GetVoltageRange
 .text.HAL_PWREx_ControlVoltageScaling
                0x08061c4c       0xec C:\PROGRA~2\VT3_8920\VT3\RESOUR~1\targets\CANVIEW4\lib\lld\libCANView4.a(stm32f4xx_hal_pwr_ex.o)
                0x08061c4c                HAL_PWREx_ControlVoltageScaling
 .text.HAL_PWREx_EnableOverDrive
                0x08061d38       0xd0 C:\PROGRA~2\VT3_8920\VT3\RESOUR~1\targets\CANVIEW4\lib\lld\libCANView4.a(stm32f4xx_hal_pwr_ex.o)
                0x08061d38                HAL_PWREx_EnableOverDrive
 .text.HAL_PWREx_DisableOverDrive
                0x08061e08       0xd0 C:\PROGRA~2\VT3_8920\VT3\RESOUR~1\targets\CANVIEW4\lib\lld\libCANView4.a(stm32f4xx_hal_pwr_ex.o)
                0x08061e08                HAL_PWREx_DisableOverDrive
 .text.HAL_PWREx_EnterUnderDriveSTOPMode
                0x08061ed8       0xc8 C:\PROGRA~2\VT3_8920\VT3\RESOUR~1\targets\CANVIEW4\lib\lld\libCANView4.a(stm32f4xx_hal_pwr_ex.o)
                0x08061ed8                HAL_PWREx_EnterUnderDriveSTOPMode
 .text.HAL_RCC_DeInit
                0x08061fa0       0x78 C:\PROGRA~2\VT3_8920\VT3\RESOUR~1\targets\CANVIEW4\lib\lld\libCANView4.a(stm32f4xx_hal_rcc_ex.o)
                0x08061fa0                HAL_RCC_DeInit
 .text.HAL_RCCEx_PeriphCLKConfig
                0x08062018      0x428 C:\PROGRA~2\VT3_8920\VT3\RESOUR~1\targets\CANVIEW4\lib\lld\libCANView4.a(stm32f4xx_hal_rcc_ex.o)
                0x08062018                HAL_RCCEx_PeriphCLKConfig
 .text.HAL_RCCEx_GetPeriphCLKConfig
                0x08062440      0x18c C:\PROGRA~2\VT3_8920\VT3\RESOUR~1\targets\CANVIEW4\lib\lld\libCANView4.a(stm32f4xx_hal_rcc_ex.o)
                0x08062440                HAL_RCCEx_GetPeriphCLKConfig
 .text.HAL_RTC_Init
                0x080625cc       0xf6 C:\PROGRA~2\VT3_8920\VT3\RESOUR~1\targets\CANVIEW4\lib\lld\libCANView4.a(stm32f4xx_hal_rtc.o)
                0x080625cc                HAL_RTC_Init
 *fill*         0x080626c2        0x2 
 .text.HAL_RTC_DeInit
                0x080626c4      0x158 C:\PROGRA~2\VT3_8920\VT3\RESOUR~1\targets\CANVIEW4\lib\lld\libCANView4.a(stm32f4xx_hal_rtc.o)
                0x080626c4                HAL_RTC_DeInit
 .text.HAL_RTC_SetTime
                0x0806281c      0x18a C:\PROGRA~2\VT3_8920\VT3\RESOUR~1\targets\CANVIEW4\lib\lld\libCANView4.a(stm32f4xx_hal_rtc.o)
                0x0806281c                HAL_RTC_SetTime
 .text.HAL_RTC_GetTime
                0x080629a6       0xbc C:\PROGRA~2\VT3_8920\VT3\RESOUR~1\targets\CANVIEW4\lib\lld\libCANView4.a(stm32f4xx_hal_rtc.o)
                0x080629a6                HAL_RTC_GetTime
 .text.HAL_RTC_SetDate
                0x08062a62      0x16a C:\PROGRA~2\VT3_8920\VT3\RESOUR~1\targets\CANVIEW4\lib\lld\libCANView4.a(stm32f4xx_hal_rtc.o)
                0x08062a62                HAL_RTC_SetDate
 .text.HAL_RTC_GetDate
                0x08062bcc       0x9e C:\PROGRA~2\VT3_8920\VT3\RESOUR~1\targets\CANVIEW4\lib\lld\libCANView4.a(stm32f4xx_hal_rtc.o)
                0x08062bcc                HAL_RTC_GetDate
 .text.HAL_RTC_SetAlarm
                0x08062c6a      0x26a C:\PROGRA~2\VT3_8920\VT3\RESOUR~1\targets\CANVIEW4\lib\lld\libCANView4.a(stm32f4xx_hal_rtc.o)
                0x08062c6a                HAL_RTC_SetAlarm
 .text.HAL_RTC_SetAlarm_IT
                0x08062ed4      0x2ac C:\PROGRA~2\VT3_8920\VT3\RESOUR~1\targets\CANVIEW4\lib\lld\libCANView4.a(stm32f4xx_hal_rtc.o)
                0x08062ed4                HAL_RTC_SetAlarm_IT
 .text.HAL_RTC_DeactivateAlarm
                0x08063180      0x11a C:\PROGRA~2\VT3_8920\VT3\RESOUR~1\targets\CANVIEW4\lib\lld\libCANView4.a(stm32f4xx_hal_rtc.o)
                0x08063180                HAL_RTC_DeactivateAlarm
 .text.HAL_RTC_GetAlarm
                0x0806329a      0x11e C:\PROGRA~2\VT3_8920\VT3\RESOUR~1\targets\CANVIEW4\lib\lld\libCANView4.a(stm32f4xx_hal_rtc.o)
                0x0806329a                HAL_RTC_GetAlarm
 .text.HAL_RTC_AlarmIRQHandler
                0x080633b8       0x8c C:\PROGRA~2\VT3_8920\VT3\RESOUR~1\targets\CANVIEW4\lib\lld\libCANView4.a(stm32f4xx_hal_rtc.o)
                0x080633b8                HAL_RTC_AlarmIRQHandler
 .text.HAL_RTC_AlarmAEventCallback
                0x08063444       0x14 C:\PROGRA~2\VT3_8920\VT3\RESOUR~1\targets\CANVIEW4\lib\lld\libCANView4.a(stm32f4xx_hal_rtc.o)
                0x08063444                HAL_RTC_AlarmAEventCallback
 .text.HAL_RTC_PollForAlarmAEvent
                0x08063458       0x6e C:\PROGRA~2\VT3_8920\VT3\RESOUR~1\targets\CANVIEW4\lib\lld\libCANView4.a(stm32f4xx_hal_rtc.o)
                0x08063458                HAL_RTC_PollForAlarmAEvent
 .text.HAL_RTC_WaitForSynchro
                0x080634c6       0x50 C:\PROGRA~2\VT3_8920\VT3\RESOUR~1\targets\CANVIEW4\lib\lld\libCANView4.a(stm32f4xx_hal_rtc.o)
                0x080634c6                HAL_RTC_WaitForSynchro
 .text.HAL_RTC_GetState
                0x08063516       0x1a C:\PROGRA~2\VT3_8920\VT3\RESOUR~1\targets\CANVIEW4\lib\lld\libCANView4.a(stm32f4xx_hal_rtc.o)
                0x08063516                HAL_RTC_GetState
 .text.RTC_EnterInitMode
                0x08063530       0x58 C:\PROGRA~2\VT3_8920\VT3\RESOUR~1\targets\CANVIEW4\lib\lld\libCANView4.a(stm32f4xx_hal_rtc.o)
                0x08063530                RTC_EnterInitMode
 .text.RTC_ByteToBcd2
                0x08063588       0x3c C:\PROGRA~2\VT3_8920\VT3\RESOUR~1\targets\CANVIEW4\lib\lld\libCANView4.a(stm32f4xx_hal_rtc.o)
                0x08063588                RTC_ByteToBcd2
 .text.RTC_Bcd2ToByte
                0x080635c4       0x3c C:\PROGRA~2\VT3_8920\VT3\RESOUR~1\targets\CANVIEW4\lib\lld\libCANView4.a(stm32f4xx_hal_rtc.o)
                0x080635c4                RTC_Bcd2ToByte
 .text.HAL_RTCEx_SetTimeStamp
                0x08063600       0xaa C:\PROGRA~2\VT3_8920\VT3\RESOUR~1\targets\CANVIEW4\lib\lld\libCANView4.a(stm32f4xx_hal_rtc_ex.o)
                0x08063600                HAL_RTCEx_SetTimeStamp
 *fill*         0x080636aa        0x2 
 .text.HAL_RTCEx_SetTimeStamp_IT
                0x080636ac       0xd8 C:\PROGRA~2\VT3_8920\VT3\RESOUR~1\targets\CANVIEW4\lib\lld\libCANView4.a(stm32f4xx_hal_rtc_ex.o)
                0x080636ac                HAL_RTCEx_SetTimeStamp_IT
 .text.HAL_RTCEx_DeactivateTimeStamp
                0x08063784       0x7e C:\PROGRA~2\VT3_8920\VT3\RESOUR~1\targets\CANVIEW4\lib\lld\libCANView4.a(stm32f4xx_hal_rtc_ex.o)
                0x08063784                HAL_RTCEx_DeactivateTimeStamp
 .text.HAL_RTCEx_GetTimeStamp
                0x08063802      0x140 C:\PROGRA~2\VT3_8920\VT3\RESOUR~1\targets\CANVIEW4\lib\lld\libCANView4.a(stm32f4xx_hal_rtc_ex.o)
                0x08063802                HAL_RTCEx_GetTimeStamp
 .text.HAL_RTCEx_SetTamper
                0x08063942       0xb6 C:\PROGRA~2\VT3_8920\VT3\RESOUR~1\targets\CANVIEW4\lib\lld\libCANView4.a(stm32f4xx_hal_rtc_ex.o)
                0x08063942                HAL_RTCEx_SetTamper
 .text.HAL_RTCEx_SetTamper_IT
                0x080639f8       0xe4 C:\PROGRA~2\VT3_8920\VT3\RESOUR~1\targets\CANVIEW4\lib\lld\libCANView4.a(stm32f4xx_hal_rtc_ex.o)
                0x080639f8                HAL_RTCEx_SetTamper_IT
 .text.HAL_RTCEx_DeactivateTamper
                0x08063adc       0x4e C:\PROGRA~2\VT3_8920\VT3\RESOUR~1\targets\CANVIEW4\lib\lld\libCANView4.a(stm32f4xx_hal_rtc_ex.o)
                0x08063adc                HAL_RTCEx_DeactivateTamper
 *fill*         0x08063b2a        0x2 
 .text.HAL_RTCEx_TamperTimeStampIRQHandler
                0x08063b2c       0xc0 C:\PROGRA~2\VT3_8920\VT3\RESOUR~1\targets\CANVIEW4\lib\lld\libCANView4.a(stm32f4xx_hal_rtc_ex.o)
                0x08063b2c                HAL_RTCEx_TamperTimeStampIRQHandler
 .text.HAL_RTCEx_TimeStampEventCallback
                0x08063bec       0x14 C:\PROGRA~2\VT3_8920\VT3\RESOUR~1\targets\CANVIEW4\lib\lld\libCANView4.a(stm32f4xx_hal_rtc_ex.o)
                0x08063bec                HAL_RTCEx_TimeStampEventCallback
 .text.HAL_RTCEx_Tamper1EventCallback
                0x08063c00       0x14 C:\PROGRA~2\VT3_8920\VT3\RESOUR~1\targets\CANVIEW4\lib\lld\libCANView4.a(stm32f4xx_hal_rtc_ex.o)
                0x08063c00                HAL_RTCEx_Tamper1EventCallback
 .text.HAL_RTCEx_Tamper2EventCallback
                0x08063c14       0x14 C:\PROGRA~2\VT3_8920\VT3\RESOUR~1\targets\CANVIEW4\lib\lld\libCANView4.a(stm32f4xx_hal_rtc_ex.o)
                0x08063c14                HAL_RTCEx_Tamper2EventCallback
 .text.HAL_RTCEx_PollForTimeStampEvent
                0x08063c28       0x86 C:\PROGRA~2\VT3_8920\VT3\RESOUR~1\targets\CANVIEW4\lib\lld\libCANView4.a(stm32f4xx_hal_rtc_ex.o)
                0x08063c28                HAL_RTCEx_PollForTimeStampEvent
 .text.HAL_RTCEx_PollForTamper1Event
                0x08063cae       0x6e C:\PROGRA~2\VT3_8920\VT3\RESOUR~1\targets\CANVIEW4\lib\lld\libCANView4.a(stm32f4xx_hal_rtc_ex.o)
                0x08063cae                HAL_RTCEx_PollForTamper1Event
 .text.HAL_RTCEx_PollForTamper2Event
                0x08063d1c       0x6e C:\PROGRA~2\VT3_8920\VT3\RESOUR~1\targets\CANVIEW4\lib\lld\libCANView4.a(stm32f4xx_hal_rtc_ex.o)
                0x08063d1c                HAL_RTCEx_PollForTamper2Event
 .text.HAL_RTCEx_SetWakeUpTimer
                0x08063d8a      0x128 C:\PROGRA~2\VT3_8920\VT3\RESOUR~1\targets\CANVIEW4\lib\lld\libCANView4.a(stm32f4xx_hal_rtc_ex.o)
                0x08063d8a                HAL_RTCEx_SetWakeUpTimer
 *fill*         0x08063eb2        0x2 
 .text.HAL_RTCEx_SetWakeUpTimer_IT
                0x08063eb4      0x154 C:\PROGRA~2\VT3_8920\VT3\RESOUR~1\targets\CANVIEW4\lib\lld\libCANView4.a(stm32f4xx_hal_rtc_ex.o)
                0x08063eb4                HAL_RTCEx_SetWakeUpTimer_IT
 .text.HAL_RTCEx_DeactivateWakeUpTimer
                0x08064008       0xb0 C:\PROGRA~2\VT3_8920\VT3\RESOUR~1\targets\CANVIEW4\lib\lld\libCANView4.a(stm32f4xx_hal_rtc_ex.o)
                0x08064008                HAL_RTCEx_DeactivateWakeUpTimer
 .text.HAL_RTCEx_GetWakeUpTimer
                0x080640b8       0x1c C:\PROGRA~2\VT3_8920\VT3\RESOUR~1\targets\CANVIEW4\lib\lld\libCANView4.a(stm32f4xx_hal_rtc_ex.o)
                0x080640b8                HAL_RTCEx_GetWakeUpTimer
 .text.HAL_RTCEx_WakeUpTimerIRQHandler
                0x080640d4       0x58 C:\PROGRA~2\VT3_8920\VT3\RESOUR~1\targets\CANVIEW4\lib\lld\libCANView4.a(stm32f4xx_hal_rtc_ex.o)
                0x080640d4                HAL_RTCEx_WakeUpTimerIRQHandler
 .text.HAL_RTCEx_WakeUpTimerEventCallback
                0x0806412c       0x14 C:\PROGRA~2\VT3_8920\VT3\RESOUR~1\targets\CANVIEW4\lib\lld\libCANView4.a(stm32f4xx_hal_rtc_ex.o)
                0x0806412c                HAL_RTCEx_WakeUpTimerEventCallback
 .text.HAL_RTCEx_PollForWakeUpTimerEvent
                0x08064140       0x6e C:\PROGRA~2\VT3_8920\VT3\RESOUR~1\targets\CANVIEW4\lib\lld\libCANView4.a(stm32f4xx_hal_rtc_ex.o)
                0x08064140                HAL_RTCEx_PollForWakeUpTimerEvent
 .text.HAL_RTCEx_BKUPWrite
                0x080641ae       0x34 C:\PROGRA~2\VT3_8920\VT3\RESOUR~1\targets\CANVIEW4\lib\lld\libCANView4.a(stm32f4xx_hal_rtc_ex.o)
                0x080641ae                HAL_RTCEx_BKUPWrite
 .text.HAL_RTCEx_BKUPRead
                0x080641e2       0x30 C:\PROGRA~2\VT3_8920\VT3\RESOUR~1\targets\CANVIEW4\lib\lld\libCANView4.a(stm32f4xx_hal_rtc_ex.o)
                0x080641e2                HAL_RTCEx_BKUPRead
 .text.HAL_RTCEx_SetCoarseCalib
                0x08064212       0xa2 C:\PROGRA~2\VT3_8920\VT3\RESOUR~1\targets\CANVIEW4\lib\lld\libCANView4.a(stm32f4xx_hal_rtc_ex.o)
                0x08064212                HAL_RTCEx_SetCoarseCalib
 .text.HAL_RTCEx_DeactivateCoarseCalib
                0x080642b4       0x92 C:\PROGRA~2\VT3_8920\VT3\RESOUR~1\targets\CANVIEW4\lib\lld\libCANView4.a(stm32f4xx_hal_rtc_ex.o)
                0x080642b4                HAL_RTCEx_DeactivateCoarseCalib
 .text.HAL_RTCEx_SetSmoothCalib
                0x08064346       0xb6 C:\PROGRA~2\VT3_8920\VT3\RESOUR~1\targets\CANVIEW4\lib\lld\libCANView4.a(stm32f4xx_hal_rtc_ex.o)
                0x08064346                HAL_RTCEx_SetSmoothCalib
 .text.HAL_RTCEx_SetSynchroShift
                0x080643fc       0xf8 C:\PROGRA~2\VT3_8920\VT3\RESOUR~1\targets\CANVIEW4\lib\lld\libCANView4.a(stm32f4xx_hal_rtc_ex.o)
                0x080643fc                HAL_RTCEx_SetSynchroShift
 .text.HAL_RTCEx_SetCalibrationOutPut
                0x080644f4       0x84 C:\PROGRA~2\VT3_8920\VT3\RESOUR~1\targets\CANVIEW4\lib\lld\libCANView4.a(stm32f4xx_hal_rtc_ex.o)
                0x080644f4                HAL_RTCEx_SetCalibrationOutPut
 .text.HAL_RTCEx_DeactivateCalibrationOutPut
                0x08064578       0x62 C:\PROGRA~2\VT3_8920\VT3\RESOUR~1\targets\CANVIEW4\lib\lld\libCANView4.a(stm32f4xx_hal_rtc_ex.o)
                0x08064578                HAL_RTCEx_DeactivateCalibrationOutPut
 .text.HAL_RTCEx_SetRefClock
                0x080645da       0x92 C:\PROGRA~2\VT3_8920\VT3\RESOUR~1\targets\CANVIEW4\lib\lld\libCANView4.a(stm32f4xx_hal_rtc_ex.o)
                0x080645da                HAL_RTCEx_SetRefClock
 .text.HAL_RTCEx_DeactivateRefClock
                0x0806466c       0x92 C:\PROGRA~2\VT3_8920\VT3\RESOUR~1\targets\CANVIEW4\lib\lld\libCANView4.a(stm32f4xx_hal_rtc_ex.o)
                0x0806466c                HAL_RTCEx_DeactivateRefClock
 .text.HAL_RTCEx_EnableBypassShadow
                0x080646fe       0x62 C:\PROGRA~2\VT3_8920\VT3\RESOUR~1\targets\CANVIEW4\lib\lld\libCANView4.a(stm32f4xx_hal_rtc_ex.o)
                0x080646fe                HAL_RTCEx_EnableBypassShadow
 .text.HAL_RTCEx_DisableBypassShadow
                0x08064760       0x62 C:\PROGRA~2\VT3_8920\VT3\RESOUR~1\targets\CANVIEW4\lib\lld\libCANView4.a(stm32f4xx_hal_rtc_ex.o)
                0x08064760                HAL_RTCEx_DisableBypassShadow
 .text.HAL_RTCEx_AlarmBEventCallback
                0x080647c2       0x14 C:\PROGRA~2\VT3_8920\VT3\RESOUR~1\targets\CANVIEW4\lib\lld\libCANView4.a(stm32f4xx_hal_rtc_ex.o)
                0x080647c2                HAL_RTCEx_AlarmBEventCallback
 .text.HAL_RTCEx_PollForAlarmBEvent
                0x080647d6       0x6e C:\PROGRA~2\VT3_8920\VT3\RESOUR~1\targets\CANVIEW4\lib\lld\libCANView4.a(stm32f4xx_hal_rtc_ex.o)
                0x080647d6                HAL_RTCEx_PollForAlarmBEvent
 .text.HAL_SDRAM_Init
                0x08064844       0x68 C:\PROGRA~2\VT3_8920\VT3\RESOUR~1\targets\CANVIEW4\lib\lld\libCANView4.a(stm32f4xx_hal_sdram.o)
                0x08064844                HAL_SDRAM_Init
 .text.HAL_SDRAM_DeInit
                0x080648ac       0x38 C:\PROGRA~2\VT3_8920\VT3\RESOUR~1\targets\CANVIEW4\lib\lld\libCANView4.a(stm32f4xx_hal_sdram.o)
                0x080648ac                HAL_SDRAM_DeInit
 .text.HAL_SDRAM_IRQHandler
                0x080648e4       0x34 C:\PROGRA~2\VT3_8920\VT3\RESOUR~1\targets\CANVIEW4\lib\lld\libCANView4.a(stm32f4xx_hal_sdram.o)
                0x080648e4                HAL_SDRAM_IRQHandler
 .text.HAL_SDRAM_RefreshErrorCallback
                0x08064918       0x14 C:\PROGRA~2\VT3_8920\VT3\RESOUR~1\targets\CANVIEW4\lib\lld\libCANView4.a(stm32f4xx_hal_sdram.o)
                0x08064918                HAL_SDRAM_RefreshErrorCallback
 .text.HAL_SDRAM_DMA_XferCpltCallback
                0x0806492c       0x14 C:\PROGRA~2\VT3_8920\VT3\RESOUR~1\targets\CANVIEW4\lib\lld\libCANView4.a(stm32f4xx_hal_sdram.o)
                0x0806492c                HAL_SDRAM_DMA_XferCpltCallback
 .text.HAL_SDRAM_DMA_XferErrorCallback
                0x08064940       0x14 C:\PROGRA~2\VT3_8920\VT3\RESOUR~1\targets\CANVIEW4\lib\lld\libCANView4.a(stm32f4xx_hal_sdram.o)
                0x08064940                HAL_SDRAM_DMA_XferErrorCallback
 .text.HAL_SDRAM_Read_8b
                0x08064954       0x80 C:\PROGRA~2\VT3_8920\VT3\RESOUR~1\targets\CANVIEW4\lib\lld\libCANView4.a(stm32f4xx_hal_sdram.o)
                0x08064954                HAL_SDRAM_Read_8b
 .text.HAL_SDRAM_Write_8b
                0x080649d4       0x86 C:\PROGRA~2\VT3_8920\VT3\RESOUR~1\targets\CANVIEW4\lib\lld\libCANView4.a(stm32f4xx_hal_sdram.o)
                0x080649d4                HAL_SDRAM_Write_8b
 .text.HAL_SDRAM_Read_16b
                0x08064a5a       0x80 C:\PROGRA~2\VT3_8920\VT3\RESOUR~1\targets\CANVIEW4\lib\lld\libCANView4.a(stm32f4xx_hal_sdram.o)
                0x08064a5a                HAL_SDRAM_Read_16b
 .text.HAL_SDRAM_Write_16b
                0x08064ada       0x86 C:\PROGRA~2\VT3_8920\VT3\RESOUR~1\targets\CANVIEW4\lib\lld\libCANView4.a(stm32f4xx_hal_sdram.o)
                0x08064ada                HAL_SDRAM_Write_16b
 .text.HAL_SDRAM_Read_32b
                0x08064b60       0x7e C:\PROGRA~2\VT3_8920\VT3\RESOUR~1\targets\CANVIEW4\lib\lld\libCANView4.a(stm32f4xx_hal_sdram.o)
                0x08064b60                HAL_SDRAM_Read_32b
 .text.HAL_SDRAM_Write_32b
                0x08064bde       0x86 C:\PROGRA~2\VT3_8920\VT3\RESOUR~1\targets\CANVIEW4\lib\lld\libCANView4.a(stm32f4xx_hal_sdram.o)
                0x08064bde                HAL_SDRAM_Write_32b
 .text.HAL_SDRAM_Read_DMA
                0x08064c64       0x80 C:\PROGRA~2\VT3_8920\VT3\RESOUR~1\targets\CANVIEW4\lib\lld\libCANView4.a(stm32f4xx_hal_sdram.o)
                0x08064c64                HAL_SDRAM_Read_DMA
 .text.HAL_SDRAM_Write_DMA
                0x08064ce4       0x84 C:\PROGRA~2\VT3_8920\VT3\RESOUR~1\targets\CANVIEW4\lib\lld\libCANView4.a(stm32f4xx_hal_sdram.o)
                0x08064ce4                HAL_SDRAM_Write_DMA
 .text.HAL_SDRAM_WriteProtection_Enable
                0x08064d68       0x42 C:\PROGRA~2\VT3_8920\VT3\RESOUR~1\targets\CANVIEW4\lib\lld\libCANView4.a(stm32f4xx_hal_sdram.o)
                0x08064d68                HAL_SDRAM_WriteProtection_Enable
 .text.HAL_SDRAM_WriteProtection_Disable
                0x08064daa       0x42 C:\PROGRA~2\VT3_8920\VT3\RESOUR~1\targets\CANVIEW4\lib\lld\libCANView4.a(stm32f4xx_hal_sdram.o)
                0x08064daa                HAL_SDRAM_WriteProtection_Disable
 .text.HAL_SDRAM_SendCommand
                0x08064dec       0x56 C:\PROGRA~2\VT3_8920\VT3\RESOUR~1\targets\CANVIEW4\lib\lld\libCANView4.a(stm32f4xx_hal_sdram.o)
                0x08064dec                HAL_SDRAM_SendCommand
 .text.HAL_SDRAM_ProgramRefreshRate
                0x08064e42       0x40 C:\PROGRA~2\VT3_8920\VT3\RESOUR~1\targets\CANVIEW4\lib\lld\libCANView4.a(stm32f4xx_hal_sdram.o)
                0x08064e42                HAL_SDRAM_ProgramRefreshRate
 .text.HAL_SDRAM_SetAutoRefreshNumber
                0x08064e82       0x40 C:\PROGRA~2\VT3_8920\VT3\RESOUR~1\targets\CANVIEW4\lib\lld\libCANView4.a(stm32f4xx_hal_sdram.o)
                0x08064e82                HAL_SDRAM_SetAutoRefreshNumber
 .text.HAL_SDRAM_GetModeStatus
                0x08064ec2       0x22 C:\PROGRA~2\VT3_8920\VT3\RESOUR~1\targets\CANVIEW4\lib\lld\libCANView4.a(stm32f4xx_hal_sdram.o)
                0x08064ec2                HAL_SDRAM_GetModeStatus
 .text.HAL_SDRAM_GetState
                0x08064ee4       0x1c C:\PROGRA~2\VT3_8920\VT3\RESOUR~1\targets\CANVIEW4\lib\lld\libCANView4.a(stm32f4xx_hal_sdram.o)
                0x08064ee4                HAL_SDRAM_GetState
 .text.HAL_SPI_Init
                0x08064f00       0xcc C:\PROGRA~2\VT3_8920\VT3\RESOUR~1\targets\CANVIEW4\lib\lld\libCANView4.a(stm32f4xx_hal_spi.o)
                0x08064f00                HAL_SPI_Init
 .text.HAL_SPI_DeInit
                0x08064fcc       0x48 C:\PROGRA~2\VT3_8920\VT3\RESOUR~1\targets\CANVIEW4\lib\lld\libCANView4.a(stm32f4xx_hal_spi.o)
                0x08064fcc                HAL_SPI_DeInit
 .text.HAL_SPI_Transmit
                0x08065014      0x278 C:\PROGRA~2\VT3_8920\VT3\RESOUR~1\targets\CANVIEW4\lib\lld\libCANView4.a(stm32f4xx_hal_spi.o)
                0x08065014                HAL_SPI_Transmit
 .text.HAL_SPI_Receive
                0x0806528c      0x30c C:\PROGRA~2\VT3_8920\VT3\RESOUR~1\targets\CANVIEW4\lib\lld\libCANView4.a(stm32f4xx_hal_spi.o)
                0x0806528c                HAL_SPI_Receive
 .text.HAL_SPI_TransmitReceive
                0x08065598      0x4b2 C:\PROGRA~2\VT3_8920\VT3\RESOUR~1\targets\CANVIEW4\lib\lld\libCANView4.a(stm32f4xx_hal_spi.o)
                0x08065598                HAL_SPI_TransmitReceive
 *fill*         0x08065a4a        0x2 
 .text.HAL_SPI_Transmit_IT
                0x08065a4c      0x124 C:\PROGRA~2\VT3_8920\VT3\RESOUR~1\targets\CANVIEW4\lib\lld\libCANView4.a(stm32f4xx_hal_spi.o)
                0x08065a4c                HAL_SPI_Transmit_IT
 .text.HAL_SPI_Receive_IT
                0x08065b70      0x134 C:\PROGRA~2\VT3_8920\VT3\RESOUR~1\targets\CANVIEW4\lib\lld\libCANView4.a(stm32f4xx_hal_spi.o)
                0x08065b70                HAL_SPI_Receive_IT
 .text.HAL_SPI_TransmitReceive_IT
                0x08065ca4      0x12c C:\PROGRA~2\VT3_8920\VT3\RESOUR~1\targets\CANVIEW4\lib\lld\libCANView4.a(stm32f4xx_hal_spi.o)
                0x08065ca4                HAL_SPI_TransmitReceive_IT
 .text.HAL_SPI_Transmit_DMA
                0x08065dd0      0x140 C:\PROGRA~2\VT3_8920\VT3\RESOUR~1\targets\CANVIEW4\lib\lld\libCANView4.a(stm32f4xx_hal_spi.o)
                0x08065dd0                HAL_SPI_Transmit_DMA
 .text.HAL_SPI_Receive_DMA
                0x08065f10      0x16c C:\PROGRA~2\VT3_8920\VT3\RESOUR~1\targets\CANVIEW4\lib\lld\libCANView4.a(stm32f4xx_hal_spi.o)
                0x08065f10                HAL_SPI_Receive_DMA
 .text.HAL_SPI_TransmitReceive_DMA
                0x0806607c      0x1d8 C:\PROGRA~2\VT3_8920\VT3\RESOUR~1\targets\CANVIEW4\lib\lld\libCANView4.a(stm32f4xx_hal_spi.o)
                0x0806607c                HAL_SPI_TransmitReceive_DMA
 .text.HAL_SPI_DMAPause
                0x08066254       0x54 C:\PROGRA~2\VT3_8920\VT3\RESOUR~1\targets\CANVIEW4\lib\lld\libCANView4.a(stm32f4xx_hal_spi.o)
                0x08066254                HAL_SPI_DMAPause
 .text.HAL_SPI_DMAResume
                0x080662a8       0x54 C:\PROGRA~2\VT3_8920\VT3\RESOUR~1\targets\CANVIEW4\lib\lld\libCANView4.a(stm32f4xx_hal_spi.o)
                0x080662a8                HAL_SPI_DMAResume
 .text.HAL_SPI_DMAStop
                0x080662fc       0x5e C:\PROGRA~2\VT3_8920\VT3\RESOUR~1\targets\CANVIEW4\lib\lld\libCANView4.a(stm32f4xx_hal_spi.o)
                0x080662fc                HAL_SPI_DMAStop
 .text.HAL_SPI_IRQHandler
                0x0806635a      0x194 C:\PROGRA~2\VT3_8920\VT3\RESOUR~1\targets\CANVIEW4\lib\lld\libCANView4.a(stm32f4xx_hal_spi.o)
                0x0806635a                HAL_SPI_IRQHandler
 .text.HAL_SPI_TxRxCpltCallback
                0x080664ee       0x14 C:\PROGRA~2\VT3_8920\VT3\RESOUR~1\targets\CANVIEW4\lib\lld\libCANView4.a(stm32f4xx_hal_spi.o)
                0x080664ee                HAL_SPI_TxRxCpltCallback
 .text.HAL_SPI_TxHalfCpltCallback
                0x08066502       0x14 C:\PROGRA~2\VT3_8920\VT3\RESOUR~1\targets\CANVIEW4\lib\lld\libCANView4.a(stm32f4xx_hal_spi.o)
                0x08066502                HAL_SPI_TxHalfCpltCallback
 .text.HAL_SPI_RxHalfCpltCallback
                0x08066516       0x14 C:\PROGRA~2\VT3_8920\VT3\RESOUR~1\targets\CANVIEW4\lib\lld\libCANView4.a(stm32f4xx_hal_spi.o)
                0x08066516                HAL_SPI_RxHalfCpltCallback
 .text.HAL_SPI_TxRxHalfCpltCallback
                0x0806652a       0x14 C:\PROGRA~2\VT3_8920\VT3\RESOUR~1\targets\CANVIEW4\lib\lld\libCANView4.a(stm32f4xx_hal_spi.o)
                0x0806652a                HAL_SPI_TxRxHalfCpltCallback
 .text.HAL_SPI_ErrorCallback
                0x0806653e       0x14 C:\PROGRA~2\VT3_8920\VT3\RESOUR~1\targets\CANVIEW4\lib\lld\libCANView4.a(stm32f4xx_hal_spi.o)
                0x0806653e                HAL_SPI_ErrorCallback
 .text.HAL_SPI_GetState
                0x08066552       0x1c C:\PROGRA~2\VT3_8920\VT3\RESOUR~1\targets\CANVIEW4\lib\lld\libCANView4.a(stm32f4xx_hal_spi.o)
                0x08066552                HAL_SPI_GetState
 .text.HAL_SPI_GetError
                0x0806656e       0x18 C:\PROGRA~2\VT3_8920\VT3\RESOUR~1\targets\CANVIEW4\lib\lld\libCANView4.a(stm32f4xx_hal_spi.o)
                0x0806656e                HAL_SPI_GetError
 .text.SPI_TxCloseIRQHandler
                0x08066586       0xd6 C:\PROGRA~2\VT3_8920\VT3\RESOUR~1\targets\CANVIEW4\lib\lld\libCANView4.a(stm32f4xx_hal_spi.o)
 .text.SPI_TxISR
                0x0806665c       0x76 C:\PROGRA~2\VT3_8920\VT3\RESOUR~1\targets\CANVIEW4\lib\lld\libCANView4.a(stm32f4xx_hal_spi.o)
 .text.SPI_RxCloseIRQHandler
                0x080666d2      0x13a C:\PROGRA~2\VT3_8920\VT3\RESOUR~1\targets\CANVIEW4\lib\lld\libCANView4.a(stm32f4xx_hal_spi.o)
 .text.SPI_2LinesRxISR
                0x0806680c       0x60 C:\PROGRA~2\VT3_8920\VT3\RESOUR~1\targets\CANVIEW4\lib\lld\libCANView4.a(stm32f4xx_hal_spi.o)
 .text.SPI_RxISR
                0x0806686c       0x82 C:\PROGRA~2\VT3_8920\VT3\RESOUR~1\targets\CANVIEW4\lib\lld\libCANView4.a(stm32f4xx_hal_spi.o)
 .text.SPI_DMATransmitCplt
                0x080668ee       0xae C:\PROGRA~2\VT3_8920\VT3\RESOUR~1\targets\CANVIEW4\lib\lld\libCANView4.a(stm32f4xx_hal_spi.o)
 .text.SPI_DMAReceiveCplt
                0x0806699c      0x11e C:\PROGRA~2\VT3_8920\VT3\RESOUR~1\targets\CANVIEW4\lib\lld\libCANView4.a(stm32f4xx_hal_spi.o)
 .text.SPI_DMAEndTransmitReceive
                0x08066aba       0xe2 C:\PROGRA~2\VT3_8920\VT3\RESOUR~1\targets\CANVIEW4\lib\lld\libCANView4.a(stm32f4xx_hal_spi.o)
 .text.SPI_DMATransmitReceiveCplt
                0x08066b9c       0x50 C:\PROGRA~2\VT3_8920\VT3\RESOUR~1\targets\CANVIEW4\lib\lld\libCANView4.a(stm32f4xx_hal_spi.o)
 .text.SPI_DMAHalfTransmitCplt
                0x08066bec       0x1c C:\PROGRA~2\VT3_8920\VT3\RESOUR~1\targets\CANVIEW4\lib\lld\libCANView4.a(stm32f4xx_hal_spi.o)
 .text.SPI_DMAHalfReceiveCplt
                0x08066c08       0x1c C:\PROGRA~2\VT3_8920\VT3\RESOUR~1\targets\CANVIEW4\lib\lld\libCANView4.a(stm32f4xx_hal_spi.o)
 .text.SPI_DMAHalfTransmitReceiveCplt
                0x08066c24       0x1c C:\PROGRA~2\VT3_8920\VT3\RESOUR~1\targets\CANVIEW4\lib\lld\libCANView4.a(stm32f4xx_hal_spi.o)
 .text.SPI_DMAError
                0x08066c40       0x3c C:\PROGRA~2\VT3_8920\VT3\RESOUR~1\targets\CANVIEW4\lib\lld\libCANView4.a(stm32f4xx_hal_spi.o)
 .text.SPI_WaitOnFlagUntilTimeout
                0x08066c7c      0x148 C:\PROGRA~2\VT3_8920\VT3\RESOUR~1\targets\CANVIEW4\lib\lld\libCANView4.a(stm32f4xx_hal_spi.o)
 .text.FMC_NORSRAM_Init
                0x08066dc4       0xd0 C:\PROGRA~2\VT3_8920\VT3\RESOUR~1\targets\CANVIEW4\lib\lld\libCANView4.a(stm32f4xx_ll_fmc.o)
                0x08066dc4                FMC_NORSRAM_Init
 .text.FMC_NORSRAM_DeInit
                0x08066e94       0x68 C:\PROGRA~2\VT3_8920\VT3\RESOUR~1\targets\CANVIEW4\lib\lld\libCANView4.a(stm32f4xx_ll_fmc.o)
                0x08066e94                FMC_NORSRAM_DeInit
 .text.FMC_NORSRAM_Timing_Init
                0x08066efc       0xa4 C:\PROGRA~2\VT3_8920\VT3\RESOUR~1\targets\CANVIEW4\lib\lld\libCANView4.a(stm32f4xx_ll_fmc.o)
                0x08066efc                FMC_NORSRAM_Timing_Init
 .text.FMC_NORSRAM_Extended_Timing_Init
                0x08066fa0       0x8e C:\PROGRA~2\VT3_8920\VT3\RESOUR~1\targets\CANVIEW4\lib\lld\libCANView4.a(stm32f4xx_ll_fmc.o)
                0x08066fa0                FMC_NORSRAM_Extended_Timing_Init
 .text.FMC_NORSRAM_WriteOperation_Enable
                0x0806702e       0x2c C:\PROGRA~2\VT3_8920\VT3\RESOUR~1\targets\CANVIEW4\lib\lld\libCANView4.a(stm32f4xx_ll_fmc.o)
                0x0806702e                FMC_NORSRAM_WriteOperation_Enable
 .text.FMC_NORSRAM_WriteOperation_Disable
                0x0806705a       0x2c C:\PROGRA~2\VT3_8920\VT3\RESOUR~1\targets\CANVIEW4\lib\lld\libCANView4.a(stm32f4xx_ll_fmc.o)
                0x0806705a                FMC_NORSRAM_WriteOperation_Disable
 *fill*         0x08067086        0x2 
 .text.FMC_NAND_Init
                0x08067088       0x84 C:\PROGRA~2\VT3_8920\VT3\RESOUR~1\targets\CANVIEW4\lib\lld\libCANView4.a(stm32f4xx_ll_fmc.o)
                0x08067088                FMC_NAND_Init
 .text.FMC_NAND_CommonSpace_Timing_Init
                0x0806710c       0x6c C:\PROGRA~2\VT3_8920\VT3\RESOUR~1\targets\CANVIEW4\lib\lld\libCANView4.a(stm32f4xx_ll_fmc.o)
                0x0806710c                FMC_NAND_CommonSpace_Timing_Init
 .text.FMC_NAND_AttributeSpace_Timing_Init
                0x08067178       0x6c C:\PROGRA~2\VT3_8920\VT3\RESOUR~1\targets\CANVIEW4\lib\lld\libCANView4.a(stm32f4xx_ll_fmc.o)
                0x08067178                FMC_NAND_AttributeSpace_Timing_Init
 .text.FMC_NAND_DeInit
                0x080671e4       0x78 C:\PROGRA~2\VT3_8920\VT3\RESOUR~1\targets\CANVIEW4\lib\lld\libCANView4.a(stm32f4xx_ll_fmc.o)
                0x080671e4                FMC_NAND_DeInit
 .text.FMC_NAND_ECC_Enable
                0x0806725c       0x38 C:\PROGRA~2\VT3_8920\VT3\RESOUR~1\targets\CANVIEW4\lib\lld\libCANView4.a(stm32f4xx_ll_fmc.o)
                0x0806725c                FMC_NAND_ECC_Enable
 .text.FMC_NAND_ECC_Disable
                0x08067294       0x38 C:\PROGRA~2\VT3_8920\VT3\RESOUR~1\targets\CANVIEW4\lib\lld\libCANView4.a(stm32f4xx_ll_fmc.o)
                0x08067294                FMC_NAND_ECC_Disable
 .text.FMC_NAND_GetECC
                0x080672cc       0x8e C:\PROGRA~2\VT3_8920\VT3\RESOUR~1\targets\CANVIEW4\lib\lld\libCANView4.a(stm32f4xx_ll_fmc.o)
                0x080672cc                FMC_NAND_GetECC
 .text.FMC_PCCARD_Init
                0x0806735a       0x52 C:\PROGRA~2\VT3_8920\VT3\RESOUR~1\targets\CANVIEW4\lib\lld\libCANView4.a(stm32f4xx_ll_fmc.o)
                0x0806735a                FMC_PCCARD_Init
 .text.FMC_PCCARD_CommonSpace_Timing_Init
                0x080673ac       0x4e C:\PROGRA~2\VT3_8920\VT3\RESOUR~1\targets\CANVIEW4\lib\lld\libCANView4.a(stm32f4xx_ll_fmc.o)
                0x080673ac                FMC_PCCARD_CommonSpace_Timing_Init
 .text.FMC_PCCARD_AttributeSpace_Timing_Init
                0x080673fa       0x4e C:\PROGRA~2\VT3_8920\VT3\RESOUR~1\targets\CANVIEW4\lib\lld\libCANView4.a(stm32f4xx_ll_fmc.o)
                0x080673fa                FMC_PCCARD_AttributeSpace_Timing_Init
 .text.FMC_PCCARD_IOSpace_Timing_Init
                0x08067448       0x4e C:\PROGRA~2\VT3_8920\VT3\RESOUR~1\targets\CANVIEW4\lib\lld\libCANView4.a(stm32f4xx_ll_fmc.o)
                0x08067448                FMC_PCCARD_IOSpace_Timing_Init
 .text.FMC_PCCARD_DeInit
                0x08067496       0x46 C:\PROGRA~2\VT3_8920\VT3\RESOUR~1\targets\CANVIEW4\lib\lld\libCANView4.a(stm32f4xx_ll_fmc.o)
                0x08067496                FMC_PCCARD_DeInit
 .text.FMC_SDRAM_Init
                0x080674dc       0xea C:\PROGRA~2\VT3_8920\VT3\RESOUR~1\targets\CANVIEW4\lib\lld\libCANView4.a(stm32f4xx_ll_fmc.o)
                0x080674dc                FMC_SDRAM_Init
 .text.FMC_SDRAM_Timing_Init
                0x080675c6       0xfa C:\PROGRA~2\VT3_8920\VT3\RESOUR~1\targets\CANVIEW4\lib\lld\libCANView4.a(stm32f4xx_ll_fmc.o)
                0x080675c6                FMC_SDRAM_Timing_Init
 .text.FMC_SDRAM_DeInit
                0x080676c0       0x44 C:\PROGRA~2\VT3_8920\VT3\RESOUR~1\targets\CANVIEW4\lib\lld\libCANView4.a(stm32f4xx_ll_fmc.o)
                0x080676c0                FMC_SDRAM_DeInit
 .text.FMC_SDRAM_WriteProtection_Enable
                0x08067704       0x2c C:\PROGRA~2\VT3_8920\VT3\RESOUR~1\targets\CANVIEW4\lib\lld\libCANView4.a(stm32f4xx_ll_fmc.o)
                0x08067704                FMC_SDRAM_WriteProtection_Enable
 .text.FMC_SDRAM_WriteProtection_Disable
                0x08067730       0x2c C:\PROGRA~2\VT3_8920\VT3\RESOUR~1\targets\CANVIEW4\lib\lld\libCANView4.a(stm32f4xx_ll_fmc.o)
                0x08067730                FMC_SDRAM_WriteProtection_Disable
 .text.FMC_SDRAM_SendCommand
                0x0806775c       0x78 C:\PROGRA~2\VT3_8920\VT3\RESOUR~1\targets\CANVIEW4\lib\lld\libCANView4.a(stm32f4xx_ll_fmc.o)
                0x0806775c                FMC_SDRAM_SendCommand
 .text.FMC_SDRAM_ProgramRefreshRate
                0x080677d4       0x26 C:\PROGRA~2\VT3_8920\VT3\RESOUR~1\targets\CANVIEW4\lib\lld\libCANView4.a(stm32f4xx_ll_fmc.o)
                0x080677d4                FMC_SDRAM_ProgramRefreshRate
 .text.FMC_SDRAM_SetAutoRefreshNumber
                0x080677fa       0x26 C:\PROGRA~2\VT3_8920\VT3\RESOUR~1\targets\CANVIEW4\lib\lld\libCANView4.a(stm32f4xx_ll_fmc.o)
                0x080677fa                FMC_SDRAM_SetAutoRefreshNumber
 .text.FMC_SDRAM_GetModeStatus
                0x08067820       0x3a C:\PROGRA~2\VT3_8920\VT3\RESOUR~1\targets\CANVIEW4\lib\lld\libCANView4.a(stm32f4xx_ll_fmc.o)
                0x08067820                FMC_SDRAM_GetModeStatus
 .text.CRC32_EncodeBuffer
                0x0806785a       0x2a C:\PROGRA~2\VT3_8920\VT3\RESOUR~1\targets\CANVIEW4\lib\lld\libCANView4.a(CRC32.o)
                0x0806785a                CRC32_EncodeBuffer
 .text.CRC32_Update
                0x08067884       0x58 C:\PROGRA~2\VT3_8920\VT3\RESOUR~1\targets\CANVIEW4\lib\lld\libCANView4.a(CRC32.o)
                0x08067884                CRC32_Update
 .text.ff_convert
                0x080678dc       0x78 C:\PROGRA~2\VT3_8920\VT3\RESOUR~1\targets\CANVIEW4\lib\lld\libCANView4.a(ccsbcs.o)
                0x080678dc                ff_convert
 .text.ff_wtoupper
                0x08067954       0x5c C:\PROGRA~2\VT3_8920\VT3\RESOUR~1\targets\CANVIEW4\lib\lld\libCANView4.a(ccsbcs.o)
                0x08067954                ff_wtoupper
 .text.disk_status
                0x080679b0       0x34 C:\PROGRA~2\VT3_8920\VT3\RESOUR~1\targets\CANVIEW4\lib\lld\libCANView4.a(diskio.o)
                0x080679b0                disk_status
 .text.disk_initialize
                0x080679e4       0x4c C:\PROGRA~2\VT3_8920\VT3\RESOUR~1\targets\CANVIEW4\lib\lld\libCANView4.a(diskio.o)
                0x080679e4                disk_initialize
 .text.disk_read
                0x08067a30       0x40 C:\PROGRA~2\VT3_8920\VT3\RESOUR~1\targets\CANVIEW4\lib\lld\libCANView4.a(diskio.o)
                0x08067a30                disk_read
 .text.disk_write
                0x08067a70       0x40 C:\PROGRA~2\VT3_8920\VT3\RESOUR~1\targets\CANVIEW4\lib\lld\libCANView4.a(diskio.o)
                0x08067a70                disk_write
 .text.disk_ioctl
                0x08067ab0       0x3c C:\PROGRA~2\VT3_8920\VT3\RESOUR~1\targets\CANVIEW4\lib\lld\libCANView4.a(diskio.o)
                0x08067ab0                disk_ioctl
 .text.get_fattime
                0x08067aec       0x10 C:\PROGRA~2\VT3_8920\VT3\RESOUR~1\targets\CANVIEW4\lib\lld\libCANView4.a(diskio.o)
 .text.FATFS_LinkDriverEx
                0x08067afc       0x98 C:\PROGRA~2\VT3_8920\VT3\RESOUR~1\targets\CANVIEW4\lib\lld\libCANView4.a(ff_gen_drv.o)
                0x08067afc                FATFS_LinkDriverEx
 .text.FATFS_LinkDriver
                0x08067b94       0x1e C:\PROGRA~2\VT3_8920\VT3\RESOUR~1\targets\CANVIEW4\lib\lld\libCANView4.a(ff_gen_drv.o)
                0x08067b94                FATFS_LinkDriver
 *fill*         0x08067bb2        0x2 
 .text.FATFS_UnLinkDriverEx
                0x08067bb4       0x70 C:\PROGRA~2\VT3_8920\VT3\RESOUR~1\targets\CANVIEW4\lib\lld\libCANView4.a(ff_gen_drv.o)
                0x08067bb4                FATFS_UnLinkDriverEx
 .text.FATFS_UnLinkDriver
                0x08067c24       0x1a C:\PROGRA~2\VT3_8920\VT3\RESOUR~1\targets\CANVIEW4\lib\lld\libCANView4.a(ff_gen_drv.o)
                0x08067c24                FATFS_UnLinkDriver
 *fill*         0x08067c3e        0x2 
 .text.FATFS_GetAttachedDriversNbr
                0x08067c40       0x18 C:\PROGRA~2\VT3_8920\VT3\RESOUR~1\targets\CANVIEW4\lib\lld\libCANView4.a(ff_gen_drv.o)
                0x08067c40                FATFS_GetAttachedDriversNbr
 .text.USBH_initialize
                0x08067c58       0x18 C:\PROGRA~2\VT3_8920\VT3\RESOUR~1\targets\CANVIEW4\lib\lld\libCANView4.a(usbh_diskio.o)
                0x08067c58                USBH_initialize
 .text.USBH_status
                0x08067c70       0x38 C:\PROGRA~2\VT3_8920\VT3\RESOUR~1\targets\CANVIEW4\lib\lld\libCANView4.a(usbh_diskio.o)
                0x08067c70                USBH_status
 .text.USBH_read
                0x08067ca8       0x90 C:\PROGRA~2\VT3_8920\VT3\RESOUR~1\targets\CANVIEW4\lib\lld\libCANView4.a(usbh_diskio.o)
                0x08067ca8                USBH_read
 .text.USBH_write
                0x08067d38       0xa4 C:\PROGRA~2\VT3_8920\VT3\RESOUR~1\targets\CANVIEW4\lib\lld\libCANView4.a(usbh_diskio.o)
                0x08067d38                USBH_write
 .text.USBH_ioctl
                0x08067ddc       0xd4 C:\PROGRA~2\VT3_8920\VT3\RESOUR~1\targets\CANVIEW4\lib\lld\libCANView4.a(usbh_diskio.o)
                0x08067ddc                USBH_ioctl
 .text.vListInitialise
                0x08067eb0       0x40 C:\PROGRA~2\VT3_8920\VT3\RESOUR~1\targets\CANVIEW4\lib\lld\libCANView4.a(list.o)
                0x08067eb0                vListInitialise
 .text.vListInitialiseItem
                0x08067ef0       0x1a C:\PROGRA~2\VT3_8920\VT3\RESOUR~1\targets\CANVIEW4\lib\lld\libCANView4.a(list.o)
                0x08067ef0                vListInitialiseItem
 .text.vListInsertEnd
                0x08067f0a       0x48 C:\PROGRA~2\VT3_8920\VT3\RESOUR~1\targets\CANVIEW4\lib\lld\libCANView4.a(list.o)
                0x08067f0a                vListInsertEnd
 .text.vListInsert
                0x08067f52       0x72 C:\PROGRA~2\VT3_8920\VT3\RESOUR~1\targets\CANVIEW4\lib\lld\libCANView4.a(list.o)
                0x08067f52                vListInsert
 .text.uxListRemove
                0x08067fc4       0x54 C:\PROGRA~2\VT3_8920\VT3\RESOUR~1\targets\CANVIEW4\lib\lld\libCANView4.a(list.o)
                0x08067fc4                uxListRemove
 .text.USBH_MSC_InterfaceInit
                0x08068018      0x254 C:\PROGRA~2\VT3_8920\VT3\RESOUR~1\targets\CANVIEW4\lib\lld\libCANView4.a(usbh_msc.o)
 .text.USBH_MSC_InterfaceDeInit
                0x0806826c       0x8c C:\PROGRA~2\VT3_8920\VT3\RESOUR~1\targets\CANVIEW4\lib\lld\libCANView4.a(usbh_msc.o)
 .text.USBH_MSC_ClassRequest
                0x080682f8       0xbe C:\PROGRA~2\VT3_8920\VT3\RESOUR~1\targets\CANVIEW4\lib\lld\libCANView4.a(usbh_msc.o)
 *fill*         0x080683b6        0x2 
 .text.USBH_MSC_Process
                0x080683b8      0x53c C:\PROGRA~2\VT3_8920\VT3\RESOUR~1\targets\CANVIEW4\lib\lld\libCANView4.a(usbh_msc.o)
 .text.USBH_MSC_SOFProcess
                0x080688f4       0x16 C:\PROGRA~2\VT3_8920\VT3\RESOUR~1\targets\CANVIEW4\lib\lld\libCANView4.a(usbh_msc.o)
 .text.USBH_MSC_RdWrProcess
                0x0806890a      0x1ba C:\PROGRA~2\VT3_8920\VT3\RESOUR~1\targets\CANVIEW4\lib\lld\libCANView4.a(usbh_msc.o)
 .text.USBH_MSC_IsReady
                0x08068ac4       0x3a C:\PROGRA~2\VT3_8920\VT3\RESOUR~1\targets\CANVIEW4\lib\lld\libCANView4.a(usbh_msc.o)
                0x08068ac4                USBH_MSC_IsReady
 .text.USBH_MSC_GetMaxLUN
                0x08068afe       0x3c C:\PROGRA~2\VT3_8920\VT3\RESOUR~1\targets\CANVIEW4\lib\lld\libCANView4.a(usbh_msc.o)
                0x08068afe                USBH_MSC_GetMaxLUN
 .text.USBH_MSC_UnitIsReady
                0x08068b3a       0x4a C:\PROGRA~2\VT3_8920\VT3\RESOUR~1\targets\CANVIEW4\lib\lld\libCANView4.a(usbh_msc.o)
                0x08068b3a                USBH_MSC_UnitIsReady
 .text.USBH_MSC_GetLUNInfo
                0x08068b84       0x48 C:\PROGRA~2\VT3_8920\VT3\RESOUR~1\targets\CANVIEW4\lib\lld\libCANView4.a(usbh_msc.o)
                0x08068b84                USBH_MSC_GetLUNInfo
 .text.USBH_MSC_Read
                0x08068bcc       0xd2 C:\PROGRA~2\VT3_8920\VT3\RESOUR~1\targets\CANVIEW4\lib\lld\libCANView4.a(usbh_msc.o)
                0x08068bcc                USBH_MSC_Read
 .text.USBH_MSC_Write
                0x08068c9e       0xd2 C:\PROGRA~2\VT3_8920\VT3\RESOUR~1\targets\CANVIEW4\lib\lld\libCANView4.a(usbh_msc.o)
                0x08068c9e                USBH_MSC_Write
 .text.USBH_MSC_BOT_REQ_Reset
                0x08068d70       0x3a C:\PROGRA~2\VT3_8920\VT3\RESOUR~1\targets\CANVIEW4\lib\lld\libCANView4.a(usbh_msc_bot.o)
                0x08068d70                USBH_MSC_BOT_REQ_Reset
 .text.USBH_MSC_BOT_REQ_GetMaxLUN
                0x08068daa       0x3c C:\PROGRA~2\VT3_8920\VT3\RESOUR~1\targets\CANVIEW4\lib\lld\libCANView4.a(usbh_msc_bot.o)
                0x08068daa                USBH_MSC_BOT_REQ_GetMaxLUN
 *fill*         0x08068de6        0x2 
 .text.USBH_MSC_BOT_Init
                0x08068de8       0x44 C:\PROGRA~2\VT3_8920\VT3\RESOUR~1\targets\CANVIEW4\lib\lld\libCANView4.a(usbh_msc_bot.o)
                0x08068de8                USBH_MSC_BOT_Init
 .text.USBH_MSC_BOT_Process
                0x08068e2c      0x444 C:\PROGRA~2\VT3_8920\VT3\RESOUR~1\targets\CANVIEW4\lib\lld\libCANView4.a(usbh_msc_bot.o)
                0x08068e2c                USBH_MSC_BOT_Process
 .text.USBH_MSC_BOT_Abort
                0x08069270       0x58 C:\PROGRA~2\VT3_8920\VT3\RESOUR~1\targets\CANVIEW4\lib\lld\libCANView4.a(usbh_msc_bot.o)
 .text.USBH_MSC_DecodeCSW
                0x080692c8       0x88 C:\PROGRA~2\VT3_8920\VT3\RESOUR~1\targets\CANVIEW4\lib\lld\libCANView4.a(usbh_msc_bot.o)
 .text.USBH_MSC_SCSI_TestUnitReady
                0x08069350       0x86 C:\PROGRA~2\VT3_8920\VT3\RESOUR~1\targets\CANVIEW4\lib\lld\libCANView4.a(usbh_msc_scsi.o)
                0x08069350                USBH_MSC_SCSI_TestUnitReady
 .text.USBH_MSC_SCSI_ReadCapacity
                0x080693d6       0xf8 C:\PROGRA~2\VT3_8920\VT3\RESOUR~1\targets\CANVIEW4\lib\lld\libCANView4.a(usbh_msc_scsi.o)
                0x080693d6                USBH_MSC_SCSI_ReadCapacity
 .text.USBH_MSC_SCSI_Inquiry
                0x080694ce      0x144 C:\PROGRA~2\VT3_8920\VT3\RESOUR~1\targets\CANVIEW4\lib\lld\libCANView4.a(usbh_msc_scsi.o)
                0x080694ce                USBH_MSC_SCSI_Inquiry
 .text.USBH_MSC_SCSI_RequestSense
                0x08069612       0xf2 C:\PROGRA~2\VT3_8920\VT3\RESOUR~1\targets\CANVIEW4\lib\lld\libCANView4.a(usbh_msc_scsi.o)
                0x08069612                USBH_MSC_SCSI_RequestSense
 .text.USBH_MSC_SCSI_Write
                0x08069704       0xcc C:\PROGRA~2\VT3_8920\VT3\RESOUR~1\targets\CANVIEW4\lib\lld\libCANView4.a(usbh_msc_scsi.o)
                0x08069704                USBH_MSC_SCSI_Write
 .text.USBH_MSC_SCSI_Read
                0x080697d0       0xcc C:\PROGRA~2\VT3_8920\VT3\RESOUR~1\targets\CANVIEW4\lib\lld\libCANView4.a(usbh_msc_scsi.o)
                0x080697d0                USBH_MSC_SCSI_Read
 *fill*         0x0806989c        0x4 
 .text.cos      0x080698a0       0xc0 c:/program files (x86)/gnu tools arm embedded/5.2 2015q4/bin/../lib/gcc/arm-none-eabi/5.2.1/../../../../arm-none-eabi/lib/armv7e-m/fpu\libm.a(lib_a-s_cos.o)
                0x080698a0                cos
 .text.sin      0x08069960       0xc0 c:/program files (x86)/gnu tools arm embedded/5.2 2015q4/bin/../lib/gcc/arm-none-eabi/5.2.1/../../../../arm-none-eabi/lib/armv7e-m/fpu\libm.a(lib_a-s_sin.o)
                0x08069960                sin
 .text.tanf     0x08069a20       0x5c c:/program files (x86)/gnu tools arm embedded/5.2 2015q4/bin/../lib/gcc/arm-none-eabi/5.2.1/../../../../arm-none-eabi/lib/armv7e-m/fpu\libm.a(lib_a-sf_tan.o)
                0x08069a20                tanf
 .text.acos     0x08069a7c       0xc4 c:/program files (x86)/gnu tools arm embedded/5.2 2015q4/bin/../lib/gcc/arm-none-eabi/5.2.1/../../../../arm-none-eabi/lib/armv7e-m/fpu\libm.a(lib_a-w_acos.o)
                0x08069a7c                acos
 .text.asin     0x08069b40       0xc4 c:/program files (x86)/gnu tools arm embedded/5.2 2015q4/bin/../lib/gcc/arm-none-eabi/5.2.1/../../../../arm-none-eabi/lib/armv7e-m/fpu\libm.a(lib_a-w_asin.o)
                0x08069b40                asin
 *fill*         0x08069c04        0x4 
 .text.pow      0x08069c08      0x348 c:/program files (x86)/gnu tools arm embedded/5.2 2015q4/bin/../lib/gcc/arm-none-eabi/5.2.1/../../../../arm-none-eabi/lib/armv7e-m/fpu\libm.a(lib_a-w_pow.o)
                0x08069c08                pow
 .text.expf     0x08069f50      0x104 c:/program files (x86)/gnu tools arm embedded/5.2 2015q4/bin/../lib/gcc/arm-none-eabi/5.2.1/../../../../arm-none-eabi/lib/armv7e-m/fpu\libm.a(lib_a-wf_exp.o)
                0x08069f50                expf
 .text.logf     0x0806a054      0x100 c:/program files (x86)/gnu tools arm embedded/5.2 2015q4/bin/../lib/gcc/arm-none-eabi/5.2.1/../../../../arm-none-eabi/lib/armv7e-m/fpu\libm.a(lib_a-wf_log.o)
                0x0806a054                logf
 .text.log10f   0x0806a154      0x100 c:/program files (x86)/gnu tools arm embedded/5.2 2015q4/bin/../lib/gcc/arm-none-eabi/5.2.1/../../../../arm-none-eabi/lib/armv7e-m/fpu\libm.a(lib_a-wf_log10.o)
                0x0806a154                log10f
 .text.powf     0x0806a254      0x354 c:/program files (x86)/gnu tools arm embedded/5.2 2015q4/bin/../lib/gcc/arm-none-eabi/5.2.1/../../../../arm-none-eabi/lib/armv7e-m/fpu\libm.a(lib_a-wf_pow.o)
                0x0806a254                powf
 .text.sqrtf    0x0806a5a8       0xb4 c:/program files (x86)/gnu tools arm embedded/5.2 2015q4/bin/../lib/gcc/arm-none-eabi/5.2.1/../../../../arm-none-eabi/lib/armv7e-m/fpu\libm.a(lib_a-wf_sqrt.o)
                0x0806a5a8                sqrtf
 *fill*         0x0806a65c        0x4 
 .text.__ieee754_acos
                0x0806a660      0x4e0 c:/program files (x86)/gnu tools arm embedded/5.2 2015q4/bin/../lib/gcc/arm-none-eabi/5.2.1/../../../../arm-none-eabi/lib/armv7e-m/fpu\libm.a(lib_a-e_acos.o)
                0x0806a660                __ieee754_acos
 .text.__ieee754_asin
                0x0806ab40      0x49c c:/program files (x86)/gnu tools arm embedded/5.2 2015q4/bin/../lib/gcc/arm-none-eabi/5.2.1/../../../../arm-none-eabi/lib/armv7e-m/fpu\libm.a(lib_a-e_asin.o)
                0x0806ab40                __ieee754_asin
 *fill*         0x0806afdc        0x4 
 .text.__ieee754_pow
                0x0806afe0      0xb10 c:/program files (x86)/gnu tools arm embedded/5.2 2015q4/bin/../lib/gcc/arm-none-eabi/5.2.1/../../../../arm-none-eabi/lib/armv7e-m/fpu\libm.a(lib_a-e_pow.o)
                0x0806afe0                __ieee754_pow
 .text.__ieee754_rem_pio2
                0x0806baf0      0x44c c:/program files (x86)/gnu tools arm embedded/5.2 2015q4/bin/../lib/gcc/arm-none-eabi/5.2.1/../../../../arm-none-eabi/lib/armv7e-m/fpu\libm.a(lib_a-e_rem_pio2.o)
                0x0806baf0                __ieee754_rem_pio2
 .text.__ieee754_sqrt
                0x0806bf3c      0x1a0 c:/program files (x86)/gnu tools arm embedded/5.2 2015q4/bin/../lib/gcc/arm-none-eabi/5.2.1/../../../../arm-none-eabi/lib/armv7e-m/fpu\libm.a(lib_a-e_sqrt.o)
                0x0806bf3c                __ieee754_sqrt
 .text.__ieee754_expf
                0x0806c0dc      0x1b0 c:/program files (x86)/gnu tools arm embedded/5.2 2015q4/bin/../lib/gcc/arm-none-eabi/5.2.1/../../../../arm-none-eabi/lib/armv7e-m/fpu\libm.a(lib_a-ef_exp.o)
                0x0806c0dc                __ieee754_expf
 .text.__ieee754_logf
                0x0806c28c      0x218 c:/program files (x86)/gnu tools arm embedded/5.2 2015q4/bin/../lib/gcc/arm-none-eabi/5.2.1/../../../../arm-none-eabi/lib/armv7e-m/fpu\libm.a(lib_a-ef_log.o)
                0x0806c28c                __ieee754_logf
 .text.__ieee754_log10f
                0x0806c4a4       0xe0 c:/program files (x86)/gnu tools arm embedded/5.2 2015q4/bin/../lib/gcc/arm-none-eabi/5.2.1/../../../../arm-none-eabi/lib/armv7e-m/fpu\libm.a(lib_a-ef_log10.o)
                0x0806c4a4                __ieee754_log10f
 .text.__ieee754_powf
                0x0806c584      0x5fc c:/program files (x86)/gnu tools arm embedded/5.2 2015q4/bin/../lib/gcc/arm-none-eabi/5.2.1/../../../../arm-none-eabi/lib/armv7e-m/fpu\libm.a(lib_a-ef_pow.o)
                0x0806c584                __ieee754_powf
 .text.__ieee754_rem_pio2f
                0x0806cb80      0x298 c:/program files (x86)/gnu tools arm embedded/5.2 2015q4/bin/../lib/gcc/arm-none-eabi/5.2.1/../../../../arm-none-eabi/lib/armv7e-m/fpu\libm.a(lib_a-ef_rem_pio2.o)
                0x0806cb80                __ieee754_rem_pio2f
 .text.__ieee754_sqrtf
                0x0806ce18       0xa4 c:/program files (x86)/gnu tools arm embedded/5.2 2015q4/bin/../lib/gcc/arm-none-eabi/5.2.1/../../../../arm-none-eabi/lib/armv7e-m/fpu\libm.a(lib_a-ef_sqrt.o)
                0x0806ce18                __ieee754_sqrtf
 *fill*         0x0806cebc        0x4 
 .text.__kernel_cos
                0x0806cec0      0x284 c:/program files (x86)/gnu tools arm embedded/5.2 2015q4/bin/../lib/gcc/arm-none-eabi/5.2.1/../../../../arm-none-eabi/lib/armv7e-m/fpu\libm.a(lib_a-k_cos.o)
                0x0806cec0                __kernel_cos
 *fill*         0x0806d144        0x4 
 .text.__kernel_rem_pio2
                0x0806d148      0x820 c:/program files (x86)/gnu tools arm embedded/5.2 2015q4/bin/../lib/gcc/arm-none-eabi/5.2.1/../../../../arm-none-eabi/lib/armv7e-m/fpu\libm.a(lib_a-k_rem_pio2.o)
                0x0806d148                __kernel_rem_pio2
 .text.__kernel_sin
                0x0806d968      0x194 c:/program files (x86)/gnu tools arm embedded/5.2 2015q4/bin/../lib/gcc/arm-none-eabi/5.2.1/../../../../arm-none-eabi/lib/armv7e-m/fpu\libm.a(lib_a-k_sin.o)
                0x0806d968                __kernel_sin
 .text.__kernel_rem_pio2f
                0x0806dafc      0x628 c:/program files (x86)/gnu tools arm embedded/5.2 2015q4/bin/../lib/gcc/arm-none-eabi/5.2.1/../../../../arm-none-eabi/lib/armv7e-m/fpu\libm.a(lib_a-kf_rem_pio2.o)
                0x0806dafc                __kernel_rem_pio2f
 .text.__kernel_tanf
                0x0806e124      0x1d4 c:/program files (x86)/gnu tools arm embedded/5.2 2015q4/bin/../lib/gcc/arm-none-eabi/5.2.1/../../../../arm-none-eabi/lib/armv7e-m/fpu\libm.a(lib_a-kf_tan.o)
                0x0806e124                __kernel_tanf
 .text.fabs     0x0806e2f8       0x10 c:/program files (x86)/gnu tools arm embedded/5.2 2015q4/bin/../lib/gcc/arm-none-eabi/5.2.1/../../../../arm-none-eabi/lib/armv7e-m/fpu\libm.a(lib_a-s_fabs.o)
                0x0806e2f8                fabs
 .text.finite   0x0806e308       0x10 c:/program files (x86)/gnu tools arm embedded/5.2 2015q4/bin/../lib/gcc/arm-none-eabi/5.2.1/../../../../arm-none-eabi/lib/armv7e-m/fpu\libm.a(lib_a-s_finite.o)
                0x0806e308                finite
 .text.floor    0x0806e318      0x120 c:/program files (x86)/gnu tools arm embedded/5.2 2015q4/bin/../lib/gcc/arm-none-eabi/5.2.1/../../../../arm-none-eabi/lib/armv7e-m/fpu\libm.a(lib_a-s_floor.o)
                0x0806e318                floor
 .text.__fpclassifyd
                0x0806e438       0x5c c:/program files (x86)/gnu tools arm embedded/5.2 2015q4/bin/../lib/gcc/arm-none-eabi/5.2.1/../../../../arm-none-eabi/lib/armv7e-m/fpu\libm.a(lib_a-s_fpclassify.o)
                0x0806e438                __fpclassifyd
 .text.matherr  0x0806e494        0x4 c:/program files (x86)/gnu tools arm embedded/5.2 2015q4/bin/../lib/gcc/arm-none-eabi/5.2.1/../../../../arm-none-eabi/lib/armv7e-m/fpu\libm.a(lib_a-s_matherr.o)
                0x0806e494                matherr
 .text.nan      0x0806e498       0x10 c:/program files (x86)/gnu tools arm embedded/5.2 2015q4/bin/../lib/gcc/arm-none-eabi/5.2.1/../../../../arm-none-eabi/lib/armv7e-m/fpu\libm.a(lib_a-s_nan.o)
                0x0806e498                nan
 .text.rint     0x0806e4a8      0x128 c:/program files (x86)/gnu tools arm embedded/5.2 2015q4/bin/../lib/gcc/arm-none-eabi/5.2.1/../../../../arm-none-eabi/lib/armv7e-m/fpu\libm.a(lib_a-s_rint.o)
                0x0806e4a8                rint
 .text.scalbn   0x0806e5d0      0x10c c:/program files (x86)/gnu tools arm embedded/5.2 2015q4/bin/../lib/gcc/arm-none-eabi/5.2.1/../../../../arm-none-eabi/lib/armv7e-m/fpu\libm.a(lib_a-s_scalbn.o)
                0x0806e5d0                scalbn
 .text.fabsf    0x0806e6dc       0x10 c:/program files (x86)/gnu tools arm embedded/5.2 2015q4/bin/../lib/gcc/arm-none-eabi/5.2.1/../../../../arm-none-eabi/lib/armv7e-m/fpu\libm.a(lib_a-sf_fabs.o)
                0x0806e6dc                fabsf
 .text.finitef  0x0806e6ec       0x14 c:/program files (x86)/gnu tools arm embedded/5.2 2015q4/bin/../lib/gcc/arm-none-eabi/5.2.1/../../../../arm-none-eabi/lib/armv7e-m/fpu\libm.a(lib_a-sf_finite.o)
                0x0806e6ec                finitef
 .text.floorf   0x0806e700       0x90 c:/program files (x86)/gnu tools arm embedded/5.2 2015q4/bin/../lib/gcc/arm-none-eabi/5.2.1/../../../../arm-none-eabi/lib/armv7e-m/fpu\libm.a(lib_a-sf_floor.o)
                0x0806e700                floorf
 .text.__fpclassifyf
                0x0806e790       0x38 c:/program files (x86)/gnu tools arm embedded/5.2 2015q4/bin/../lib/gcc/arm-none-eabi/5.2.1/../../../../arm-none-eabi/lib/armv7e-m/fpu\libm.a(lib_a-sf_fpclassify.o)
                0x0806e790                __fpclassifyf
 .text.nanf     0x0806e7c8        0xc c:/program files (x86)/gnu tools arm embedded/5.2 2015q4/bin/../lib/gcc/arm-none-eabi/5.2.1/../../../../arm-none-eabi/lib/armv7e-m/fpu\libm.a(lib_a-sf_nan.o)
                0x0806e7c8                nanf
 .text.scalbnf  0x0806e7d4       0xd0 c:/program files (x86)/gnu tools arm embedded/5.2 2015q4/bin/../lib/gcc/arm-none-eabi/5.2.1/../../../../arm-none-eabi/lib/armv7e-m/fpu\libm.a(lib_a-sf_scalbn.o)
                0x0806e7d4                scalbnf
 .text.copysign
                0x0806e8a4       0x1c c:/program files (x86)/gnu tools arm embedded/5.2 2015q4/bin/../lib/gcc/arm-none-eabi/5.2.1/../../../../arm-none-eabi/lib/armv7e-m/fpu\libm.a(lib_a-s_copysign.o)
                0x0806e8a4                copysign
 .text.copysignf
                0x0806e8c0       0x18 c:/program files (x86)/gnu tools arm embedded/5.2 2015q4/bin/../lib/gcc/arm-none-eabi/5.2.1/../../../../arm-none-eabi/lib/armv7e-m/fpu\libm.a(lib_a-sf_copysign.o)
                0x0806e8c0                copysignf
 .text.atof     0x0806e8d8        0x8 c:/program files (x86)/gnu tools arm embedded/5.2 2015q4/bin/../lib/gcc/arm-none-eabi/5.2.1/../../../../arm-none-eabi/lib/armv7e-m/fpu\libc.a(lib_a-atof.o)
                0x0806e8d8                atof
 .text.atoi     0x0806e8e0        0x8 c:/program files (x86)/gnu tools arm embedded/5.2 2015q4/bin/../lib/gcc/arm-none-eabi/5.2.1/../../../../arm-none-eabi/lib/armv7e-m/fpu\libc.a(lib_a-atoi.o)
                0x0806e8e0                atoi
 .text._atoi_r  0x0806e8e8        0x8 c:/program files (x86)/gnu tools arm embedded/5.2 2015q4/bin/../lib/gcc/arm-none-eabi/5.2.1/../../../../arm-none-eabi/lib/armv7e-m/fpu\libc.a(lib_a-atoi.o)
                0x0806e8e8                _atoi_r
 .text.atol     0x0806e8f0        0x8 c:/program files (x86)/gnu tools arm embedded/5.2 2015q4/bin/../lib/gcc/arm-none-eabi/5.2.1/../../../../arm-none-eabi/lib/armv7e-m/fpu\libc.a(lib_a-atol.o)
                0x0806e8f0                atol
 .text._atol_r  0x0806e8f8        0x8 c:/program files (x86)/gnu tools arm embedded/5.2 2015q4/bin/../lib/gcc/arm-none-eabi/5.2.1/../../../../arm-none-eabi/lib/armv7e-m/fpu\libc.a(lib_a-atol.o)
                0x0806e8f8                _atol_r
 .text.bsearch  0x0806e900       0x44 c:/program files (x86)/gnu tools arm embedded/5.2 2015q4/bin/../lib/gcc/arm-none-eabi/5.2.1/../../../../arm-none-eabi/lib/armv7e-m/fpu\libc.a(lib_a-bsearch.o)
                0x0806e900                bsearch
 .text.__errno  0x0806e944        0xc c:/program files (x86)/gnu tools arm embedded/5.2 2015q4/bin/../lib/gcc/arm-none-eabi/5.2.1/../../../../arm-none-eabi/lib/armv7e-m/fpu\libc.a(lib_a-errno.o)
                0x0806e944                __errno
 .text.exit     0x0806e950       0x20 c:/program files (x86)/gnu tools arm embedded/5.2 2015q4/bin/../lib/gcc/arm-none-eabi/5.2.1/../../../../arm-none-eabi/lib/armv7e-m/fpu\libc.a(lib_a-exit.o)
                0x0806e950                exit
 .text._fclose_r
                0x0806e970       0x84 c:/program files (x86)/gnu tools arm embedded/5.2 2015q4/bin/../lib/gcc/arm-none-eabi/5.2.1/../../../../arm-none-eabi/lib/armv7e-m/fpu\libc.a(lib_a-fclose.o)
                0x0806e970                _fclose_r
 .text.fclose   0x0806e9f4       0x10 c:/program files (x86)/gnu tools arm embedded/5.2 2015q4/bin/../lib/gcc/arm-none-eabi/5.2.1/../../../../arm-none-eabi/lib/armv7e-m/fpu\libc.a(lib_a-fclose.o)
                0x0806e9f4                fclose
 .text.__sflush_r
                0x0806ea04      0x148 c:/program files (x86)/gnu tools arm embedded/5.2 2015q4/bin/../lib/gcc/arm-none-eabi/5.2.1/../../../../arm-none-eabi/lib/armv7e-m/fpu\libc.a(lib_a-fflush.o)
                0x0806ea04                __sflush_r
 .text._fflush_r
                0x0806eb4c       0x2c c:/program files (x86)/gnu tools arm embedded/5.2 2015q4/bin/../lib/gcc/arm-none-eabi/5.2.1/../../../../arm-none-eabi/lib/armv7e-m/fpu\libc.a(lib_a-fflush.o)
                0x0806eb4c                _fflush_r
 .text.fflush   0x0806eb78       0x24 c:/program files (x86)/gnu tools arm embedded/5.2 2015q4/bin/../lib/gcc/arm-none-eabi/5.2.1/../../../../arm-none-eabi/lib/armv7e-m/fpu\libc.a(lib_a-fflush.o)
                0x0806eb78                fflush
 .text.__fp_unlock
                0x0806eb9c        0x4 c:/program files (x86)/gnu tools arm embedded/5.2 2015q4/bin/../lib/gcc/arm-none-eabi/5.2.1/../../../../arm-none-eabi/lib/armv7e-m/fpu\libc.a(lib_a-findfp.o)
 .text._cleanup_r
                0x0806eba0        0xc c:/program files (x86)/gnu tools arm embedded/5.2 2015q4/bin/../lib/gcc/arm-none-eabi/5.2.1/../../../../arm-none-eabi/lib/armv7e-m/fpu\libc.a(lib_a-findfp.o)
                0x0806eba0                _cleanup_r
 .text.__sinit.part.1
                0x0806ebac       0xf0 c:/program files (x86)/gnu tools arm embedded/5.2 2015q4/bin/../lib/gcc/arm-none-eabi/5.2.1/../../../../arm-none-eabi/lib/armv7e-m/fpu\libc.a(lib_a-findfp.o)
 .text.__fp_lock
                0x0806ec9c        0x4 c:/program files (x86)/gnu tools arm embedded/5.2 2015q4/bin/../lib/gcc/arm-none-eabi/5.2.1/../../../../arm-none-eabi/lib/armv7e-m/fpu\libc.a(lib_a-findfp.o)
 .text.__sfmoreglue
                0x0806eca0       0x30 c:/program files (x86)/gnu tools arm embedded/5.2 2015q4/bin/../lib/gcc/arm-none-eabi/5.2.1/../../../../arm-none-eabi/lib/armv7e-m/fpu\libc.a(lib_a-findfp.o)
                0x0806eca0                __sfmoreglue
 .text.__sfp    0x0806ecd0       0x88 c:/program files (x86)/gnu tools arm embedded/5.2 2015q4/bin/../lib/gcc/arm-none-eabi/5.2.1/../../../../arm-none-eabi/lib/armv7e-m/fpu\libc.a(lib_a-findfp.o)
                0x0806ecd0                __sfp
 .text._cleanup
                0x0806ed58       0x14 c:/program files (x86)/gnu tools arm embedded/5.2 2015q4/bin/../lib/gcc/arm-none-eabi/5.2.1/../../../../arm-none-eabi/lib/armv7e-m/fpu\libc.a(lib_a-findfp.o)
                0x0806ed58                _cleanup
 .text.__sinit  0x0806ed6c        0xc c:/program files (x86)/gnu tools arm embedded/5.2 2015q4/bin/../lib/gcc/arm-none-eabi/5.2.1/../../../../arm-none-eabi/lib/armv7e-m/fpu\libc.a(lib_a-findfp.o)
                0x0806ed6c                __sinit
 .text.__sfp_lock_acquire
                0x0806ed78        0x4 c:/program files (x86)/gnu tools arm embedded/5.2 2015q4/bin/../lib/gcc/arm-none-eabi/5.2.1/../../../../arm-none-eabi/lib/armv7e-m/fpu\libc.a(lib_a-findfp.o)
                0x0806ed78                __sfp_lock_acquire
 .text.__sfp_lock_release
                0x0806ed7c        0x4 c:/program files (x86)/gnu tools arm embedded/5.2 2015q4/bin/../lib/gcc/arm-none-eabi/5.2.1/../../../../arm-none-eabi/lib/armv7e-m/fpu\libc.a(lib_a-findfp.o)
                0x0806ed7c                __sfp_lock_release
 .text.__sinit_lock_acquire
                0x0806ed80        0x4 c:/program files (x86)/gnu tools arm embedded/5.2 2015q4/bin/../lib/gcc/arm-none-eabi/5.2.1/../../../../arm-none-eabi/lib/armv7e-m/fpu\libc.a(lib_a-findfp.o)
                0x0806ed80                __sinit_lock_acquire
 .text.__sinit_lock_release
                0x0806ed84        0x4 c:/program files (x86)/gnu tools arm embedded/5.2 2015q4/bin/../lib/gcc/arm-none-eabi/5.2.1/../../../../arm-none-eabi/lib/armv7e-m/fpu\libc.a(lib_a-findfp.o)
                0x0806ed84                __sinit_lock_release
 .text.__fp_lock_all
                0x0806ed88       0x14 c:/program files (x86)/gnu tools arm embedded/5.2 2015q4/bin/../lib/gcc/arm-none-eabi/5.2.1/../../../../arm-none-eabi/lib/armv7e-m/fpu\libc.a(lib_a-findfp.o)
                0x0806ed88                __fp_lock_all
 .text.__fp_unlock_all
                0x0806ed9c       0x14 c:/program files (x86)/gnu tools arm embedded/5.2 2015q4/bin/../lib/gcc/arm-none-eabi/5.2.1/../../../../arm-none-eabi/lib/armv7e-m/fpu\libc.a(lib_a-findfp.o)
                0x0806ed9c                __fp_unlock_all
 .text._fopen_r
                0x0806edb0       0x8c c:/program files (x86)/gnu tools arm embedded/5.2 2015q4/bin/../lib/gcc/arm-none-eabi/5.2.1/../../../../arm-none-eabi/lib/armv7e-m/fpu\libc.a(lib_a-fopen.o)
                0x0806edb0                _fopen_r
 .text.fopen    0x0806ee3c       0x10 c:/program files (x86)/gnu tools arm embedded/5.2 2015q4/bin/../lib/gcc/arm-none-eabi/5.2.1/../../../../arm-none-eabi/lib/armv7e-m/fpu\libc.a(lib_a-fopen.o)
                0x0806ee3c                fopen
 .text._fread_r
                0x0806ee4c      0x19c c:/program files (x86)/gnu tools arm embedded/5.2 2015q4/bin/../lib/gcc/arm-none-eabi/5.2.1/../../../../arm-none-eabi/lib/armv7e-m/fpu\libc.a(lib_a-fread.o)
                0x0806ee4c                _fread_r
 .text.fread    0x0806efe8       0x20 c:/program files (x86)/gnu tools arm embedded/5.2 2015q4/bin/../lib/gcc/arm-none-eabi/5.2.1/../../../../arm-none-eabi/lib/armv7e-m/fpu\libc.a(lib_a-fread.o)
                0x0806efe8                fread
 .text._malloc_trim_r
                0x0806f008       0x9c c:/program files (x86)/gnu tools arm embedded/5.2 2015q4/bin/../lib/gcc/arm-none-eabi/5.2.1/../../../../arm-none-eabi/lib/armv7e-m/fpu\libc.a(lib_a-freer.o)
                0x0806f008                _malloc_trim_r
 .text._free_r  0x0806f0a4      0x1d0 c:/program files (x86)/gnu tools arm embedded/5.2 2015q4/bin/../lib/gcc/arm-none-eabi/5.2.1/../../../../arm-none-eabi/lib/armv7e-m/fpu\libc.a(lib_a-freer.o)
                0x0806f0a4                _free_r
 .text._fseek_r
                0x0806f274        0x4 c:/program files (x86)/gnu tools arm embedded/5.2 2015q4/bin/../lib/gcc/arm-none-eabi/5.2.1/../../../../arm-none-eabi/lib/armv7e-m/fpu\libc.a(lib_a-fseek.o)
                0x0806f274                _fseek_r
 .text.fseek    0x0806f278       0x18 c:/program files (x86)/gnu tools arm embedded/5.2 2015q4/bin/../lib/gcc/arm-none-eabi/5.2.1/../../../../arm-none-eabi/lib/armv7e-m/fpu\libc.a(lib_a-fseek.o)
                0x0806f278                fseek
 .text._fseeko_r
                0x0806f290      0x2bc c:/program files (x86)/gnu tools arm embedded/5.2 2015q4/bin/../lib/gcc/arm-none-eabi/5.2.1/../../../../arm-none-eabi/lib/armv7e-m/fpu\libc.a(lib_a-fseeko.o)
                0x0806f290                _fseeko_r
 .text.fseeko   0x0806f54c       0x18 c:/program files (x86)/gnu tools arm embedded/5.2 2015q4/bin/../lib/gcc/arm-none-eabi/5.2.1/../../../../arm-none-eabi/lib/armv7e-m/fpu\libc.a(lib_a-fseeko.o)
                0x0806f54c                fseeko
 .text._fstat_r
                0x0806f564       0x28 c:/program files (x86)/gnu tools arm embedded/5.2 2015q4/bin/../lib/gcc/arm-none-eabi/5.2.1/../../../../arm-none-eabi/lib/armv7e-m/fpu\libc.a(lib_a-fstatr.o)
                0x0806f564                _fstat_r
 .text._fwalk   0x0806f58c       0x4c c:/program files (x86)/gnu tools arm embedded/5.2 2015q4/bin/../lib/gcc/arm-none-eabi/5.2.1/../../../../arm-none-eabi/lib/armv7e-m/fpu\libc.a(lib_a-fwalk.o)
                0x0806f58c                _fwalk
 .text._fwalk_reent
                0x0806f5d8       0x54 c:/program files (x86)/gnu tools arm embedded/5.2 2015q4/bin/../lib/gcc/arm-none-eabi/5.2.1/../../../../arm-none-eabi/lib/armv7e-m/fpu\libc.a(lib_a-fwalk.o)
                0x0806f5d8                _fwalk_reent
 .text.__libc_init_array
                0x0806f62c       0x50 c:/program files (x86)/gnu tools arm embedded/5.2 2015q4/bin/../lib/gcc/arm-none-eabi/5.2.1/../../../../arm-none-eabi/lib/armv7e-m/fpu\libc.a(lib_a-init.o)
                0x0806f62c                __libc_init_array
 .text.isalnum  0x0806f67c       0x14 c:/program files (x86)/gnu tools arm embedded/5.2 2015q4/bin/../lib/gcc/arm-none-eabi/5.2.1/../../../../arm-none-eabi/lib/armv7e-m/fpu\libc.a(lib_a-isalnum.o)
                0x0806f67c                isalnum
 .text.isalpha  0x0806f690       0x14 c:/program files (x86)/gnu tools arm embedded/5.2 2015q4/bin/../lib/gcc/arm-none-eabi/5.2.1/../../../../arm-none-eabi/lib/armv7e-m/fpu\libc.a(lib_a-isalpha.o)
                0x0806f690                isalpha
 .text.islower  0x0806f6a4       0x1c c:/program files (x86)/gnu tools arm embedded/5.2 2015q4/bin/../lib/gcc/arm-none-eabi/5.2.1/../../../../arm-none-eabi/lib/armv7e-m/fpu\libc.a(lib_a-islower.o)
                0x0806f6a4                islower
 .text.isspace  0x0806f6c0       0x14 c:/program files (x86)/gnu tools arm embedded/5.2 2015q4/bin/../lib/gcc/arm-none-eabi/5.2.1/../../../../arm-none-eabi/lib/armv7e-m/fpu\libc.a(lib_a-isspace.o)
                0x0806f6c0                isspace
 .text.isupper  0x0806f6d4       0x1c c:/program files (x86)/gnu tools arm embedded/5.2 2015q4/bin/../lib/gcc/arm-none-eabi/5.2.1/../../../../arm-none-eabi/lib/armv7e-m/fpu\libc.a(lib_a-isupper.o)
                0x0806f6d4                isupper
 .text.isxdigit
                0x0806f6f0       0x14 c:/program files (x86)/gnu tools arm embedded/5.2 2015q4/bin/../lib/gcc/arm-none-eabi/5.2.1/../../../../arm-none-eabi/lib/armv7e-m/fpu\libc.a(lib_a-isxdigit.o)
                0x0806f6f0                isxdigit
 .text.__smakebuf_r
                0x0806f704       0xe0 c:/program files (x86)/gnu tools arm embedded/5.2 2015q4/bin/../lib/gcc/arm-none-eabi/5.2.1/../../../../arm-none-eabi/lib/armv7e-m/fpu\libc.a(lib_a-makebuf.o)
                0x0806f704                __smakebuf_r
 .text.malloc   0x0806f7e4       0x10 c:/program files (x86)/gnu tools arm embedded/5.2 2015q4/bin/../lib/gcc/arm-none-eabi/5.2.1/../../../../arm-none-eabi/lib/armv7e-m/fpu\libc.a(lib_a-malloc.o)
                0x0806f7e4                malloc
 .text.free     0x0806f7f4       0x10 c:/program files (x86)/gnu tools arm embedded/5.2 2015q4/bin/../lib/gcc/arm-none-eabi/5.2.1/../../../../arm-none-eabi/lib/armv7e-m/fpu\libc.a(lib_a-malloc.o)
                0x0806f7f4                free
 .text._malloc_r
                0x0806f804      0x570 c:/program files (x86)/gnu tools arm embedded/5.2 2015q4/bin/../lib/gcc/arm-none-eabi/5.2.1/../../../../arm-none-eabi/lib/armv7e-m/fpu\libc.a(lib_a-mallocr.o)
                0x0806f804                _malloc_r
 .text.memcmp   0x0806fd74       0x64 c:/program files (x86)/gnu tools arm embedded/5.2 2015q4/bin/../lib/gcc/arm-none-eabi/5.2.1/../../../../arm-none-eabi/lib/armv7e-m/fpu\libc.a(lib_a-memcmp.o)
                0x0806fd74                memcmp
 .text.memset   0x0806fdd8       0x9c c:/program files (x86)/gnu tools arm embedded/5.2 2015q4/bin/../lib/gcc/arm-none-eabi/5.2.1/../../../../arm-none-eabi/lib/armv7e-m/fpu\libc.a(lib_a-memset.o)
                0x0806fdd8                memset
 .text.__malloc_lock
                0x0806fe74        0x4 c:/program files (x86)/gnu tools arm embedded/5.2 2015q4/bin/../lib/gcc/arm-none-eabi/5.2.1/../../../../arm-none-eabi/lib/armv7e-m/fpu\libc.a(lib_a-mlock.o)
                0x0806fe74                __malloc_lock
 .text.__malloc_unlock
                0x0806fe78        0x4 c:/program files (x86)/gnu tools arm embedded/5.2 2015q4/bin/../lib/gcc/arm-none-eabi/5.2.1/../../../../arm-none-eabi/lib/armv7e-m/fpu\libc.a(lib_a-mlock.o)
                0x0806fe78                __malloc_unlock
 .text._open_r  0x0806fe7c       0x2c c:/program files (x86)/gnu tools arm embedded/5.2 2015q4/bin/../lib/gcc/arm-none-eabi/5.2.1/../../../../arm-none-eabi/lib/armv7e-m/fpu\libc.a(lib_a-openr.o)
                0x0806fe7c                _open_r
 .text._printf_r
                0x0806fea8       0x20 c:/program files (x86)/gnu tools arm embedded/5.2 2015q4/bin/../lib/gcc/arm-none-eabi/5.2.1/../../../../arm-none-eabi/lib/armv7e-m/fpu\libc.a(lib_a-printf.o)
                0x0806fea8                _printf_r
 .text.printf   0x0806fec8       0x28 c:/program files (x86)/gnu tools arm embedded/5.2 2015q4/bin/../lib/gcc/arm-none-eabi/5.2.1/../../../../arm-none-eabi/lib/armv7e-m/fpu\libc.a(lib_a-printf.o)
                0x0806fec8                printf
 .text.srand    0x0806fef0       0x14 c:/program files (x86)/gnu tools arm embedded/5.2 2015q4/bin/../lib/gcc/arm-none-eabi/5.2.1/../../../../arm-none-eabi/lib/armv7e-m/fpu\libc.a(lib_a-rand.o)
                0x0806fef0                srand
 .text.rand     0x0806ff04       0x40 c:/program files (x86)/gnu tools arm embedded/5.2 2015q4/bin/../lib/gcc/arm-none-eabi/5.2.1/../../../../arm-none-eabi/lib/armv7e-m/fpu\libc.a(lib_a-rand.o)
                0x0806ff04                rand
 .text.cleanup_glue
                0x0806ff44       0x1c c:/program files (x86)/gnu tools arm embedded/5.2 2015q4/bin/../lib/gcc/arm-none-eabi/5.2.1/../../../../arm-none-eabi/lib/armv7e-m/fpu\libc.a(lib_a-reent.o)
                0x0806ff44                cleanup_glue
 .text._reclaim_reent
                0x0806ff60       0x88 c:/program files (x86)/gnu tools arm embedded/5.2 2015q4/bin/../lib/gcc/arm-none-eabi/5.2.1/../../../../arm-none-eabi/lib/armv7e-m/fpu\libc.a(lib_a-reent.o)
                0x0806ff60                _reclaim_reent
 .text.lflush   0x0806ffe8       0x14 c:/program files (x86)/gnu tools arm embedded/5.2 2015q4/bin/../lib/gcc/arm-none-eabi/5.2.1/../../../../arm-none-eabi/lib/armv7e-m/fpu\libc.a(lib_a-refill.o)
 .text.__srefill_r
                0x0806fffc      0x110 c:/program files (x86)/gnu tools arm embedded/5.2 2015q4/bin/../lib/gcc/arm-none-eabi/5.2.1/../../../../arm-none-eabi/lib/armv7e-m/fpu\libc.a(lib_a-refill.o)
                0x0806fffc                __srefill_r
 .text._sbrk_r  0x0807010c       0x24 c:/program files (x86)/gnu tools arm embedded/5.2 2015q4/bin/../lib/gcc/arm-none-eabi/5.2.1/../../../../arm-none-eabi/lib/armv7e-m/fpu\libc.a(lib_a-sbrkr.o)
                0x0807010c                _sbrk_r
 .text._sprintf_r
                0x08070130       0x44 c:/program files (x86)/gnu tools arm embedded/5.2 2015q4/bin/../lib/gcc/arm-none-eabi/5.2.1/../../../../arm-none-eabi/lib/armv7e-m/fpu\libc.a(lib_a-sprintf.o)
                0x08070130                _sprintf_r
 .text.sprintf  0x08070174       0x4c c:/program files (x86)/gnu tools arm embedded/5.2 2015q4/bin/../lib/gcc/arm-none-eabi/5.2.1/../../../../arm-none-eabi/lib/armv7e-m/fpu\libc.a(lib_a-sprintf.o)
                0x08070174                sprintf
 .text.__sread  0x080701c0       0x24 c:/program files (x86)/gnu tools arm embedded/5.2 2015q4/bin/../lib/gcc/arm-none-eabi/5.2.1/../../../../arm-none-eabi/lib/armv7e-m/fpu\libc.a(lib_a-stdio.o)
                0x080701c0                __sread
 .text.__seofread
                0x080701e4        0x4 c:/program files (x86)/gnu tools arm embedded/5.2 2015q4/bin/../lib/gcc/arm-none-eabi/5.2.1/../../../../arm-none-eabi/lib/armv7e-m/fpu\libc.a(lib_a-stdio.o)
                0x080701e4                __seofread
 .text.__swrite
                0x080701e8       0x38 c:/program files (x86)/gnu tools arm embedded/5.2 2015q4/bin/../lib/gcc/arm-none-eabi/5.2.1/../../../../arm-none-eabi/lib/armv7e-m/fpu\libc.a(lib_a-stdio.o)
                0x080701e8                __swrite
 .text.__sseek  0x08070220       0x20 c:/program files (x86)/gnu tools arm embedded/5.2 2015q4/bin/../lib/gcc/arm-none-eabi/5.2.1/../../../../arm-none-eabi/lib/armv7e-m/fpu\libc.a(lib_a-stdio.o)
                0x08070220                __sseek
 .text.__sclose
                0x08070240        0x8 c:/program files (x86)/gnu tools arm embedded/5.2 2015q4/bin/../lib/gcc/arm-none-eabi/5.2.1/../../../../arm-none-eabi/lib/armv7e-m/fpu\libc.a(lib_a-stdio.o)
                0x08070240                __sclose
 .text.strcat   0x08070248       0x40 c:/program files (x86)/gnu tools arm embedded/5.2 2015q4/bin/../lib/gcc/arm-none-eabi/5.2.1/../../../../arm-none-eabi/lib/armv7e-m/fpu\libc.a(lib_a-strcat.o)
                0x08070248                strcat
 .text.strchr   0x08070288       0xd0 c:/program files (x86)/gnu tools arm embedded/5.2 2015q4/bin/../lib/gcc/arm-none-eabi/5.2.1/../../../../arm-none-eabi/lib/armv7e-m/fpu\libc.a(lib_a-strchr.o)
                0x08070288                strchr
 .text.strcpy   0x08070358       0xbc c:/program files (x86)/gnu tools arm embedded/5.2 2015q4/bin/../lib/gcc/arm-none-eabi/5.2.1/../../../../arm-none-eabi/lib/armv7e-m/fpu\libc.a(lib_a-strcpy.o)
                0x08070358                strcpy
 .text.strlcat  0x08070414       0x54 c:/program files (x86)/gnu tools arm embedded/5.2 2015q4/bin/../lib/gcc/arm-none-eabi/5.2.1/../../../../arm-none-eabi/lib/armv7e-m/fpu\libc.a(lib_a-strlcat.o)
                0x08070414                strlcat
 .text.strncpy  0x08070468       0x68 c:/program files (x86)/gnu tools arm embedded/5.2 2015q4/bin/../lib/gcc/arm-none-eabi/5.2.1/../../../../arm-none-eabi/lib/armv7e-m/fpu\libc.a(lib_a-strncpy.o)
                0x08070468                strncpy
 .text.sulp     0x080704d0       0x40 c:/program files (x86)/gnu tools arm embedded/5.2 2015q4/bin/../lib/gcc/arm-none-eabi/5.2.1/../../../../arm-none-eabi/lib/armv7e-m/fpu\libc.a(lib_a-strtod.o)
 .text._strtod_r
                0x08070510      0xec0 c:/program files (x86)/gnu tools arm embedded/5.2 2015q4/bin/../lib/gcc/arm-none-eabi/5.2.1/../../../../arm-none-eabi/lib/armv7e-m/fpu\libc.a(lib_a-strtod.o)
                0x08070510                _strtod_r
 .text.strtod   0x080713d0       0x10 c:/program files (x86)/gnu tools arm embedded/5.2 2015q4/bin/../lib/gcc/arm-none-eabi/5.2.1/../../../../arm-none-eabi/lib/armv7e-m/fpu\libc.a(lib_a-strtod.o)
                0x080713d0                strtod
 .text.strtof   0x080713e0       0x44 c:/program files (x86)/gnu tools arm embedded/5.2 2015q4/bin/../lib/gcc/arm-none-eabi/5.2.1/../../../../arm-none-eabi/lib/armv7e-m/fpu\libc.a(lib_a-strtod.o)
                0x080713e0                strtof
 .text._strtol_r
                0x08071424      0x128 c:/program files (x86)/gnu tools arm embedded/5.2 2015q4/bin/../lib/gcc/arm-none-eabi/5.2.1/../../../../arm-none-eabi/lib/armv7e-m/fpu\libc.a(lib_a-strtol.o)
                0x08071424                _strtol_r
 .text.strtol   0x0807154c       0x18 c:/program files (x86)/gnu tools arm embedded/5.2 2015q4/bin/../lib/gcc/arm-none-eabi/5.2.1/../../../../arm-none-eabi/lib/armv7e-m/fpu\libc.a(lib_a-strtol.o)
                0x0807154c                strtol
 *fill*         0x08071564        0x4 
 .text._svfprintf_r
                0x08071568     0x169c c:/program files (x86)/gnu tools arm embedded/5.2 2015q4/bin/../lib/gcc/arm-none-eabi/5.2.1/../../../../arm-none-eabi/lib/armv7e-m/fpu\libc.a(lib_a-svfprintf.o)
                0x08071568                _svfprintf_r
 *fill*         0x08072c04        0x4 
 .text._vfprintf_r
                0x08072c08     0x16a0 c:/program files (x86)/gnu tools arm embedded/5.2 2015q4/bin/../lib/gcc/arm-none-eabi/5.2.1/../../../../arm-none-eabi/lib/armv7e-m/fpu\libc.a(lib_a-vfprintf.o)
                0x08072c08                _vfprintf_r
 .text.vfprintf
                0x080742a8       0x18 c:/program files (x86)/gnu tools arm embedded/5.2 2015q4/bin/../lib/gcc/arm-none-eabi/5.2.1/../../../../arm-none-eabi/lib/armv7e-m/fpu\libc.a(lib_a-vfprintf.o)
                0x080742a8                vfprintf
 .text.__sbprintf
                0x080742c0       0x6c c:/program files (x86)/gnu tools arm embedded/5.2 2015q4/bin/../lib/gcc/arm-none-eabi/5.2.1/../../../../arm-none-eabi/lib/armv7e-m/fpu\libc.a(lib_a-vfprintf.o)
 .text._write_r
                0x0807432c       0x2c c:/program files (x86)/gnu tools arm embedded/5.2 2015q4/bin/../lib/gcc/arm-none-eabi/5.2.1/../../../../arm-none-eabi/lib/armv7e-m/fpu\libc.a(lib_a-writer.o)
                0x0807432c                _write_r
 .text.__swsetup_r
                0x08074358       0xc4 c:/program files (x86)/gnu tools arm embedded/5.2 2015q4/bin/../lib/gcc/arm-none-eabi/5.2.1/../../../../arm-none-eabi/lib/armv7e-m/fpu\libc.a(lib_a-wsetup.o)
                0x08074358                __swsetup_r
 .text.startup.register_fini
                0x0807441c       0x14 c:/program files (x86)/gnu tools arm embedded/5.2 2015q4/bin/../lib/gcc/arm-none-eabi/5.2.1/../../../../arm-none-eabi/lib/armv7e-m/fpu\libc.a(lib_a-__call_atexit.o)
 .text.__call_exitprocs
                0x08074430       0xd8 c:/program files (x86)/gnu tools arm embedded/5.2 2015q4/bin/../lib/gcc/arm-none-eabi/5.2.1/../../../../arm-none-eabi/lib/armv7e-m/fpu\libc.a(lib_a-__call_atexit.o)
                0x08074430                __call_exitprocs
 .text.atexit   0x08074508        0xc c:/program files (x86)/gnu tools arm embedded/5.2 2015q4/bin/../lib/gcc/arm-none-eabi/5.2.1/../../../../arm-none-eabi/lib/armv7e-m/fpu\libc.a(lib_a-atexit.o)
                0x08074508                atexit
 .text._close_r
                0x08074514       0x24 c:/program files (x86)/gnu tools arm embedded/5.2 2015q4/bin/../lib/gcc/arm-none-eabi/5.2.1/../../../../arm-none-eabi/lib/armv7e-m/fpu\libc.a(lib_a-closer.o)
                0x08074514                _close_r
 .text.quorem   0x08074538      0x128 c:/program files (x86)/gnu tools arm embedded/5.2 2015q4/bin/../lib/gcc/arm-none-eabi/5.2.1/../../../../arm-none-eabi/lib/armv7e-m/fpu\libc.a(lib_a-dtoa.o)
 .text._dtoa_r  0x08074660      0xe34 c:/program files (x86)/gnu tools arm embedded/5.2 2015q4/bin/../lib/gcc/arm-none-eabi/5.2.1/../../../../arm-none-eabi/lib/armv7e-m/fpu\libc.a(lib_a-dtoa.o)
                0x08074660                _dtoa_r
 .text.__libc_fini_array
                0x08075494       0x28 c:/program files (x86)/gnu tools arm embedded/5.2 2015q4/bin/../lib/gcc/arm-none-eabi/5.2.1/../../../../arm-none-eabi/lib/armv7e-m/fpu\libc.a(lib_a-fini.o)
                0x08075494                __libc_fini_array
 .text.__sflags
                0x080754bc       0x74 c:/program files (x86)/gnu tools arm embedded/5.2 2015q4/bin/../lib/gcc/arm-none-eabi/5.2.1/../../../../arm-none-eabi/lib/armv7e-m/fpu\libc.a(lib_a-flags.o)
                0x080754bc                __sflags
 .text.rshift   0x08075530       0xa8 c:/program files (x86)/gnu tools arm embedded/5.2 2015q4/bin/../lib/gcc/arm-none-eabi/5.2.1/../../../../arm-none-eabi/lib/armv7e-m/fpu\libc.a(lib_a-gdtoa-gethex.o)
 .text.__gethex
                0x080755d8      0x510 c:/program files (x86)/gnu tools arm embedded/5.2 2015q4/bin/../lib/gcc/arm-none-eabi/5.2.1/../../../../arm-none-eabi/lib/armv7e-m/fpu\libc.a(lib_a-gdtoa-gethex.o)
                0x080755d8                __gethex
 .text.__match  0x08075ae8       0x30 c:/program files (x86)/gnu tools arm embedded/5.2 2015q4/bin/../lib/gcc/arm-none-eabi/5.2.1/../../../../arm-none-eabi/lib/armv7e-m/fpu\libc.a(lib_a-gdtoa-hexnan.o)
                0x08075ae8                __match
 .text.__hexnan
                0x08075b18      0x180 c:/program files (x86)/gnu tools arm embedded/5.2 2015q4/bin/../lib/gcc/arm-none-eabi/5.2.1/../../../../arm-none-eabi/lib/armv7e-m/fpu\libc.a(lib_a-gdtoa-hexnan.o)
                0x08075b18                __hexnan
 .text._isatty_r
                0x08075c98       0x24 c:/program files (x86)/gnu tools arm embedded/5.2 2015q4/bin/../lib/gcc/arm-none-eabi/5.2.1/../../../../arm-none-eabi/lib/armv7e-m/fpu\libc.a(lib_a-isattyr.o)
                0x08075c98                _isatty_r
 .text._setlocale_r
                0x08075cbc       0x40 c:/program files (x86)/gnu tools arm embedded/5.2 2015q4/bin/../lib/gcc/arm-none-eabi/5.2.1/../../../../arm-none-eabi/lib/armv7e-m/fpu\libc.a(lib_a-locale.o)
                0x08075cbc                _setlocale_r
 .text.__locale_charset
                0x08075cfc        0x8 c:/program files (x86)/gnu tools arm embedded/5.2 2015q4/bin/../lib/gcc/arm-none-eabi/5.2.1/../../../../arm-none-eabi/lib/armv7e-m/fpu\libc.a(lib_a-locale.o)
                0x08075cfc                __locale_charset
 .text.__locale_mb_cur_max
                0x08075d04        0xc c:/program files (x86)/gnu tools arm embedded/5.2 2015q4/bin/../lib/gcc/arm-none-eabi/5.2.1/../../../../arm-none-eabi/lib/armv7e-m/fpu\libc.a(lib_a-locale.o)
                0x08075d04                __locale_mb_cur_max
 .text.__locale_msgcharset
                0x08075d10        0x8 c:/program files (x86)/gnu tools arm embedded/5.2 2015q4/bin/../lib/gcc/arm-none-eabi/5.2.1/../../../../arm-none-eabi/lib/armv7e-m/fpu\libc.a(lib_a-locale.o)
                0x08075d10                __locale_msgcharset
 .text.__locale_cjk_lang
                0x08075d18        0x4 c:/program files (x86)/gnu tools arm embedded/5.2 2015q4/bin/../lib/gcc/arm-none-eabi/5.2.1/../../../../arm-none-eabi/lib/armv7e-m/fpu\libc.a(lib_a-locale.o)
                0x08075d18                __locale_cjk_lang
 .text._localeconv_r
                0x08075d1c        0x8 c:/program files (x86)/gnu tools arm embedded/5.2 2015q4/bin/../lib/gcc/arm-none-eabi/5.2.1/../../../../arm-none-eabi/lib/armv7e-m/fpu\libc.a(lib_a-locale.o)
                0x08075d1c                _localeconv_r
 .text.setlocale
                0x08075d24       0x10 c:/program files (x86)/gnu tools arm embedded/5.2 2015q4/bin/../lib/gcc/arm-none-eabi/5.2.1/../../../../arm-none-eabi/lib/armv7e-m/fpu\libc.a(lib_a-locale.o)
                0x08075d24                setlocale
 .text.localeconv
                0x08075d34        0x8 c:/program files (x86)/gnu tools arm embedded/5.2 2015q4/bin/../lib/gcc/arm-none-eabi/5.2.1/../../../../arm-none-eabi/lib/armv7e-m/fpu\libc.a(lib_a-locale.o)
                0x08075d34                localeconv
 .text._lseek_r
                0x08075d3c       0x2c c:/program files (x86)/gnu tools arm embedded/5.2 2015q4/bin/../lib/gcc/arm-none-eabi/5.2.1/../../../../arm-none-eabi/lib/armv7e-m/fpu\libc.a(lib_a-lseekr.o)
                0x08075d3c                _lseek_r
 .text._Balloc  0x08075d68       0x4c c:/program files (x86)/gnu tools arm embedded/5.2 2015q4/bin/../lib/gcc/arm-none-eabi/5.2.1/../../../../arm-none-eabi/lib/armv7e-m/fpu\libc.a(lib_a-mprec.o)
                0x08075d68                _Balloc
 .text._Bfree   0x08075db4       0x14 c:/program files (x86)/gnu tools arm embedded/5.2 2015q4/bin/../lib/gcc/arm-none-eabi/5.2.1/../../../../arm-none-eabi/lib/armv7e-m/fpu\libc.a(lib_a-mprec.o)
                0x08075db4                _Bfree
 .text.__multadd
                0x08075dc8       0x80 c:/program files (x86)/gnu tools arm embedded/5.2 2015q4/bin/../lib/gcc/arm-none-eabi/5.2.1/../../../../arm-none-eabi/lib/armv7e-m/fpu\libc.a(lib_a-mprec.o)
                0x08075dc8                __multadd
 .text.__s2b    0x08075e48       0x98 c:/program files (x86)/gnu tools arm embedded/5.2 2015q4/bin/../lib/gcc/arm-none-eabi/5.2.1/../../../../arm-none-eabi/lib/armv7e-m/fpu\libc.a(lib_a-mprec.o)
                0x08075e48                __s2b
 .text.__hi0bits
                0x08075ee0       0x40 c:/program files (x86)/gnu tools arm embedded/5.2 2015q4/bin/../lib/gcc/arm-none-eabi/5.2.1/../../../../arm-none-eabi/lib/armv7e-m/fpu\libc.a(lib_a-mprec.o)
                0x08075ee0                __hi0bits
 .text.__lo0bits
                0x08075f20       0x5c c:/program files (x86)/gnu tools arm embedded/5.2 2015q4/bin/../lib/gcc/arm-none-eabi/5.2.1/../../../../arm-none-eabi/lib/armv7e-m/fpu\libc.a(lib_a-mprec.o)
                0x08075f20                __lo0bits
 .text.__i2b    0x08075f7c       0x14 c:/program files (x86)/gnu tools arm embedded/5.2 2015q4/bin/../lib/gcc/arm-none-eabi/5.2.1/../../../../arm-none-eabi/lib/armv7e-m/fpu\libc.a(lib_a-mprec.o)
                0x08075f7c                __i2b
 .text.__multiply
                0x08075f90      0x130 c:/program files (x86)/gnu tools arm embedded/5.2 2015q4/bin/../lib/gcc/arm-none-eabi/5.2.1/../../../../arm-none-eabi/lib/armv7e-m/fpu\libc.a(lib_a-mprec.o)
                0x08075f90                __multiply
 .text.__pow5mult
                0x080760c0       0xa0 c:/program files (x86)/gnu tools arm embedded/5.2 2015q4/bin/../lib/gcc/arm-none-eabi/5.2.1/../../../../arm-none-eabi/lib/armv7e-m/fpu\libc.a(lib_a-mprec.o)
                0x080760c0                __pow5mult
 .text.__lshift
                0x08076160       0xb0 c:/program files (x86)/gnu tools arm embedded/5.2 2015q4/bin/../lib/gcc/arm-none-eabi/5.2.1/../../../../arm-none-eabi/lib/armv7e-m/fpu\libc.a(lib_a-mprec.o)
                0x08076160                __lshift
 .text.__mcmp   0x08076210       0x44 c:/program files (x86)/gnu tools arm embedded/5.2 2015q4/bin/../lib/gcc/arm-none-eabi/5.2.1/../../../../arm-none-eabi/lib/armv7e-m/fpu\libc.a(lib_a-mprec.o)
                0x08076210                __mcmp
 .text.__mdiff  0x08076254      0x114 c:/program files (x86)/gnu tools arm embedded/5.2 2015q4/bin/../lib/gcc/arm-none-eabi/5.2.1/../../../../arm-none-eabi/lib/armv7e-m/fpu\libc.a(lib_a-mprec.o)
                0x08076254                __mdiff
 .text.__ulp    0x08076368       0x54 c:/program files (x86)/gnu tools arm embedded/5.2 2015q4/bin/../lib/gcc/arm-none-eabi/5.2.1/../../../../arm-none-eabi/lib/armv7e-m/fpu\libc.a(lib_a-mprec.o)
                0x08076368                __ulp
 .text.__b2d    0x080763bc       0xd0 c:/program files (x86)/gnu tools arm embedded/5.2 2015q4/bin/../lib/gcc/arm-none-eabi/5.2.1/../../../../arm-none-eabi/lib/armv7e-m/fpu\libc.a(lib_a-mprec.o)
                0x080763bc                __b2d
 .text.__d2b    0x0807648c       0xbc c:/program files (x86)/gnu tools arm embedded/5.2 2015q4/bin/../lib/gcc/arm-none-eabi/5.2.1/../../../../arm-none-eabi/lib/armv7e-m/fpu\libc.a(lib_a-mprec.o)
                0x0807648c                __d2b
 .text.__ratio  0x08076548       0x60 c:/program files (x86)/gnu tools arm embedded/5.2 2015q4/bin/../lib/gcc/arm-none-eabi/5.2.1/../../../../arm-none-eabi/lib/armv7e-m/fpu\libc.a(lib_a-mprec.o)
                0x08076548                __ratio
 .text._mprec_log10
                0x080765a8       0x38 c:/program files (x86)/gnu tools arm embedded/5.2 2015q4/bin/../lib/gcc/arm-none-eabi/5.2.1/../../../../arm-none-eabi/lib/armv7e-m/fpu\libc.a(lib_a-mprec.o)
                0x080765a8                _mprec_log10
 .text.__copybits
                0x080765e0       0x48 c:/program files (x86)/gnu tools arm embedded/5.2 2015q4/bin/../lib/gcc/arm-none-eabi/5.2.1/../../../../arm-none-eabi/lib/armv7e-m/fpu\libc.a(lib_a-mprec.o)
                0x080765e0                __copybits
 .text.__any_on
                0x08076628       0x60 c:/program files (x86)/gnu tools arm embedded/5.2 2015q4/bin/../lib/gcc/arm-none-eabi/5.2.1/../../../../arm-none-eabi/lib/armv7e-m/fpu\libc.a(lib_a-mprec.o)
                0x08076628                __any_on
 .text._read_r  0x08076688       0x2c c:/program files (x86)/gnu tools arm embedded/5.2 2015q4/bin/../lib/gcc/arm-none-eabi/5.2.1/../../../../arm-none-eabi/lib/armv7e-m/fpu\libc.a(lib_a-readr.o)
                0x08076688                _read_r
 .text.strncmp  0x080766b4       0xa0 c:/program files (x86)/gnu tools arm embedded/5.2 2015q4/bin/../lib/gcc/arm-none-eabi/5.2.1/../../../../arm-none-eabi/lib/armv7e-m/fpu\libc.a(lib_a-strncmp.o)
                0x080766b4                strncmp
 .text.__ssprint_r
                0x08076754      0x100 c:/program files (x86)/gnu tools arm embedded/5.2 2015q4/bin/../lib/gcc/arm-none-eabi/5.2.1/../../../../arm-none-eabi/lib/armv7e-m/fpu\libc.a(lib_a-svfiprintf.o)
                0x08076754                __ssprint_r
 .text._svfiprintf_r
                0x08076854      0xc5c c:/program files (x86)/gnu tools arm embedded/5.2 2015q4/bin/../lib/gcc/arm-none-eabi/5.2.1/../../../../arm-none-eabi/lib/armv7e-m/fpu\libc.a(lib_a-svfiprintf.o)
                0x08076854                _svfiprintf_r
 .text.__sprint_r.part.0
                0x080774b0       0x78 c:/program files (x86)/gnu tools arm embedded/5.2 2015q4/bin/../lib/gcc/arm-none-eabi/5.2.1/../../../../arm-none-eabi/lib/armv7e-m/fpu\libc.a(lib_a-vfiprintf.o)
 .text.__sprint_r
                0x08077528       0x14 c:/program files (x86)/gnu tools arm embedded/5.2 2015q4/bin/../lib/gcc/arm-none-eabi/5.2.1/../../../../arm-none-eabi/lib/armv7e-m/fpu\libc.a(lib_a-vfiprintf.o)
                0x08077528                __sprint_r
 .text._vfiprintf_r
                0x0807753c      0xdf8 c:/program files (x86)/gnu tools arm embedded/5.2 2015q4/bin/../lib/gcc/arm-none-eabi/5.2.1/../../../../arm-none-eabi/lib/armv7e-m/fpu\libc.a(lib_a-vfiprintf.o)
                0x0807753c                _vfiprintf_r
 .text.vfiprintf
                0x08078334       0x18 c:/program files (x86)/gnu tools arm embedded/5.2 2015q4/bin/../lib/gcc/arm-none-eabi/5.2.1/../../../../arm-none-eabi/lib/armv7e-m/fpu\libc.a(lib_a-vfiprintf.o)
                0x08078334                vfiprintf
 .text.__sbprintf
                0x0807834c       0x6c c:/program files (x86)/gnu tools arm embedded/5.2 2015q4/bin/../lib/gcc/arm-none-eabi/5.2.1/../../../../arm-none-eabi/lib/armv7e-m/fpu\libc.a(lib_a-vfiprintf.o)
 .text.__register_exitproc
                0x080783b8       0xa4 c:/program files (x86)/gnu tools arm embedded/5.2 2015q4/bin/../lib/gcc/arm-none-eabi/5.2.1/../../../../arm-none-eabi/lib/armv7e-m/fpu\libc.a(lib_a-__atexit.o)
                0x080783b8                __register_exitproc
 .text._calloc_r
                0x0807845c       0x60 c:/program files (x86)/gnu tools arm embedded/5.2 2015q4/bin/../lib/gcc/arm-none-eabi/5.2.1/../../../../arm-none-eabi/lib/armv7e-m/fpu\libc.a(lib_a-callocr.o)
                0x0807845c                _calloc_r
 .text.__fputwc
                0x080784bc       0xb0 c:/program files (x86)/gnu tools arm embedded/5.2 2015q4/bin/../lib/gcc/arm-none-eabi/5.2.1/../../../../arm-none-eabi/lib/armv7e-m/fpu\libc.a(lib_a-fputwc.o)
                0x080784bc                __fputwc
 .text._fputwc_r
                0x0807856c       0x24 c:/program files (x86)/gnu tools arm embedded/5.2 2015q4/bin/../lib/gcc/arm-none-eabi/5.2.1/../../../../arm-none-eabi/lib/armv7e-m/fpu\libc.a(lib_a-fputwc.o)
                0x0807856c                _fputwc_r
 .text.fputwc   0x08078590       0x40 c:/program files (x86)/gnu tools arm embedded/5.2 2015q4/bin/../lib/gcc/arm-none-eabi/5.2.1/../../../../arm-none-eabi/lib/armv7e-m/fpu\libc.a(lib_a-fputwc.o)
                0x08078590                fputwc
 .text.__sfvwrite_r
                0x080785d0      0x300 c:/program files (x86)/gnu tools arm embedded/5.2 2015q4/bin/../lib/gcc/arm-none-eabi/5.2.1/../../../../arm-none-eabi/lib/armv7e-m/fpu\libc.a(lib_a-fvwrite.o)
                0x080785d0                __sfvwrite_r
 .text.memmove  0x080788d0       0xc8 c:/program files (x86)/gnu tools arm embedded/5.2 2015q4/bin/../lib/gcc/arm-none-eabi/5.2.1/../../../../arm-none-eabi/lib/armv7e-m/fpu\libc.a(lib_a-memmove.o)
                0x080788d0                memmove
 .text._realloc_r
                0x08078998      0x3e0 c:/program files (x86)/gnu tools arm embedded/5.2 2015q4/bin/../lib/gcc/arm-none-eabi/5.2.1/../../../../arm-none-eabi/lib/armv7e-m/fpu\libc.a(lib_a-reallocr.o)
                0x08078998                _realloc_r
 .text.__swbuf_r
                0x08078d78       0xa8 c:/program files (x86)/gnu tools arm embedded/5.2 2015q4/bin/../lib/gcc/arm-none-eabi/5.2.1/../../../../arm-none-eabi/lib/armv7e-m/fpu\libc.a(lib_a-wbuf.o)
                0x08078d78                __swbuf_r
 .text.__swbuf  0x08078e20       0x10 c:/program files (x86)/gnu tools arm embedded/5.2 2015q4/bin/../lib/gcc/arm-none-eabi/5.2.1/../../../../arm-none-eabi/lib/armv7e-m/fpu\libc.a(lib_a-wbuf.o)
                0x08078e20                __swbuf
 .text._wcrtomb_r
                0x08078e30       0x54 c:/program files (x86)/gnu tools arm embedded/5.2 2015q4/bin/../lib/gcc/arm-none-eabi/5.2.1/../../../../arm-none-eabi/lib/armv7e-m/fpu\libc.a(lib_a-wcrtomb.o)
                0x08078e30                _wcrtomb_r
 .text.wcrtomb  0x08078e84       0x58 c:/program files (x86)/gnu tools arm embedded/5.2 2015q4/bin/../lib/gcc/arm-none-eabi/5.2.1/../../../../arm-none-eabi/lib/armv7e-m/fpu\libc.a(lib_a-wcrtomb.o)
                0x08078e84                wcrtomb
 .text.__ascii_wctomb
                0x08078edc       0x1c c:/program files (x86)/gnu tools arm embedded/5.2 2015q4/bin/../lib/gcc/arm-none-eabi/5.2.1/../../../../arm-none-eabi/lib/armv7e-m/fpu\libc.a(lib_a-wctomb_r.o)
                0x08078edc                __ascii_wctomb
 .text._wctomb_r
                0x08078ef8       0x30 c:/program files (x86)/gnu tools arm embedded/5.2 2015q4/bin/../lib/gcc/arm-none-eabi/5.2.1/../../../../arm-none-eabi/lib/armv7e-m/fpu\libc.a(lib_a-wctomb_r.o)
                0x08078ef8                _wctomb_r
 .text._close   0x08078f28       0x10 c:/program files (x86)/gnu tools arm embedded/5.2 2015q4/bin/../lib/gcc/arm-none-eabi/5.2.1/../../../../arm-none-eabi/lib/armv7e-m/fpu\libnosys.a(close.o)
                0x08078f28                _close
 .text._fstat   0x08078f38       0x10 c:/program files (x86)/gnu tools arm embedded/5.2 2015q4/bin/../lib/gcc/arm-none-eabi/5.2.1/../../../../arm-none-eabi/lib/armv7e-m/fpu\libnosys.a(fstat.o)
                0x08078f38                _fstat
 .text._isatty  0x08078f48       0x10 c:/program files (x86)/gnu tools arm embedded/5.2 2015q4/bin/../lib/gcc/arm-none-eabi/5.2.1/../../../../arm-none-eabi/lib/armv7e-m/fpu\libnosys.a(isatty.o)
                0x08078f48                _isatty
 .text._lseek   0x08078f58       0x10 c:/program files (x86)/gnu tools arm embedded/5.2 2015q4/bin/../lib/gcc/arm-none-eabi/5.2.1/../../../../arm-none-eabi/lib/armv7e-m/fpu\libnosys.a(lseek.o)
                0x08078f58                _lseek
 .text._open    0x08078f68       0x10 c:/program files (x86)/gnu tools arm embedded/5.2 2015q4/bin/../lib/gcc/arm-none-eabi/5.2.1/../../../../arm-none-eabi/lib/armv7e-m/fpu\libnosys.a(open.o)
                0x08078f68                _open
 .text._read    0x08078f78       0x10 c:/program files (x86)/gnu tools arm embedded/5.2 2015q4/bin/../lib/gcc/arm-none-eabi/5.2.1/../../../../arm-none-eabi/lib/armv7e-m/fpu\libnosys.a(read.o)
                0x08078f78                _read
 .text._write   0x08078f88       0x10 c:/program files (x86)/gnu tools arm embedded/5.2 2015q4/bin/../lib/gcc/arm-none-eabi/5.2.1/../../../../arm-none-eabi/lib/armv7e-m/fpu\libnosys.a(write.o)
                0x08078f88                _write
 .text._exit    0x08078f98        0x4 c:/program files (x86)/gnu tools arm embedded/5.2 2015q4/bin/../lib/gcc/arm-none-eabi/5.2.1/../../../../arm-none-eabi/lib/armv7e-m/fpu\libnosys.a(_exit.o)
                0x08078f98                _exit
 *(.glue_7)
 .glue_7        0x08078f9c        0x0 linker stubs
 *(.glue_7t)
 .glue_7t       0x08078f9c        0x0 linker stubs
 *(.eh_frame)
 .eh_frame      0x08078f9c        0x0 c:/program files (x86)/gnu tools arm embedded/5.2 2015q4/bin/../lib/gcc/arm-none-eabi/5.2.1/armv7e-m/fpu/crtbegin.o
 .eh_frame      0x08078f9c        0x4 c:/program files (x86)/gnu tools arm embedded/5.2 2015q4/bin/../lib/gcc/arm-none-eabi/5.2.1/armv7e-m/fpu/crtend.o
 *(.init)
 .init          0x08078fa0        0x4 c:/program files (x86)/gnu tools arm embedded/5.2 2015q4/bin/../lib/gcc/arm-none-eabi/5.2.1/armv7e-m/fpu/crti.o
                0x08078fa0                _init
 .init          0x08078fa4        0x8 c:/program files (x86)/gnu tools arm embedded/5.2 2015q4/bin/../lib/gcc/arm-none-eabi/5.2.1/armv7e-m/fpu/crtn.o
 *(.fini)
 .fini          0x08078fac        0x4 c:/program files (x86)/gnu tools arm embedded/5.2 2015q4/bin/../lib/gcc/arm-none-eabi/5.2.1/armv7e-m/fpu/crti.o
                0x08078fac                _fini
 .fini          0x08078fb0        0x8 c:/program files (x86)/gnu tools arm embedded/5.2 2015q4/bin/../lib/gcc/arm-none-eabi/5.2.1/armv7e-m/fpu/crtn.o
                0x08078fb8                . = ALIGN (0x4)
                0x08078fb8                _etext = .

.vfp11_veneer   0x08078fb8        0x0
 .vfp11_veneer  0x08078fb8        0x0 linker stubs

.v4_bx          0x08078fb8        0x0
 .v4_bx         0x08078fb8        0x0 linker stubs

.iplt           0x08078fb8        0x0
 .iplt          0x08078fb8        0x0 c:/program files (x86)/gnu tools arm embedded/5.2 2015q4/bin/../lib/gcc/arm-none-eabi/5.2.1/armv7e-m/fpu/crtbegin.o

.rodata         0x08078fb8   0x14ef68
                0x08078fb8                . = ALIGN (0x4)
 *(.rodata)
 .rodata        0x08078fb8      0x4ae vt3_code/vt3_disp.c.o
                0x08079424                vt3_screen_width
                0x08079428                vt3_screen_height
                0x0807942c                vt3_focus_sequence_forward
                0x08079438                vt3_focus_sequence_backward
                0x08079444                vt3_knob_sel_sequence_forward
                0x08079450                vt3_knob_sel_sequence_backward
                0x0807945c                vt3_screen_ks_ptr
 *fill*         0x08079466        0x2 
 .rodata        0x08079468       0x18 vt3_code/vt3_disp_events.c.o
 .rodata        0x08079480      0x15c vt3_code/vt3_alarms.c.o
                0x08079480                vt3_alarm_priority_count
                0x08079484                vt3_alarm_priority
                0x08079488                vt3_alarm_spn_count
                0x0807948c                vt3_alarm_spn
                0x08079494                vt3_alarm_fmi_count
                0x08079498                vt3_alarm_fmi
                0x0807949c                vt3_alarm_group_count
                0x080794a0                vt3_alarm_group
                0x080794cc                vt3_global_alarm_count
                0x080794d0                vt3_alarm_definition_global
                0x080794d8                vt3_local_alarm_count
                0x080794dc                vt3_alarm_definition
                0x08079508                vt3_alarm_index_spn_fmi
                0x0807950c                vt3_alarm_inhibition_functions
                0x0807954c                vt3_repetition_info
                0x0807958c                vt3_repetition_safe
                0x080795cc                vt3_elog_count
                0x080795d0                vt3_elog_description
 .rodata        0x080795dc       0x10 vt3_code/vt3_signature.c.o
                0x080795dc                vt3_signature_software
 .rodata        0x080795ec   0x1434e4 vt3_code/vt3_images.c.o
                0x080795ec                vt3_BMP__Blk3_0_0_argb8888
                0x081aba74                vt3_BMP__Green_0_0_argb8888
                0x081b4194                vt3_BMP__Red_0_0_argb8888
 .rodata        0x081bcad0     0x2e38 vt3_code/vt3_Font__RobotoBold36.c.o
                0x081bf900                vt3_font_descriptor_RobotoBold36
 .rodata        0x081bf908      0xdfc vt3_code/vt3_Font__RobotoBold49.c.o
                0x081c06fc                vt3_font_descriptor_RobotoBold49
 .rodata        0x081c0704        0xe vt3_code/vt3_POU__MAIN.c.o
 *fill*         0x081c0712        0x2 
 .rodata        0x081c0714        0xc vt3_code/vt3_POU__global_data.c.o
 .rodata        0x081c0720        0xc vt3_code/vt3_POU__key_data.c.o
 .rodata        0x081c072c       0x24 vt3_code/vt3_POU_common.c.o
                0x081c072c                vt3_endianness_table
                0x081c0730                vt3_task_table
 .rodata        0x081c0750       0xdc vt3_code/vt3_vars.c.o
                0x081c0750                vt3_const_prj_version
                0x081c0768                vt3_const_prj_name
                0x081c0770                vt3_const_dev_name
                0x081c077c                vt3_device_properties_long_name
                0x081c078c                vt3_device_properties_short_name
                0x081c0795                vt3_device_properties_has_touch_screen
                0x081c0796                vt3_kwp2000_HostId
                0x081c0798                vt3_kwp2000_EcuId
                0x081c079c                vt3_kwp2000_SecurityRoot
                0x081c07a0                vt3_screen_count
                0x081c07a2                PARITY__NONE
                0x081c07a4                PARITY__ODD
                0x081c07a6                PARITY__EVEN
                0x081c07a8                UART__OK
                0x081c07aa                UART__ERR
                0x081c07ac                UART__TX_ERR
                0x081c07ae                UART__RX_ERR
                0x081c07b0                UART__P_OUT_OF_RANGE
                0x081c07b2                USB__OK
                0x081c07b4                USB__ERR
                0x081c07b6                USB__EOF
                0x081c07b8                USB__EOD
                0x081c07ba                FA_OPEN_EXISTING_READ
                0x081c07bc                FA_OPEN_EXISTING_WRITE
                0x081c07be                FA_OPEN_ALWAYS_READ
                0x081c07c0                FA_OPEN_ALWAYS_WRITE
                0x081c07c2                FA_CREATE_NEW_WRITE
                0x081c07c4                FA_CREATE_ALWAYS_WRITE
                0x081c07c6                UPLOAD__FROM_CAN
                0x081c07c8                UPLOAD__FROM_USB
                0x081c07ca                KEY__SHUTDOWN_ENABLE
                0x081c07cc                KEY__SHUTDOWN_DISABLE
                0x081c07ce                MODE__OK
                0x081c07d0                MODE__ERR
                0x081c07d4                BYTEM_SIZE_EXTERN
                0x081c07d8                BYTEP_SIZE_EXTERN
                0x081c07dc                BYTER_SIZE_EXTERN
                0x081c07e0                BYTEI_SIZE_EXTERN
                0x081c07e4                BYTEQ_SIZE_EXTERN
                0x081c07e8                BYTES_SIZE_EXTERN
                0x081c07ec                BYTEF_SIZE_EXTERN
                0x081c07f0                BYTEE_SIZE_EXTERN
                0x081c07f4                BYTEK_SIZE_EXTERN
                0x081c07f8                VT3_IO_COUNT_EXTERN
                0x081c07fc                vt3_string_sizes
 .rodata        0x081c082c       0x11 vt3_code/vt3_var_version.c.o
                0x081c082c                vt3_version
 *fill*         0x081c083d        0x3 
 .rodata        0x081c0840        0xc vt3_code/vt3_init_persistent_p_array.c.o
 .rodata        0x081c084c        0xc vt3_code/vt3_init_persistent_r_array.c.o
 .rodata        0x081c0858        0xc vt3_code/vt3_init_persistent_f_array.c.o
 .rodata        0x081c0864       0x54 vt3_code/vt3_CAN__CanInterface.c.o
 .rodata        0x081c08b8      0x14c vt3_code/vt3_CAN_common.c.o
                0x081c08b8                vt3_local_debug_source_address
                0x081c08b9                vt3_devices_count
                0x081c08bc                vt3_devices_debug_source_address
                0x081c08c0                vt3_routing_table
                0x081c09c0                vt3_CAN_source_address
                0x081c09c4                vt3_CAN_bitrate
                0x081c09c8                vt3_CAN_License
                0x081c09d8                vt3_j1939_rx_count
                0x081c09dc                vt3_j1939_rx_slot_table
                0x081c09e4                vt3_j1939_rx_slot_size_table
                0x081c09e6                vt3_tx_cobid_count
                0x081c09e8                vt3_tx_cobid_list_original
                0x081c09f8                vt3_rx_cobid_count
                0x081c09fc                vt3_rx_cobid_list_original
 .rodata        0x081c0a04       0x10 __OBJE~1/vt3_POU__closeUSB.c.o
 .rodata        0x081c0a14       0x10 __OBJE~1/vt3_POU__ForceUpdate.c.o
 .rodata        0x081c0a24       0x1c __OBJE~1/vt3_POU__initCOM.c.o
 .rodata        0x081c0a40       0x10 __OBJE~1/vt3_POU__mountUSB.c.o
 .rodata        0x081c0a50       0x2c __OBJE~1/vt3_POU__openUSB.c.o
 .rodata        0x081c0a7c       0x10 __OBJE~1/vt3_POU__PowerOff.c.o
 .rodata        0x081c0a8c      0x110 __OBJE~1/vt3_POU__readByteCOM.c.o
 .rodata        0x081c0b9c      0x114 __OBJE~1/vt3_POU__readStringCOM.c.o
 .rodata        0x081c0cb0      0x116 __OBJE~1/vt3_POU__readStringUSB.c.o
 *fill*         0x081c0dc6        0x2 
 .rodata        0x081c0dc8        0xe __OBJE~1/vt3_POU__resetBufferCOM.c.o
 *fill*         0x081c0dd6        0x2 
 .rodata        0x081c0dd8       0x12 __OBJE~1/vt3_POU__SetKeyMode.c.o
 *fill*         0x081c0dea        0x2 
 .rodata        0x081c0dec       0x10 __OBJE~1/vt3_POU__umountUSB.c.o
 .rodata        0x081c0dfc       0x42 __OBJE~1/vt3_POU__writeByteCOM.c.o
 *fill*         0x081c0e3e        0x2 
 .rodata        0x081c0e40       0x10 __OBJE~1/vt3_POU__writeElogUSB.c.o
 .rodata        0x081c0e50       0x48 __OBJE~1/vt3_POU__writeStringCOM.c.o
 .rodata        0x081c0e98      0x116 __OBJE~1/vt3_POU__writeStringUSB.c.o
 *fill*         0x081c0fae        0x2 
 .rodata        0x081c0fb0      0x104 C:\PROGRA~2\VT3_8920\VT3\RESOUR~1\targets\CANVIEW4\lib\vt3_runtime\libvt3_runtime.a(VT3_Main.o)
                0x081c0fb0                version_markers_and_number_runtime
 .rodata        0x081c10b4       0x54 C:\PROGRA~2\VT3_8920\VT3\RESOUR~1\targets\CANVIEW4\lib\vt3_common\libvt3_common.a(IEC_Lib.o)
 .rodata        0x081c1108       0x1c C:\PROGRA~2\VT3_8920\VT3\RESOUR~1\targets\CANVIEW4\lib\vt3_common\libvt3_common.a(VT3_CAN_debug.o)
 .rodata        0x081c1124      0x320 C:\PROGRA~2\VT3_8920\VT3\RESOUR~1\targets\CANVIEW4\lib\vt3_common\libvt3_common.a(VT3_Draw.o)
                0x081c1148                vt3_indicator_VMT_ScreenModel
                0x081c115c                vt3_indicator_VMT_ScreenFrameModel
                0x081c1170                vt3_indicator_VMT_PhysicalKey
                0x081c1184                vt3_indicator_VMT_PhysicalIndicator
                0x081c1198                vt3_indicator_VMT_SimpleLine
                0x081c11ac                vt3_indicator_VMT_SimpleRect
                0x081c11c0                vt3_indicator_VMT_SimpleTriangle
                0x081c11d4                vt3_indicator_VMT_SimpleCircle
                0x081c11e8                vt3_indicator_VMT_PlaceHolder
                0x081c11fc                vt3_indicator_VMT_Number
                0x081c1210                vt3_indicator_VMT_GaugeBar
                0x081c1224                vt3_indicator_VMT_CircularGauge
                0x081c1238                vt3_indicator_VMT_MultiBitmap
                0x081c124c                vt3_indicator_VMT_SimpleText
                0x081c1260                vt3_indicator_VMT_MultiText
                0x081c1274                vt3_indicator_VMT_Grid
                0x081c1288                vt3_indicator_VMT_MenuItem
                0x081c129c                vt3_indicator_VMT_Menu
                0x081c12b0                vt3_indicator_VMT_PAL_Camera
                0x081c12c4                vt3_indicator_VMT_IndicatorGroup
                0x081c12d8                vt3_indicator_VMT_SubScreen
                0x081c12ec                vt3_indicator_VMT_SubScreenPage
                0x081c1300                vt3_indicator_VMT_Touch
                0x081c1314                vt3_indicator_VMT_AlarmQuick
                0x081c1328                vt3_indicator_VMT_AlarmSummary
                0x081c133c                vt3_indicator_VMT_AlarmLogTable
                0x081c1350                vt3_indicator_VMT_AlarmLogDetail
                0x081c1364                vt3_indicator_VMT_SimpleTextEditable
                0x081c1378                vt3_indicator_VMT_NumberEditable
 .rodata        0x081c1444      0x104 C:\PROGRA~2\VT3_8920\VT3\RESOUR~1\targets\CANVIEW4\lib\vt3_common\libvt3_common.a(VT3_Runtime_Common.o)
                0x081c1444                version_markers_and_number_common
 .rodata        0x081c1548       0x10 C:\PROGRA~2\VT3_8920\VT3\RESOUR~1\targets\CANVIEW4\lib\vt3_common\libvt3_common.a(VT3_elog.o)
 .rodata        0x081c1558       0x10 C:\PROGRA~2\VT3_8920\VT3\RESOUR~1\targets\CANVIEW4\lib\lld\libCANView4.a(system_stm32f4xx.o)
                0x081c1558                AHBPrescTable
 .rodata        0x081c1568        0x8 C:\PROGRA~2\VT3_8920\VT3\RESOUR~1\targets\CANVIEW4\lib\lld\libCANView4.a(stm32f4xx_hal_dma.o)
 .rodata        0x081c1570       0x10 C:\PROGRA~2\VT3_8920\VT3\RESOUR~1\targets\CANVIEW4\lib\lld\libCANView4.a(stm32f4xx_hal_rcc.o)
                0x081c1570                APBAHBPrescTable
 .rodata        0x081c1580      0x200 C:\PROGRA~2\VT3_8920\VT3\RESOUR~1\targets\CANVIEW4\lib\lld\libCANView4.a(CRC16.o)
                0x081c1580                CRC16_table
 .rodata        0x081c1780     0x1400 C:\PROGRA~2\VT3_8920\VT3\RESOUR~1\targets\CANVIEW4\lib\lld\libCANView4.a(Camera.o)
 .rodata        0x081c2b80       0xf4 C:\PROGRA~2\VT3_8920\VT3\RESOUR~1\targets\CANVIEW4\lib\lld\libCANView4.a(CANView4_Event_Log.o)
 .rodata        0x081c2c74       0x29 C:\PROGRA~2\VT3_8920\VT3\RESOUR~1\targets\CANVIEW4\lib\lld\libCANView4.a(CANView4_Task_Manager.o)
 *fill*         0x081c2c9d        0x3 
 .rodata        0x081c2ca0       0xec C:\PROGRA~2\VT3_8920\VT3\RESOUR~1\targets\CANVIEW4\lib\lld\libCANView4.a(KWP2000_Light.o)
                0x081c2ca0                APP_SECTOR_START
                0x081c2cec                APP_SECTOR_SIZE
                0x081c2d38                FLASH_NUM_SECTOR_APP
                0x081c2d84                APP_BLOCK_START
                0x081c2d88                APP_BLOCK_SIZE
 .rodata        0x081c2d8c     0x3cdc C:\PROGRA~2\VT3_8920\VT3\RESOUR~1\targets\CANVIEW4\lib\lld\libCANView4.a(Display_lib.o)
                0x081c2d8c                Font8_Table
                0x081c3084                Font12_Table
                0x081c34f8                Font16_Table
                0x081c40d8                Font20_Table
                0x081c4fb0                Font24_Table
 .rodata        0x081c6a68       0x21 C:\PROGRA~2\VT3_8920\VT3\RESOUR~1\targets\CANVIEW4\lib\lld\libCANView4.a(MD5.o)
 *fill*         0x081c6a89        0x3 
 .rodata        0x081c6a8c      0x106 C:\PROGRA~2\VT3_8920\VT3\RESOUR~1\targets\CANVIEW4\lib\lld\libCANView4.a(ff.o)
 *fill*         0x081c6b92        0x2 
 .rodata        0x081c6b94        0x4 C:\PROGRA~2\VT3_8920\VT3\RESOUR~1\targets\CANVIEW4\lib\lld\libCANView4.a(heap_4.o)
 .rodata        0x081c6b98        0x4 C:\PROGRA~2\VT3_8920\VT3\RESOUR~1\targets\CANVIEW4\lib\lld\libCANView4.a(port.o)
 .rodata        0x081c6b9c        0x5 C:\PROGRA~2\VT3_8920\VT3\RESOUR~1\targets\CANVIEW4\lib\lld\libCANView4.a(tasks.o)
 *fill*         0x081c6ba1        0x3 
 .rodata        0x081c6ba4       0x28 C:\PROGRA~2\VT3_8920\VT3\RESOUR~1\targets\CANVIEW4\lib\lld\libCANView4.a(usbh_core.o)
 .rodata        0x081c6bcc      0x400 C:\PROGRA~2\VT3_8920\VT3\RESOUR~1\targets\CANVIEW4\lib\lld\libCANView4.a(CRC32.o)
                0x081c6bcc                CRC32_table
 .rodata        0x081c6fcc      0x4c0 C:\PROGRA~2\VT3_8920\VT3\RESOUR~1\targets\CANVIEW4\lib\lld\libCANView4.a(ccsbcs.o)
 .rodata        0x081c748c       0x14 C:\PROGRA~2\VT3_8920\VT3\RESOUR~1\targets\CANVIEW4\lib\lld\libCANView4.a(usbh_diskio.o)
                0x081c748c                USBH_Driver
 .rodata        0x081c74a0        0x4 C:\PROGRA~2\VT3_8920\VT3\RESOUR~1\targets\CANVIEW4\lib\lld\libCANView4.a(usbh_msc.o)
 *(.rodata*)
 .rodata.str1.4
                0x081c74a4        0x5 c:/program files (x86)/gnu tools arm embedded/5.2 2015q4/bin/../lib/gcc/arm-none-eabi/5.2.1/../../../../arm-none-eabi/lib/armv7e-m/fpu\libm.a(lib_a-w_acos.o)
                                  0x9 (size before relaxing)
 *fill*         0x081c74a9        0x3 
 .rodata.str1.4
                0x081c74ac        0x5 c:/program files (x86)/gnu tools arm embedded/5.2 2015q4/bin/../lib/gcc/arm-none-eabi/5.2.1/../../../../arm-none-eabi/lib/armv7e-m/fpu\libm.a(lib_a-w_asin.o)
                                  0x9 (size before relaxing)
 *fill*         0x081c74b1        0x3 
 .rodata.str1.4
                0x081c74b4        0x4 c:/program files (x86)/gnu tools arm embedded/5.2 2015q4/bin/../lib/gcc/arm-none-eabi/5.2.1/../../../../arm-none-eabi/lib/armv7e-m/fpu\libm.a(lib_a-w_pow.o)
 .rodata.str1.4
                0x081c74b8        0x5 c:/program files (x86)/gnu tools arm embedded/5.2 2015q4/bin/../lib/gcc/arm-none-eabi/5.2.1/../../../../arm-none-eabi/lib/armv7e-m/fpu\libm.a(lib_a-wf_exp.o)
 *fill*         0x081c74bd        0x3 
 .rodata.str1.4
                0x081c74c0        0x5 c:/program files (x86)/gnu tools arm embedded/5.2 2015q4/bin/../lib/gcc/arm-none-eabi/5.2.1/../../../../arm-none-eabi/lib/armv7e-m/fpu\libm.a(lib_a-wf_log.o)
                                  0x9 (size before relaxing)
 *fill*         0x081c74c5        0x3 
 .rodata.str1.4
                0x081c74c8        0x7 c:/program files (x86)/gnu tools arm embedded/5.2 2015q4/bin/../lib/gcc/arm-none-eabi/5.2.1/../../../../arm-none-eabi/lib/armv7e-m/fpu\libm.a(lib_a-wf_log10.o)
                                  0x9 (size before relaxing)
 *fill*         0x081c74cf        0x1 
 .rodata.str1.4
                0x081c74d0        0x5 c:/program files (x86)/gnu tools arm embedded/5.2 2015q4/bin/../lib/gcc/arm-none-eabi/5.2.1/../../../../arm-none-eabi/lib/armv7e-m/fpu\libm.a(lib_a-wf_pow.o)
 *fill*         0x081c74d5        0x3 
 .rodata.str1.4
                0x081c74d8        0x6 c:/program files (x86)/gnu tools arm embedded/5.2 2015q4/bin/../lib/gcc/arm-none-eabi/5.2.1/../../../../arm-none-eabi/lib/armv7e-m/fpu\libm.a(lib_a-wf_sqrt.o)
 .rodata.str1.4
                0x081c74de        0x1 c:/program files (x86)/gnu tools arm embedded/5.2 2015q4/bin/../lib/gcc/arm-none-eabi/5.2.1/../../../../arm-none-eabi/lib/armv7e-m/fpu\libm.a(lib_a-e_pow.o)
 *fill*         0x081c74de        0x2 
 .rodata.npio2_hw
                0x081c74e0       0x80 c:/program files (x86)/gnu tools arm embedded/5.2 2015q4/bin/../lib/gcc/arm-none-eabi/5.2.1/../../../../arm-none-eabi/lib/armv7e-m/fpu\libm.a(lib_a-e_rem_pio2.o)
 .rodata.two_over_pi
                0x081c7560      0x108 c:/program files (x86)/gnu tools arm embedded/5.2 2015q4/bin/../lib/gcc/arm-none-eabi/5.2.1/../../../../arm-none-eabi/lib/armv7e-m/fpu\libm.a(lib_a-e_rem_pio2.o)
 .rodata.halF   0x081c7668        0x8 c:/program files (x86)/gnu tools arm embedded/5.2 2015q4/bin/../lib/gcc/arm-none-eabi/5.2.1/../../../../arm-none-eabi/lib/armv7e-m/fpu\libm.a(lib_a-ef_exp.o)
 .rodata.ln2LO  0x081c7670        0x8 c:/program files (x86)/gnu tools arm embedded/5.2 2015q4/bin/../lib/gcc/arm-none-eabi/5.2.1/../../../../arm-none-eabi/lib/armv7e-m/fpu\libm.a(lib_a-ef_exp.o)
 .rodata.ln2HI  0x081c7678        0x8 c:/program files (x86)/gnu tools arm embedded/5.2 2015q4/bin/../lib/gcc/arm-none-eabi/5.2.1/../../../../arm-none-eabi/lib/armv7e-m/fpu\libm.a(lib_a-ef_exp.o)
 .rodata.str1.4
                0x081c7680        0x1 c:/program files (x86)/gnu tools arm embedded/5.2 2015q4/bin/../lib/gcc/arm-none-eabi/5.2.1/../../../../arm-none-eabi/lib/armv7e-m/fpu\libm.a(lib_a-ef_pow.o)
 .rodata.npio2_hw
                0x081c7680       0x80 c:/program files (x86)/gnu tools arm embedded/5.2 2015q4/bin/../lib/gcc/arm-none-eabi/5.2.1/../../../../arm-none-eabi/lib/armv7e-m/fpu\libm.a(lib_a-ef_rem_pio2.o)
 .rodata.two_over_pi
                0x081c7700      0x318 c:/program files (x86)/gnu tools arm embedded/5.2 2015q4/bin/../lib/gcc/arm-none-eabi/5.2.1/../../../../arm-none-eabi/lib/armv7e-m/fpu\libm.a(lib_a-ef_rem_pio2.o)
 .rodata.init_jk
                0x081c7a18       0x10 c:/program files (x86)/gnu tools arm embedded/5.2 2015q4/bin/../lib/gcc/arm-none-eabi/5.2.1/../../../../arm-none-eabi/lib/armv7e-m/fpu\libm.a(lib_a-k_rem_pio2.o)
 .rodata.PIo2   0x081c7a28       0x40 c:/program files (x86)/gnu tools arm embedded/5.2 2015q4/bin/../lib/gcc/arm-none-eabi/5.2.1/../../../../arm-none-eabi/lib/armv7e-m/fpu\libm.a(lib_a-k_rem_pio2.o)
 .rodata.init_jk
                0x081c7a68        0xc c:/program files (x86)/gnu tools arm embedded/5.2 2015q4/bin/../lib/gcc/arm-none-eabi/5.2.1/../../../../arm-none-eabi/lib/armv7e-m/fpu\libm.a(lib_a-kf_rem_pio2.o)
 .rodata.PIo2   0x081c7a74       0x2c c:/program files (x86)/gnu tools arm embedded/5.2 2015q4/bin/../lib/gcc/arm-none-eabi/5.2.1/../../../../arm-none-eabi/lib/armv7e-m/fpu\libm.a(lib_a-kf_rem_pio2.o)
 .rodata.TWO52  0x081c7aa0       0x10 c:/program files (x86)/gnu tools arm embedded/5.2 2015q4/bin/../lib/gcc/arm-none-eabi/5.2.1/../../../../arm-none-eabi/lib/armv7e-m/fpu\libm.a(lib_a-s_rint.o)
 .rodata.str1.4
                0x081c7ab0        0x2 c:/program files (x86)/gnu tools arm embedded/5.2 2015q4/bin/../lib/gcc/arm-none-eabi/5.2.1/../../../../arm-none-eabi/lib/armv7e-m/fpu\libc.a(lib_a-impure.o)
 *fill*         0x081c7ab2        0x2 
 .rodata._global_impure_ptr
                0x081c7ab4        0x4 c:/program files (x86)/gnu tools arm embedded/5.2 2015q4/bin/../lib/gcc/arm-none-eabi/5.2.1/../../../../arm-none-eabi/lib/armv7e-m/fpu\libc.a(lib_a-impure.o)
                0x081c7ab4                _global_impure_ptr
 .rodata.fpinan.5401
                0x081c7ab8       0x14 c:/program files (x86)/gnu tools arm embedded/5.2 2015q4/bin/../lib/gcc/arm-none-eabi/5.2.1/../../../../arm-none-eabi/lib/armv7e-m/fpu\libc.a(lib_a-strtod.o)
 .rodata.fpi.5365
                0x081c7acc       0x14 c:/program files (x86)/gnu tools arm embedded/5.2 2015q4/bin/../lib/gcc/arm-none-eabi/5.2.1/../../../../arm-none-eabi/lib/armv7e-m/fpu\libc.a(lib_a-strtod.o)
 .rodata.str1.4
                0x081c7ae0        0xf c:/program files (x86)/gnu tools arm embedded/5.2 2015q4/bin/../lib/gcc/arm-none-eabi/5.2.1/../../../../arm-none-eabi/lib/armv7e-m/fpu\libc.a(lib_a-strtod.o)
 *fill*         0x081c7aef        0x1 
 .rodata.tinytens
                0x081c7af0       0x28 c:/program files (x86)/gnu tools arm embedded/5.2 2015q4/bin/../lib/gcc/arm-none-eabi/5.2.1/../../../../arm-none-eabi/lib/armv7e-m/fpu\libc.a(lib_a-strtod.o)
 .rodata.blanks.7009
                0x081c7b18       0x10 c:/program files (x86)/gnu tools arm embedded/5.2 2015q4/bin/../lib/gcc/arm-none-eabi/5.2.1/../../../../arm-none-eabi/lib/armv7e-m/fpu\libc.a(lib_a-svfprintf.o)
 .rodata.str1.4
                0x081c7b28       0x42 c:/program files (x86)/gnu tools arm embedded/5.2 2015q4/bin/../lib/gcc/arm-none-eabi/5.2.1/../../../../arm-none-eabi/lib/armv7e-m/fpu\libc.a(lib_a-svfprintf.o)
 *fill*         0x081c7b6a        0x2 
 .rodata.zeroes.7010
                0x081c7b6c       0x10 c:/program files (x86)/gnu tools arm embedded/5.2 2015q4/bin/../lib/gcc/arm-none-eabi/5.2.1/../../../../arm-none-eabi/lib/armv7e-m/fpu\libc.a(lib_a-svfprintf.o)
 .rodata.zeroes.7025
                0x081c7b7c       0x10 c:/program files (x86)/gnu tools arm embedded/5.2 2015q4/bin/../lib/gcc/arm-none-eabi/5.2.1/../../../../arm-none-eabi/lib/armv7e-m/fpu\libc.a(lib_a-vfprintf.o)
 .rodata.blanks.7024
                0x081c7b8c       0x10 c:/program files (x86)/gnu tools arm embedded/5.2 2015q4/bin/../lib/gcc/arm-none-eabi/5.2.1/../../../../arm-none-eabi/lib/armv7e-m/fpu\libc.a(lib_a-vfprintf.o)
 .rodata.str1.4
                0x081c7b9c       0x42 c:/program files (x86)/gnu tools arm embedded/5.2 2015q4/bin/../lib/gcc/arm-none-eabi/5.2.1/../../../../arm-none-eabi/lib/armv7e-m/fpu\libc.a(lib_a-vfprintf.o)
 .rodata._ctype_
                0x081c7b9c      0x101 c:/program files (x86)/gnu tools arm embedded/5.2 2015q4/bin/../lib/gcc/arm-none-eabi/5.2.1/../../../../arm-none-eabi/lib/armv7e-m/fpu\libc.a(lib_a-ctype_.o)
                0x081c7b9c                _ctype_
 *fill*         0x081c7c9d        0x3 
 .rodata.str1.4
                0x081c7ca0       0x10 c:/program files (x86)/gnu tools arm embedded/5.2 2015q4/bin/../lib/gcc/arm-none-eabi/5.2.1/../../../../arm-none-eabi/lib/armv7e-m/fpu\libc.a(lib_a-dtoa.o)
                                 0x12 (size before relaxing)
 .rodata.__hexdig
                0x081c7cb0      0x100 c:/program files (x86)/gnu tools arm embedded/5.2 2015q4/bin/../lib/gcc/arm-none-eabi/5.2.1/../../../../arm-none-eabi/lib/armv7e-m/fpu\libc.a(lib_a-gdtoa-gethex.o)
                0x081c7cb0                __hexdig
 .rodata.str1.4
                0x081c7db0        0xc c:/program files (x86)/gnu tools arm embedded/5.2 2015q4/bin/../lib/gcc/arm-none-eabi/5.2.1/../../../../arm-none-eabi/lib/armv7e-m/fpu\libc.a(lib_a-locale.o)
                                 0x12 (size before relaxing)
 .rodata.p05.5404
                0x081c7dbc        0xc c:/program files (x86)/gnu tools arm embedded/5.2 2015q4/bin/../lib/gcc/arm-none-eabi/5.2.1/../../../../arm-none-eabi/lib/armv7e-m/fpu\libc.a(lib_a-mprec.o)
 .rodata.__mprec_tens
                0x081c7dc8       0xc8 c:/program files (x86)/gnu tools arm embedded/5.2 2015q4/bin/../lib/gcc/arm-none-eabi/5.2.1/../../../../arm-none-eabi/lib/armv7e-m/fpu\libc.a(lib_a-mprec.o)
                0x081c7dc8                __mprec_tens
 .rodata.__mprec_bigtens
                0x081c7e90       0x28 c:/program files (x86)/gnu tools arm embedded/5.2 2015q4/bin/../lib/gcc/arm-none-eabi/5.2.1/../../../../arm-none-eabi/lib/armv7e-m/fpu\libc.a(lib_a-mprec.o)
                0x081c7e90                __mprec_bigtens
 .rodata.__mprec_tinytens
                0x081c7eb8       0x28 c:/program files (x86)/gnu tools arm embedded/5.2 2015q4/bin/../lib/gcc/arm-none-eabi/5.2.1/../../../../arm-none-eabi/lib/armv7e-m/fpu\libc.a(lib_a-mprec.o)
                0x081c7eb8                __mprec_tinytens
 .rodata.blanks.6953
                0x081c7ee0       0x10 c:/program files (x86)/gnu tools arm embedded/5.2 2015q4/bin/../lib/gcc/arm-none-eabi/5.2.1/../../../../arm-none-eabi/lib/armv7e-m/fpu\libc.a(lib_a-svfiprintf.o)
 .rodata.str1.4
                0x081c7ef0       0x2f c:/program files (x86)/gnu tools arm embedded/5.2 2015q4/bin/../lib/gcc/arm-none-eabi/5.2.1/../../../../arm-none-eabi/lib/armv7e-m/fpu\libc.a(lib_a-svfiprintf.o)
 .rodata.zeroes.6954
                0x081c7ef0       0x10 c:/program files (x86)/gnu tools arm embedded/5.2 2015q4/bin/../lib/gcc/arm-none-eabi/5.2.1/../../../../arm-none-eabi/lib/armv7e-m/fpu\libc.a(lib_a-svfiprintf.o)
 .rodata.zeroes.6968
                0x081c7f00       0x10 c:/program files (x86)/gnu tools arm embedded/5.2 2015q4/bin/../lib/gcc/arm-none-eabi/5.2.1/../../../../arm-none-eabi/lib/armv7e-m/fpu\libc.a(lib_a-vfiprintf.o)
 .rodata.blanks.6967
                0x081c7f10       0x10 c:/program files (x86)/gnu tools arm embedded/5.2 2015q4/bin/../lib/gcc/arm-none-eabi/5.2.1/../../../../arm-none-eabi/lib/armv7e-m/fpu\libc.a(lib_a-vfiprintf.o)
 .rodata.str1.4
                0x081c7f20       0x2f c:/program files (x86)/gnu tools arm embedded/5.2 2015q4/bin/../lib/gcc/arm-none-eabi/5.2.1/../../../../arm-none-eabi/lib/armv7e-m/fpu\libc.a(lib_a-vfiprintf.o)
                0x081c7f50                . = ALIGN (0x4)

.img_vector     0xc0400000    0x745b0
                0xc0400000                . = ALIGN (0x4)
 *(.img_vector)
 .img_vector    0xc0400000    0x745b0 vt3_code/vt3_images.c.o
                0xc0400000                vt3_BMP__Henkel460X259_0_0_argb8888
 *(.img_vector*)
                0xc04745b0                . = ALIGN (0x4)

.ARM.extab      0x081c7f20        0x0 load address 0xc04745b0
 *(.ARM.extab* .gnu.linkonce.armextab.*)
 .ARM.extab     0x081c7f20        0x0 c:/program files (x86)/gnu tools arm embedded/5.2 2015q4/bin/../lib/gcc/arm-none-eabi/5.2.1/../../../../arm-none-eabi/lib/armv7e-m/fpu/crt0.o
 .ARM.extab     0x081c7f20        0x0 c:/program files (x86)/gnu tools arm embedded/5.2 2015q4/bin/../lib/gcc/arm-none-eabi/5.2.1/armv7e-m/fpu\libgcc.a(_udivmoddi4.o)

.ARM            0x081c7f20        0x8
                0x081c7f20                __exidx_start = .
 *(.ARM.exidx*)
 .ARM.exidx     0x081c7f20        0x8 c:/program files (x86)/gnu tools arm embedded/5.2 2015q4/bin/../lib/gcc/arm-none-eabi/5.2.1/../../../../arm-none-eabi/lib/armv7e-m/fpu/crt0.o
 .ARM.exidx     0x081c7f28        0x0 c:/program files (x86)/gnu tools arm embedded/5.2 2015q4/bin/../lib/gcc/arm-none-eabi/5.2.1/armv7e-m/fpu\libgcc.a(_udivmoddi4.o)
                                  0x8 (size before relaxing)
                0x081c7f28                __exidx_end = .

.rel.dyn        0x081c7f28        0x0
 .rel.iplt      0x081c7f28        0x0 c:/program files (x86)/gnu tools arm embedded/5.2 2015q4/bin/../lib/gcc/arm-none-eabi/5.2.1/armv7e-m/fpu/crtbegin.o

.preinit_array  0x081c7f28        0x0
                0x081c7f28                PROVIDE (__preinit_array_start, .)
 *(.preinit_array*)
                0x081c7f28                PROVIDE (__preinit_array_end, .)

.init_array     0x081c7f28        0x8
                0x081c7f28                PROVIDE (__init_array_start, .)
 *(SORT(.init_array.*))
 .init_array.00000
                0x081c7f28        0x4 c:/program files (x86)/gnu tools arm embedded/5.2 2015q4/bin/../lib/gcc/arm-none-eabi/5.2.1/../../../../arm-none-eabi/lib/armv7e-m/fpu\libc.a(lib_a-__call_atexit.o)
 *(.init_array*)
 .init_array    0x081c7f2c        0x4 c:/program files (x86)/gnu tools arm embedded/5.2 2015q4/bin/../lib/gcc/arm-none-eabi/5.2.1/armv7e-m/fpu/crtbegin.o
                0x081c7f30                PROVIDE (__init_array_end, .)

.fini_array     0x081c7f30        0x4
                0x081c7f30                PROVIDE (__fini_array_start, .)
 *(SORT(.fini_array.*))
 *(.fini_array*)
 .fini_array    0x081c7f30        0x4 c:/program files (x86)/gnu tools arm embedded/5.2 2015q4/bin/../lib/gcc/arm-none-eabi/5.2.1/armv7e-m/fpu/crtbegin.o
                0x081c7f34                PROVIDE (__fini_array_end, .)
                0x081c7f34                _sidata = LOADADDR (.data)

.data           0x20000010      0x998 load address 0x081c7f34
                0x20000010                . = ALIGN (0x4)
                0x20000010                _sdata = .
 *(.data)
 .data          0x20000010        0x0 c:/program files (x86)/gnu tools arm embedded/5.2 2015q4/bin/../lib/gcc/arm-none-eabi/5.2.1/armv7e-m/fpu/crti.o
 .data          0x20000010        0x4 c:/program files (x86)/gnu tools arm embedded/5.2 2015q4/bin/../lib/gcc/arm-none-eabi/5.2.1/armv7e-m/fpu/crtbegin.o
                0x20000010                __dso_handle
 .data          0x20000014        0x0 c:/program files (x86)/gnu tools arm embedded/5.2 2015q4/bin/../lib/gcc/arm-none-eabi/5.2.1/../../../../arm-none-eabi/lib/armv7e-m/fpu/crt0.o
 .data          0x20000014        0x0 C:\PROGRA~2\VT3_8920\VT3\RESOUR~1\targets\CANVIEW4\lib\\lld\sysmem.o
 .data          0x20000014        0x0 vt3_code/vt3_lang.c.o
 .data          0x20000014        0x0 vt3_code/vt3_IO.c.o
 .data          0x20000014        0x2 vt3_code/vt3_disp.c.o
                0x20000014                vt3_current_screen
 .data          0x20000016        0x0 vt3_code/vt3_disp_events.c.o
 .data          0x20000016       0x10 vt3_code/vt3_alarms.c.o
                0x20000016                _IDS_ALARM_QUICK_SET
                0x20000018                _IDS_ALARM_QUICK_RTN
                0x2000001a                _IDS_ALARM_QUICK_ACK
                0x2000001c                _IDS_ALARM_LOG_NORMAL
                0x2000001e                _IDS_ALARM_LOG_SET_NACK
                0x20000020                _IDS_ALARM_LOG_RTN_NACK
                0x20000022                _IDS_ALARM_LOG_SET_ACK
                0x20000024                _IDS_ALARM_LOG_CRC_ERROR
 .data          0x20000026        0x0 vt3_code/vt3_signature.c.o
 .data          0x20000026        0x0 vt3_code/vt3_images.c.o
 .data          0x20000026        0x0 vt3_code/vt3_Font__RobotoBold36.c.o
 .data          0x20000026        0x0 vt3_code/vt3_Font__RobotoBold49.c.o
 .data          0x20000026        0x0 vt3_code/vt3_POU__MAIN.c.o
 .data          0x20000026        0x0 vt3_code/vt3_POU__global_data.c.o
 .data          0x20000026        0x0 vt3_code/vt3_POU__key_data.c.o
 .data          0x20000026        0x0 vt3_code/vt3_POU_common.c.o
 .data          0x20000026        0x0 vt3_code/vt3_vars.c.o
 .data          0x20000026        0x0 vt3_code/vt3_var_version.c.o
 .data          0x20000026        0x0 vt3_code/vt3_init_persistent_p_array.c.o
 .data          0x20000026        0x0 vt3_code/vt3_init_persistent_r_array.c.o
 .data          0x20000026        0x0 vt3_code/vt3_init_persistent_f_array.c.o
 .data          0x20000026        0x0 vt3_code/vt3_CAN__CanInterface.c.o
 *fill*         0x20000026        0x2 
 .data          0x20000028       0x1c vt3_code/vt3_CAN_common.c.o
                0x20000028                j1939_MultiPacket
                0x20000038                vt3_tx_cobid_list
                0x20000040                vt3_rx_cobid_list
 .data          0x20000044        0x0 extra/vt3_extra.c.o
 .data          0x20000044        0x0 __OBJE~1/vt3_extra.c.o
 .data          0x20000044        0x0 __OBJE~1/vt3_POU__closeUSB.c.o
 .data          0x20000044        0x0 __OBJE~1/vt3_POU__DATA_ARRAY_255.c.o
 .data          0x20000044        0x0 __OBJE~1/vt3_POU__DATA_ARRAY_50.c.o
 .data          0x20000044        0x0 __OBJE~1/vt3_POU__ENUM_KEY_MODE.c.o
 .data          0x20000044        0x0 __OBJE~1/vt3_POU__ENUM_MODE_ERR.c.o
 .data          0x20000044        0x0 __OBJE~1/vt3_POU__ENUM_OPEN_FILE.c.o
 .data          0x20000044        0x0 __OBJE~1/vt3_POU__ENUM_PARITY.c.o
 .data          0x20000044        0x0 __OBJE~1/vt3_POU__ENUM_UART_ERR.c.o
 .data          0x20000044        0x0 __OBJE~1/vt3_POU__ENUM_UPDATE.c.o
 .data          0x20000044        0x0 __OBJE~1/vt3_POU__ENUM_USB_ERR.c.o
 .data          0x20000044        0x0 __OBJE~1/vt3_POU__ForceUpdate.c.o
 .data          0x20000044        0x0 __OBJE~1/vt3_POU__initCOM.c.o
 .data          0x20000044        0x0 __OBJE~1/vt3_POU__mountUSB.c.o
 .data          0x20000044        0x0 __OBJE~1/vt3_POU__openUSB.c.o
 .data          0x20000044        0x0 __OBJE~1/vt3_POU__PowerOff.c.o
 .data          0x20000044        0x0 __OBJE~1/vt3_POU__readByteCOM.c.o
 .data          0x20000044        0x0 __OBJE~1/vt3_POU__readStringCOM.c.o
 .data          0x20000044        0x0 __OBJE~1/vt3_POU__readStringUSB.c.o
 .data          0x20000044        0x0 __OBJE~1/vt3_POU__resetBufferCOM.c.o
 .data          0x20000044        0x0 __OBJE~1/vt3_POU__SetKeyMode.c.o
 .data          0x20000044        0x0 __OBJE~1/vt3_POU__umountUSB.c.o
 .data          0x20000044        0x0 __OBJE~1/vt3_POU__writeByteCOM.c.o
 .data          0x20000044        0x0 __OBJE~1/vt3_POU__writeElogUSB.c.o
 .data          0x20000044        0x0 __OBJE~1/vt3_POU__writeStringCOM.c.o
 .data          0x20000044        0x0 __OBJE~1/vt3_POU__writeStringUSB.c.o
 .data          0x20000044        0x0 C:\PROGRA~2\VT3_8920\VT3\RESOUR~1\targets\CANVIEW4\lib\vt3_runtime\libvt3_runtime.a(VT3_Main.o)
 .data          0x20000044        0x0 C:\PROGRA~2\VT3_8920\VT3\RESOUR~1\targets\CANVIEW4\lib\vt3_runtime\libvt3_runtime.a(VT3_Runtime.o)
 .data          0x20000044        0x0 C:\PROGRA~2\VT3_8920\VT3\RESOUR~1\targets\CANVIEW4\lib\vt3_runtime\libvt3_runtime.a(VT3_Cycle100.o)
 .data          0x20000044        0x0 C:\PROGRA~2\VT3_8920\VT3\RESOUR~1\targets\CANVIEW4\lib\vt3_runtime\libvt3_runtime.a(VT3_Cycle20.o)
 .data          0x20000044        0x4 C:\PROGRA~2\VT3_8920\VT3\RESOUR~1\targets\CANVIEW4\lib\vt3_common\libvt3_common.a(IEC_Lib.o)
 .data          0x20000048        0x2 C:\PROGRA~2\VT3_8920\VT3\RESOUR~1\targets\CANVIEW4\lib\vt3_common\libvt3_common.a(VT3_CAN_debug.o)
 .data          0x2000004a        0x2 C:\PROGRA~2\VT3_8920\VT3\RESOUR~1\targets\CANVIEW4\lib\vt3_common\libvt3_common.a(VT3_Draw.o)
                0x2000004a                vt3_old_language
 .data          0x2000004c        0x0 C:\PROGRA~2\VT3_8920\VT3\RESOUR~1\targets\CANVIEW4\lib\vt3_common\libvt3_common.a(VT3_Runtime_Common.o)
 .data          0x2000004c        0x0 C:\PROGRA~2\VT3_8920\VT3\RESOUR~1\targets\CANVIEW4\lib\vt3_common\libvt3_common.a(VT3_elog.o)
 .data          0x2000004c        0x0 C:\PROGRA~2\VT3_8920\VT3\RESOUR~1\targets\CANVIEW4\lib\lld\libCANView4.a(startup_stm32f429xx.o)
 .data          0x2000004c        0x0 C:\PROGRA~2\VT3_8920\VT3\RESOUR~1\targets\CANVIEW4\lib\lld\libCANView4.a(stm32f4xx_it.o)
 .data          0x2000004c        0x0 C:\PROGRA~2\VT3_8920\VT3\RESOUR~1\targets\CANVIEW4\lib\lld\libCANView4.a(usbh_conf.o)
 .data          0x2000004c        0x4 C:\PROGRA~2\VT3_8920\VT3\RESOUR~1\targets\CANVIEW4\lib\lld\libCANView4.a(system_stm32f4xx.o)
                0x2000004c                SystemCoreClock
 .data          0x20000050        0x0 C:\PROGRA~2\VT3_8920\VT3\RESOUR~1\targets\CANVIEW4\lib\lld\libCANView4.a(stm32f4xx_hal.o)
 .data          0x20000050        0x0 C:\PROGRA~2\VT3_8920\VT3\RESOUR~1\targets\CANVIEW4\lib\lld\libCANView4.a(stm32f4xx_hal_cortex.o)
 .data          0x20000050        0x0 C:\PROGRA~2\VT3_8920\VT3\RESOUR~1\targets\CANVIEW4\lib\lld\libCANView4.a(stm32f4xx_hal_dcmi.o)
 .data          0x20000050        0x0 C:\PROGRA~2\VT3_8920\VT3\RESOUR~1\targets\CANVIEW4\lib\lld\libCANView4.a(stm32f4xx_hal_dma.o)
 .data          0x20000050        0x0 C:\PROGRA~2\VT3_8920\VT3\RESOUR~1\targets\CANVIEW4\lib\lld\libCANView4.a(stm32f4xx_hal_dma_ex.o)
 .data          0x20000050        0x0 C:\PROGRA~2\VT3_8920\VT3\RESOUR~1\targets\CANVIEW4\lib\lld\libCANView4.a(stm32f4xx_hal_gpio.o)
 .data          0x20000050        0x0 C:\PROGRA~2\VT3_8920\VT3\RESOUR~1\targets\CANVIEW4\lib\lld\libCANView4.a(stm32f4xx_hal_hcd.o)
 .data          0x20000050        0x0 C:\PROGRA~2\VT3_8920\VT3\RESOUR~1\targets\CANVIEW4\lib\lld\libCANView4.a(stm32f4xx_hal_rcc.o)
 .data          0x20000050        0x0 C:\PROGRA~2\VT3_8920\VT3\RESOUR~1\targets\CANVIEW4\lib\lld\libCANView4.a(stm32f4xx_hal_tim.o)
 .data          0x20000050        0x0 C:\PROGRA~2\VT3_8920\VT3\RESOUR~1\targets\CANVIEW4\lib\lld\libCANView4.a(stm32f4xx_hal_tim_ex.o)
 .data          0x20000050        0x0 C:\PROGRA~2\VT3_8920\VT3\RESOUR~1\targets\CANVIEW4\lib\lld\libCANView4.a(stm32f4xx_hal_uart.o)
 .data          0x20000050        0x0 C:\PROGRA~2\VT3_8920\VT3\RESOUR~1\targets\CANVIEW4\lib\lld\libCANView4.a(stm32f4xx_ll_usb.o)
 .data          0x20000050        0x0 C:\PROGRA~2\VT3_8920\VT3\RESOUR~1\targets\CANVIEW4\lib\lld\libCANView4.a(CRC16.o)
 .data          0x20000050        0x0 C:\PROGRA~2\VT3_8920\VT3\RESOUR~1\targets\CANVIEW4\lib\lld\libCANView4.a(Camera.o)
 .data          0x20000050        0x0 C:\PROGRA~2\VT3_8920\VT3\RESOUR~1\targets\CANVIEW4\lib\lld\libCANView4.a(CANView4_Event_Log.o)
 .data          0x20000050        0x0 C:\PROGRA~2\VT3_8920\VT3\RESOUR~1\targets\CANVIEW4\lib\lld\libCANView4.a(CANView4_HW_lib.o)
 .data          0x20000050        0x0 C:\PROGRA~2\VT3_8920\VT3\RESOUR~1\targets\CANVIEW4\lib\lld\libCANView4.a(CANView4_Mem_EEPROM.o)
 .data          0x20000050        0x0 C:\PROGRA~2\VT3_8920\VT3\RESOUR~1\targets\CANVIEW4\lib\lld\libCANView4.a(CANView4_Mem_EXT_FLASH.o)
 .data          0x20000050        0x0 C:\PROGRA~2\VT3_8920\VT3\RESOUR~1\targets\CANVIEW4\lib\lld\libCANView4.a(CANView4_Node.o)
 .data          0x20000050        0x0 C:\PROGRA~2\VT3_8920\VT3\RESOUR~1\targets\CANVIEW4\lib\lld\libCANView4.a(CANView4_STM_periphs_lib.o)
 .data          0x20000050        0x0 C:\PROGRA~2\VT3_8920\VT3\RESOUR~1\targets\CANVIEW4\lib\lld\libCANView4.a(CANView4_Task_Manager.o)
 .data          0x20000050        0x2 C:\PROGRA~2\VT3_8920\VT3\RESOUR~1\targets\CANVIEW4\lib\lld\libCANView4.a(KWP2000_Light.o)
                0x20000050                m_ProtSt
 .data          0x20000052        0x0 C:\PROGRA~2\VT3_8920\VT3\RESOUR~1\targets\CANVIEW4\lib\lld\libCANView4.a(Virtual_TIMs.o)
 .data          0x20000052        0x0 C:\PROGRA~2\VT3_8920\VT3\RESOUR~1\targets\CANVIEW4\lib\lld\libCANView4.a(Display_Utilities.o)
 *fill*         0x20000052        0x2 
 .data          0x20000054       0x28 C:\PROGRA~2\VT3_8920\VT3\RESOUR~1\targets\CANVIEW4\lib\lld\libCANView4.a(Display_lib.o)
                0x20000054                Font24
                0x2000005c                Font8
                0x20000064                Font12
                0x2000006c                Font16
                0x20000074                Font20
 .data          0x2000007c        0x0 C:\PROGRA~2\VT3_8920\VT3\RESOUR~1\targets\CANVIEW4\lib\lld\libCANView4.a(eeprom.o)
 .data          0x2000007c        0x0 C:\PROGRA~2\VT3_8920\VT3\RESOUR~1\targets\CANVIEW4\lib\lld\libCANView4.a(Spansion_128Mb.o)
 .data          0x2000007c        0x0 C:\PROGRA~2\VT3_8920\VT3\RESOUR~1\targets\CANVIEW4\lib\lld\libCANView4.a(CAN.o)
 .data          0x2000007c        0x0 C:\PROGRA~2\VT3_8920\VT3\RESOUR~1\targets\CANVIEW4\lib\lld\libCANView4.a(Generic_IO.o)
 .data          0x2000007c        0x0 C:\PROGRA~2\VT3_8920\VT3\RESOUR~1\targets\CANVIEW4\lib\lld\libCANView4.a(RS232.o)
 .data          0x2000007c       0x40 C:\PROGRA~2\VT3_8920\VT3\RESOUR~1\targets\CANVIEW4\lib\lld\libCANView4.a(MD5.o)
 .data          0x200000bc        0x0 C:\PROGRA~2\VT3_8920\VT3\RESOUR~1\targets\CANVIEW4\lib\lld\libCANView4.a(RTC.o)
 .data          0x200000bc        0x0 C:\PROGRA~2\VT3_8920\VT3\RESOUR~1\targets\CANVIEW4\lib\lld\libCANView4.a(CANView4_Mem_RTC.o)
 .data          0x200000bc        0x0 C:\PROGRA~2\VT3_8920\VT3\RESOUR~1\targets\CANVIEW4\lib\lld\libCANView4.a(TVP5150.o)
 .data          0x200000bc        0x0 C:\PROGRA~2\VT3_8920\VT3\RESOUR~1\targets\CANVIEW4\lib\lld\libCANView4.a(USB_Utilities.o)
 .data          0x200000bc        0x0 C:\PROGRA~2\VT3_8920\VT3\RESOUR~1\targets\CANVIEW4\lib\lld\libCANView4.a(Utilities.o)
 .data          0x200000bc        0x0 C:\PROGRA~2\VT3_8920\VT3\RESOUR~1\targets\CANVIEW4\lib\lld\libCANView4.a(ff.o)
 .data          0x200000bc        0x0 C:\PROGRA~2\VT3_8920\VT3\RESOUR~1\targets\CANVIEW4\lib\lld\libCANView4.a(cmsis_os.o)
 .data          0x200000bc        0x0 C:\PROGRA~2\VT3_8920\VT3\RESOUR~1\targets\CANVIEW4\lib\lld\libCANView4.a(heap_4.o)
 .data          0x200000bc        0x4 C:\PROGRA~2\VT3_8920\VT3\RESOUR~1\targets\CANVIEW4\lib\lld\libCANView4.a(port.o)
 .data          0x200000c0        0x0 C:\PROGRA~2\VT3_8920\VT3\RESOUR~1\targets\CANVIEW4\lib\lld\libCANView4.a(queue.o)
 .data          0x200000c0        0x4 C:\PROGRA~2\VT3_8920\VT3\RESOUR~1\targets\CANVIEW4\lib\lld\libCANView4.a(tasks.o)
 .data          0x200000c4        0x0 C:\PROGRA~2\VT3_8920\VT3\RESOUR~1\targets\CANVIEW4\lib\lld\libCANView4.a(usbh_core.o)
 .data          0x200000c4        0x0 C:\PROGRA~2\VT3_8920\VT3\RESOUR~1\targets\CANVIEW4\lib\lld\libCANView4.a(usbh_ctlreq.o)
 .data          0x200000c4        0x0 C:\PROGRA~2\VT3_8920\VT3\RESOUR~1\targets\CANVIEW4\lib\lld\libCANView4.a(usbh_ioreq.o)
 .data          0x200000c4        0x0 C:\PROGRA~2\VT3_8920\VT3\RESOUR~1\targets\CANVIEW4\lib\lld\libCANView4.a(usbh_pipes.o)
 .data          0x200000c4        0x0 C:\PROGRA~2\VT3_8920\VT3\RESOUR~1\targets\CANVIEW4\lib\lld\libCANView4.a(fatfs.o)
 .data          0x200000c4        0x0 C:\PROGRA~2\VT3_8920\VT3\RESOUR~1\targets\CANVIEW4\lib\lld\libCANView4.a(stm32f4xx_hal_msp.o)
 .data          0x200000c4        0x0 C:\PROGRA~2\VT3_8920\VT3\RESOUR~1\targets\CANVIEW4\lib\lld\libCANView4.a(usb_host.o)
 .data          0x200000c4        0x0 C:\PROGRA~2\VT3_8920\VT3\RESOUR~1\targets\CANVIEW4\lib\lld\libCANView4.a(stm32f4xx_hal_adc.o)
 .data          0x200000c4        0x0 C:\PROGRA~2\VT3_8920\VT3\RESOUR~1\targets\CANVIEW4\lib\lld\libCANView4.a(stm32f4xx_hal_adc_ex.o)
 .data          0x200000c4        0x0 C:\PROGRA~2\VT3_8920\VT3\RESOUR~1\targets\CANVIEW4\lib\lld\libCANView4.a(stm32f4xx_hal_can.o)
 .data          0x200000c4        0x0 C:\PROGRA~2\VT3_8920\VT3\RESOUR~1\targets\CANVIEW4\lib\lld\libCANView4.a(stm32f4xx_hal_dma2d.o)
 .data          0x200000c4        0x0 C:\PROGRA~2\VT3_8920\VT3\RESOUR~1\targets\CANVIEW4\lib\lld\libCANView4.a(stm32f4xx_hal_flash.o)
 .data          0x200000c4        0x0 C:\PROGRA~2\VT3_8920\VT3\RESOUR~1\targets\CANVIEW4\lib\lld\libCANView4.a(stm32f4xx_hal_flash_ex.o)
 .data          0x200000c4        0x0 C:\PROGRA~2\VT3_8920\VT3\RESOUR~1\targets\CANVIEW4\lib\lld\libCANView4.a(stm32f4xx_hal_i2c.o)
 .data          0x200000c4        0x0 C:\PROGRA~2\VT3_8920\VT3\RESOUR~1\targets\CANVIEW4\lib\lld\libCANView4.a(stm32f4xx_hal_ltdc.o)
 .data          0x200000c4        0x0 C:\PROGRA~2\VT3_8920\VT3\RESOUR~1\targets\CANVIEW4\lib\lld\libCANView4.a(stm32f4xx_hal_pwr.o)
 .data          0x200000c4        0x0 C:\PROGRA~2\VT3_8920\VT3\RESOUR~1\targets\CANVIEW4\lib\lld\libCANView4.a(stm32f4xx_hal_pwr_ex.o)
 .data          0x200000c4        0x0 C:\PROGRA~2\VT3_8920\VT3\RESOUR~1\targets\CANVIEW4\lib\lld\libCANView4.a(stm32f4xx_hal_rcc_ex.o)
 .data          0x200000c4        0x0 C:\PROGRA~2\VT3_8920\VT3\RESOUR~1\targets\CANVIEW4\lib\lld\libCANView4.a(stm32f4xx_hal_rtc.o)
 .data          0x200000c4        0x0 C:\PROGRA~2\VT3_8920\VT3\RESOUR~1\targets\CANVIEW4\lib\lld\libCANView4.a(stm32f4xx_hal_rtc_ex.o)
 .data          0x200000c4        0x0 C:\PROGRA~2\VT3_8920\VT3\RESOUR~1\targets\CANVIEW4\lib\lld\libCANView4.a(stm32f4xx_hal_sdram.o)
 .data          0x200000c4        0x0 C:\PROGRA~2\VT3_8920\VT3\RESOUR~1\targets\CANVIEW4\lib\lld\libCANView4.a(stm32f4xx_hal_spi.o)
 .data          0x200000c4        0x0 C:\PROGRA~2\VT3_8920\VT3\RESOUR~1\targets\CANVIEW4\lib\lld\libCANView4.a(stm32f4xx_ll_fmc.o)
 .data          0x200000c4        0x0 C:\PROGRA~2\VT3_8920\VT3\RESOUR~1\targets\CANVIEW4\lib\lld\libCANView4.a(CRC32.o)
 .data          0x200000c4        0x0 C:\PROGRA~2\VT3_8920\VT3\RESOUR~1\targets\CANVIEW4\lib\lld\libCANView4.a(ccsbcs.o)
 .data          0x200000c4        0x0 C:\PROGRA~2\VT3_8920\VT3\RESOUR~1\targets\CANVIEW4\lib\lld\libCANView4.a(diskio.o)
 .data          0x200000c4        0x0 C:\PROGRA~2\VT3_8920\VT3\RESOUR~1\targets\CANVIEW4\lib\lld\libCANView4.a(ff_gen_drv.o)
 .data          0x200000c4        0x0 C:\PROGRA~2\VT3_8920\VT3\RESOUR~1\targets\CANVIEW4\lib\lld\libCANView4.a(usbh_diskio.o)
 .data          0x200000c4        0x0 C:\PROGRA~2\VT3_8920\VT3\RESOUR~1\targets\CANVIEW4\lib\lld\libCANView4.a(list.o)
 .data          0x200000c4       0x20 C:\PROGRA~2\VT3_8920\VT3\RESOUR~1\targets\CANVIEW4\lib\lld\libCANView4.a(usbh_msc.o)
                0x200000c4                USBH_msc
 .data          0x200000e4        0x0 C:\PROGRA~2\VT3_8920\VT3\RESOUR~1\targets\CANVIEW4\lib\lld\libCANView4.a(usbh_msc_bot.o)
 .data          0x200000e4        0x0 C:\PROGRA~2\VT3_8920\VT3\RESOUR~1\targets\CANVIEW4\lib\lld\libCANView4.a(usbh_msc_scsi.o)
 .data          0x200000e4        0x0 c:/program files (x86)/gnu tools arm embedded/5.2 2015q4/bin/../lib/gcc/arm-none-eabi/5.2.1/../../../../arm-none-eabi/lib/armv7e-m/fpu\libm.a(lib_a-s_cos.o)
 .data          0x200000e4        0x0 c:/program files (x86)/gnu tools arm embedded/5.2 2015q4/bin/../lib/gcc/arm-none-eabi/5.2.1/../../../../arm-none-eabi/lib/armv7e-m/fpu\libm.a(lib_a-s_sin.o)
 .data          0x200000e4        0x0 c:/program files (x86)/gnu tools arm embedded/5.2 2015q4/bin/../lib/gcc/arm-none-eabi/5.2.1/../../../../arm-none-eabi/lib/armv7e-m/fpu\libm.a(lib_a-sf_tan.o)
 .data          0x200000e4        0x0 c:/program files (x86)/gnu tools arm embedded/5.2 2015q4/bin/../lib/gcc/arm-none-eabi/5.2.1/../../../../arm-none-eabi/lib/armv7e-m/fpu\libm.a(lib_a-w_acos.o)
 .data          0x200000e4        0x0 c:/program files (x86)/gnu tools arm embedded/5.2 2015q4/bin/../lib/gcc/arm-none-eabi/5.2.1/../../../../arm-none-eabi/lib/armv7e-m/fpu\libm.a(lib_a-w_asin.o)
 .data          0x200000e4        0x0 c:/program files (x86)/gnu tools arm embedded/5.2 2015q4/bin/../lib/gcc/arm-none-eabi/5.2.1/../../../../arm-none-eabi/lib/armv7e-m/fpu\libm.a(lib_a-w_pow.o)
 .data          0x200000e4        0x0 c:/program files (x86)/gnu tools arm embedded/5.2 2015q4/bin/../lib/gcc/arm-none-eabi/5.2.1/../../../../arm-none-eabi/lib/armv7e-m/fpu\libm.a(lib_a-wf_exp.o)
 .data          0x200000e4        0x0 c:/program files (x86)/gnu tools arm embedded/5.2 2015q4/bin/../lib/gcc/arm-none-eabi/5.2.1/../../../../arm-none-eabi/lib/armv7e-m/fpu\libm.a(lib_a-wf_log.o)
 .data          0x200000e4        0x0 c:/program files (x86)/gnu tools arm embedded/5.2 2015q4/bin/../lib/gcc/arm-none-eabi/5.2.1/../../../../arm-none-eabi/lib/armv7e-m/fpu\libm.a(lib_a-wf_log10.o)
 .data          0x200000e4        0x0 c:/program files (x86)/gnu tools arm embedded/5.2 2015q4/bin/../lib/gcc/arm-none-eabi/5.2.1/../../../../arm-none-eabi/lib/armv7e-m/fpu\libm.a(lib_a-wf_pow.o)
 .data          0x200000e4        0x0 c:/program files (x86)/gnu tools arm embedded/5.2 2015q4/bin/../lib/gcc/arm-none-eabi/5.2.1/../../../../arm-none-eabi/lib/armv7e-m/fpu\libm.a(lib_a-wf_sqrt.o)
 .data          0x200000e4        0x0 c:/program files (x86)/gnu tools arm embedded/5.2 2015q4/bin/../lib/gcc/arm-none-eabi/5.2.1/../../../../arm-none-eabi/lib/armv7e-m/fpu\libm.a(lib_a-e_acos.o)
 .data          0x200000e4        0x0 c:/program files (x86)/gnu tools arm embedded/5.2 2015q4/bin/../lib/gcc/arm-none-eabi/5.2.1/../../../../arm-none-eabi/lib/armv7e-m/fpu\libm.a(lib_a-e_asin.o)
 .data          0x200000e4        0x0 c:/program files (x86)/gnu tools arm embedded/5.2 2015q4/bin/../lib/gcc/arm-none-eabi/5.2.1/../../../../arm-none-eabi/lib/armv7e-m/fpu\libm.a(lib_a-e_pow.o)
 .data          0x200000e4        0x0 c:/program files (x86)/gnu tools arm embedded/5.2 2015q4/bin/../lib/gcc/arm-none-eabi/5.2.1/../../../../arm-none-eabi/lib/armv7e-m/fpu\libm.a(lib_a-e_rem_pio2.o)
 .data          0x200000e4        0x0 c:/program files (x86)/gnu tools arm embedded/5.2 2015q4/bin/../lib/gcc/arm-none-eabi/5.2.1/../../../../arm-none-eabi/lib/armv7e-m/fpu\libm.a(lib_a-e_sqrt.o)
 .data          0x200000e4        0x0 c:/program files (x86)/gnu tools arm embedded/5.2 2015q4/bin/../lib/gcc/arm-none-eabi/5.2.1/../../../../arm-none-eabi/lib/armv7e-m/fpu\libm.a(lib_a-ef_exp.o)
 .data          0x200000e4        0x0 c:/program files (x86)/gnu tools arm embedded/5.2 2015q4/bin/../lib/gcc/arm-none-eabi/5.2.1/../../../../arm-none-eabi/lib/armv7e-m/fpu\libm.a(lib_a-ef_log.o)
 .data          0x200000e4        0x0 c:/program files (x86)/gnu tools arm embedded/5.2 2015q4/bin/../lib/gcc/arm-none-eabi/5.2.1/../../../../arm-none-eabi/lib/armv7e-m/fpu\libm.a(lib_a-ef_log10.o)
 .data          0x200000e4        0x0 c:/program files (x86)/gnu tools arm embedded/5.2 2015q4/bin/../lib/gcc/arm-none-eabi/5.2.1/../../../../arm-none-eabi/lib/armv7e-m/fpu\libm.a(lib_a-ef_pow.o)
 .data          0x200000e4        0x0 c:/program files (x86)/gnu tools arm embedded/5.2 2015q4/bin/../lib/gcc/arm-none-eabi/5.2.1/../../../../arm-none-eabi/lib/armv7e-m/fpu\libm.a(lib_a-ef_rem_pio2.o)
 .data          0x200000e4        0x0 c:/program files (x86)/gnu tools arm embedded/5.2 2015q4/bin/../lib/gcc/arm-none-eabi/5.2.1/../../../../arm-none-eabi/lib/armv7e-m/fpu\libm.a(lib_a-ef_sqrt.o)
 .data          0x200000e4        0x0 c:/program files (x86)/gnu tools arm embedded/5.2 2015q4/bin/../lib/gcc/arm-none-eabi/5.2.1/../../../../arm-none-eabi/lib/armv7e-m/fpu\libm.a(lib_a-k_cos.o)
 .data          0x200000e4        0x0 c:/program files (x86)/gnu tools arm embedded/5.2 2015q4/bin/../lib/gcc/arm-none-eabi/5.2.1/../../../../arm-none-eabi/lib/armv7e-m/fpu\libm.a(lib_a-k_rem_pio2.o)
 .data          0x200000e4        0x0 c:/program files (x86)/gnu tools arm embedded/5.2 2015q4/bin/../lib/gcc/arm-none-eabi/5.2.1/../../../../arm-none-eabi/lib/armv7e-m/fpu\libm.a(lib_a-k_sin.o)
 .data          0x200000e4        0x0 c:/program files (x86)/gnu tools arm embedded/5.2 2015q4/bin/../lib/gcc/arm-none-eabi/5.2.1/../../../../arm-none-eabi/lib/armv7e-m/fpu\libm.a(lib_a-kf_rem_pio2.o)
 .data          0x200000e4        0x0 c:/program files (x86)/gnu tools arm embedded/5.2 2015q4/bin/../lib/gcc/arm-none-eabi/5.2.1/../../../../arm-none-eabi/lib/armv7e-m/fpu\libm.a(lib_a-kf_tan.o)
 .data          0x200000e4        0x0 c:/program files (x86)/gnu tools arm embedded/5.2 2015q4/bin/../lib/gcc/arm-none-eabi/5.2.1/../../../../arm-none-eabi/lib/armv7e-m/fpu\libm.a(lib_a-s_fabs.o)
 .data          0x200000e4        0x0 c:/program files (x86)/gnu tools arm embedded/5.2 2015q4/bin/../lib/gcc/arm-none-eabi/5.2.1/../../../../arm-none-eabi/lib/armv7e-m/fpu\libm.a(lib_a-s_finite.o)
 .data          0x200000e4        0x0 c:/program files (x86)/gnu tools arm embedded/5.2 2015q4/bin/../lib/gcc/arm-none-eabi/5.2.1/../../../../arm-none-eabi/lib/armv7e-m/fpu\libm.a(lib_a-s_floor.o)
 .data          0x200000e4        0x0 c:/program files (x86)/gnu tools arm embedded/5.2 2015q4/bin/../lib/gcc/arm-none-eabi/5.2.1/../../../../arm-none-eabi/lib/armv7e-m/fpu\libm.a(lib_a-s_fpclassify.o)
 .data          0x200000e4        0x0 c:/program files (x86)/gnu tools arm embedded/5.2 2015q4/bin/../lib/gcc/arm-none-eabi/5.2.1/../../../../arm-none-eabi/lib/armv7e-m/fpu\libm.a(lib_a-s_lib_ver.o)
 .data          0x200000e4        0x0 c:/program files (x86)/gnu tools arm embedded/5.2 2015q4/bin/../lib/gcc/arm-none-eabi/5.2.1/../../../../arm-none-eabi/lib/armv7e-m/fpu\libm.a(lib_a-s_matherr.o)
 .data          0x200000e4        0x0 c:/program files (x86)/gnu tools arm embedded/5.2 2015q4/bin/../lib/gcc/arm-none-eabi/5.2.1/../../../../arm-none-eabi/lib/armv7e-m/fpu\libm.a(lib_a-s_nan.o)
 .data          0x200000e4        0x0 c:/program files (x86)/gnu tools arm embedded/5.2 2015q4/bin/../lib/gcc/arm-none-eabi/5.2.1/../../../../arm-none-eabi/lib/armv7e-m/fpu\libm.a(lib_a-s_rint.o)
 .data          0x200000e4        0x0 c:/program files (x86)/gnu tools arm embedded/5.2 2015q4/bin/../lib/gcc/arm-none-eabi/5.2.1/../../../../arm-none-eabi/lib/armv7e-m/fpu\libm.a(lib_a-s_scalbn.o)
 .data          0x200000e4        0x0 c:/program files (x86)/gnu tools arm embedded/5.2 2015q4/bin/../lib/gcc/arm-none-eabi/5.2.1/../../../../arm-none-eabi/lib/armv7e-m/fpu\libm.a(lib_a-sf_fabs.o)
 .data          0x200000e4        0x0 c:/program files (x86)/gnu tools arm embedded/5.2 2015q4/bin/../lib/gcc/arm-none-eabi/5.2.1/../../../../arm-none-eabi/lib/armv7e-m/fpu\libm.a(lib_a-sf_finite.o)
 .data          0x200000e4        0x0 c:/program files (x86)/gnu tools arm embedded/5.2 2015q4/bin/../lib/gcc/arm-none-eabi/5.2.1/../../../../arm-none-eabi/lib/armv7e-m/fpu\libm.a(lib_a-sf_floor.o)
 .data          0x200000e4        0x0 c:/program files (x86)/gnu tools arm embedded/5.2 2015q4/bin/../lib/gcc/arm-none-eabi/5.2.1/../../../../arm-none-eabi/lib/armv7e-m/fpu\libm.a(lib_a-sf_fpclassify.o)
 .data          0x200000e4        0x0 c:/program files (x86)/gnu tools arm embedded/5.2 2015q4/bin/../lib/gcc/arm-none-eabi/5.2.1/../../../../arm-none-eabi/lib/armv7e-m/fpu\libm.a(lib_a-sf_nan.o)
 .data          0x200000e4        0x0 c:/program files (x86)/gnu tools arm embedded/5.2 2015q4/bin/../lib/gcc/arm-none-eabi/5.2.1/../../../../arm-none-eabi/lib/armv7e-m/fpu\libm.a(lib_a-sf_scalbn.o)
 .data          0x200000e4        0x0 c:/program files (x86)/gnu tools arm embedded/5.2 2015q4/bin/../lib/gcc/arm-none-eabi/5.2.1/../../../../arm-none-eabi/lib/armv7e-m/fpu\libm.a(lib_a-s_copysign.o)
 .data          0x200000e4        0x0 c:/program files (x86)/gnu tools arm embedded/5.2 2015q4/bin/../lib/gcc/arm-none-eabi/5.2.1/../../../../arm-none-eabi/lib/armv7e-m/fpu\libm.a(lib_a-sf_copysign.o)
 .data          0x200000e4        0x0 c:/program files (x86)/gnu tools arm embedded/5.2 2015q4/bin/../lib/gcc/arm-none-eabi/5.2.1/armv7e-m/fpu\libgcc.a(_arm_addsubdf3.o)
 .data          0x200000e4        0x0 c:/program files (x86)/gnu tools arm embedded/5.2 2015q4/bin/../lib/gcc/arm-none-eabi/5.2.1/armv7e-m/fpu\libgcc.a(_arm_muldivdf3.o)
 .data          0x200000e4        0x0 c:/program files (x86)/gnu tools arm embedded/5.2 2015q4/bin/../lib/gcc/arm-none-eabi/5.2.1/armv7e-m/fpu\libgcc.a(_arm_cmpdf2.o)
 .data          0x200000e4        0x0 c:/program files (x86)/gnu tools arm embedded/5.2 2015q4/bin/../lib/gcc/arm-none-eabi/5.2.1/armv7e-m/fpu\libgcc.a(_arm_fixdfsi.o)
 .data          0x200000e4        0x0 c:/program files (x86)/gnu tools arm embedded/5.2 2015q4/bin/../lib/gcc/arm-none-eabi/5.2.1/armv7e-m/fpu\libgcc.a(_arm_truncdfsf2.o)
 .data          0x200000e4        0x0 c:/program files (x86)/gnu tools arm embedded/5.2 2015q4/bin/../lib/gcc/arm-none-eabi/5.2.1/../../../../arm-none-eabi/lib/armv7e-m/fpu\libc.a(lib_a-atof.o)
 .data          0x200000e4        0x0 c:/program files (x86)/gnu tools arm embedded/5.2 2015q4/bin/../lib/gcc/arm-none-eabi/5.2.1/../../../../arm-none-eabi/lib/armv7e-m/fpu\libc.a(lib_a-atoi.o)
 .data          0x200000e4        0x0 c:/program files (x86)/gnu tools arm embedded/5.2 2015q4/bin/../lib/gcc/arm-none-eabi/5.2.1/../../../../arm-none-eabi/lib/armv7e-m/fpu\libc.a(lib_a-atol.o)
 .data          0x200000e4        0x0 c:/program files (x86)/gnu tools arm embedded/5.2 2015q4/bin/../lib/gcc/arm-none-eabi/5.2.1/../../../../arm-none-eabi/lib/armv7e-m/fpu\libc.a(lib_a-bsearch.o)
 .data          0x200000e4        0x0 c:/program files (x86)/gnu tools arm embedded/5.2 2015q4/bin/../lib/gcc/arm-none-eabi/5.2.1/../../../../arm-none-eabi/lib/armv7e-m/fpu\libc.a(lib_a-errno.o)
 .data          0x200000e4        0x0 c:/program files (x86)/gnu tools arm embedded/5.2 2015q4/bin/../lib/gcc/arm-none-eabi/5.2.1/../../../../arm-none-eabi/lib/armv7e-m/fpu\libc.a(lib_a-exit.o)
 .data          0x200000e4        0x0 c:/program files (x86)/gnu tools arm embedded/5.2 2015q4/bin/../lib/gcc/arm-none-eabi/5.2.1/../../../../arm-none-eabi/lib/armv7e-m/fpu\libc.a(lib_a-fclose.o)
 .data          0x200000e4        0x0 c:/program files (x86)/gnu tools arm embedded/5.2 2015q4/bin/../lib/gcc/arm-none-eabi/5.2.1/../../../../arm-none-eabi/lib/armv7e-m/fpu\libc.a(lib_a-fflush.o)
 .data          0x200000e4        0x0 c:/program files (x86)/gnu tools arm embedded/5.2 2015q4/bin/../lib/gcc/arm-none-eabi/5.2.1/../../../../arm-none-eabi/lib/armv7e-m/fpu\libc.a(lib_a-findfp.o)
 .data          0x200000e4        0x0 c:/program files (x86)/gnu tools arm embedded/5.2 2015q4/bin/../lib/gcc/arm-none-eabi/5.2.1/../../../../arm-none-eabi/lib/armv7e-m/fpu\libc.a(lib_a-fopen.o)
 .data          0x200000e4        0x0 c:/program files (x86)/gnu tools arm embedded/5.2 2015q4/bin/../lib/gcc/arm-none-eabi/5.2.1/../../../../arm-none-eabi/lib/armv7e-m/fpu\libc.a(lib_a-fread.o)
 .data          0x200000e4        0x0 c:/program files (x86)/gnu tools arm embedded/5.2 2015q4/bin/../lib/gcc/arm-none-eabi/5.2.1/../../../../arm-none-eabi/lib/armv7e-m/fpu\libc.a(lib_a-freer.o)
 .data          0x200000e4        0x0 c:/program files (x86)/gnu tools arm embedded/5.2 2015q4/bin/../lib/gcc/arm-none-eabi/5.2.1/../../../../arm-none-eabi/lib/armv7e-m/fpu\libc.a(lib_a-fseek.o)
 .data          0x200000e4        0x0 c:/program files (x86)/gnu tools arm embedded/5.2 2015q4/bin/../lib/gcc/arm-none-eabi/5.2.1/../../../../arm-none-eabi/lib/armv7e-m/fpu\libc.a(lib_a-fseeko.o)
 .data          0x200000e4        0x0 c:/program files (x86)/gnu tools arm embedded/5.2 2015q4/bin/../lib/gcc/arm-none-eabi/5.2.1/../../../../arm-none-eabi/lib/armv7e-m/fpu\libc.a(lib_a-fstatr.o)
 .data          0x200000e4        0x0 c:/program files (x86)/gnu tools arm embedded/5.2 2015q4/bin/../lib/gcc/arm-none-eabi/5.2.1/../../../../arm-none-eabi/lib/armv7e-m/fpu\libc.a(lib_a-fwalk.o)
 .data          0x200000e4        0x0 c:/program files (x86)/gnu tools arm embedded/5.2 2015q4/bin/../lib/gcc/arm-none-eabi/5.2.1/../../../../arm-none-eabi/lib/armv7e-m/fpu\libc.a(lib_a-impure.o)
 .data          0x200000e4        0x0 c:/program files (x86)/gnu tools arm embedded/5.2 2015q4/bin/../lib/gcc/arm-none-eabi/5.2.1/../../../../arm-none-eabi/lib/armv7e-m/fpu\libc.a(lib_a-init.o)
 .data          0x200000e4        0x0 c:/program files (x86)/gnu tools arm embedded/5.2 2015q4/bin/../lib/gcc/arm-none-eabi/5.2.1/../../../../arm-none-eabi/lib/armv7e-m/fpu\libc.a(lib_a-isalnum.o)
 .data          0x200000e4        0x0 c:/program files (x86)/gnu tools arm embedded/5.2 2015q4/bin/../lib/gcc/arm-none-eabi/5.2.1/../../../../arm-none-eabi/lib/armv7e-m/fpu\libc.a(lib_a-isalpha.o)
 .data          0x200000e4        0x0 c:/program files (x86)/gnu tools arm embedded/5.2 2015q4/bin/../lib/gcc/arm-none-eabi/5.2.1/../../../../arm-none-eabi/lib/armv7e-m/fpu\libc.a(lib_a-islower.o)
 .data          0x200000e4        0x0 c:/program files (x86)/gnu tools arm embedded/5.2 2015q4/bin/../lib/gcc/arm-none-eabi/5.2.1/../../../../arm-none-eabi/lib/armv7e-m/fpu\libc.a(lib_a-isspace.o)
 .data          0x200000e4        0x0 c:/program files (x86)/gnu tools arm embedded/5.2 2015q4/bin/../lib/gcc/arm-none-eabi/5.2.1/../../../../arm-none-eabi/lib/armv7e-m/fpu\libc.a(lib_a-isupper.o)
 .data          0x200000e4        0x0 c:/program files (x86)/gnu tools arm embedded/5.2 2015q4/bin/../lib/gcc/arm-none-eabi/5.2.1/../../../../arm-none-eabi/lib/armv7e-m/fpu\libc.a(lib_a-isxdigit.o)
 .data          0x200000e4        0x0 c:/program files (x86)/gnu tools arm embedded/5.2 2015q4/bin/../lib/gcc/arm-none-eabi/5.2.1/../../../../arm-none-eabi/lib/armv7e-m/fpu\libc.a(lib_a-makebuf.o)
 .data          0x200000e4        0x0 c:/program files (x86)/gnu tools arm embedded/5.2 2015q4/bin/../lib/gcc/arm-none-eabi/5.2.1/../../../../arm-none-eabi/lib/armv7e-m/fpu\libc.a(lib_a-malloc.o)
 .data          0x200000e4        0x0 c:/program files (x86)/gnu tools arm embedded/5.2 2015q4/bin/../lib/gcc/arm-none-eabi/5.2.1/../../../../arm-none-eabi/lib/armv7e-m/fpu\libc.a(lib_a-mallocr.o)
 .data          0x200000e4        0x0 c:/program files (x86)/gnu tools arm embedded/5.2 2015q4/bin/../lib/gcc/arm-none-eabi/5.2.1/../../../../arm-none-eabi/lib/armv7e-m/fpu\libc.a(lib_a-memcmp.o)
 .data          0x200000e4        0x0 c:/program files (x86)/gnu tools arm embedded/5.2 2015q4/bin/../lib/gcc/arm-none-eabi/5.2.1/../../../../arm-none-eabi/lib/armv7e-m/fpu\libc.a(lib_a-memcpy.o)
 .data          0x200000e4        0x0 c:/program files (x86)/gnu tools arm embedded/5.2 2015q4/bin/../lib/gcc/arm-none-eabi/5.2.1/../../../../arm-none-eabi/lib/armv7e-m/fpu\libc.a(lib_a-memset.o)
 .data          0x200000e4        0x0 c:/program files (x86)/gnu tools arm embedded/5.2 2015q4/bin/../lib/gcc/arm-none-eabi/5.2.1/../../../../arm-none-eabi/lib/armv7e-m/fpu\libc.a(lib_a-mlock.o)
 .data          0x200000e4        0x0 c:/program files (x86)/gnu tools arm embedded/5.2 2015q4/bin/../lib/gcc/arm-none-eabi/5.2.1/../../../../arm-none-eabi/lib/armv7e-m/fpu\libc.a(lib_a-openr.o)
 .data          0x200000e4        0x0 c:/program files (x86)/gnu tools arm embedded/5.2 2015q4/bin/../lib/gcc/arm-none-eabi/5.2.1/../../../../arm-none-eabi/lib/armv7e-m/fpu\libc.a(lib_a-printf.o)
 .data          0x200000e4        0x0 c:/program files (x86)/gnu tools arm embedded/5.2 2015q4/bin/../lib/gcc/arm-none-eabi/5.2.1/../../../../arm-none-eabi/lib/armv7e-m/fpu\libc.a(lib_a-rand.o)
 .data          0x200000e4        0x0 c:/program files (x86)/gnu tools arm embedded/5.2 2015q4/bin/../lib/gcc/arm-none-eabi/5.2.1/../../../../arm-none-eabi/lib/armv7e-m/fpu\libc.a(lib_a-reent.o)
 .data          0x200000e4        0x0 c:/program files (x86)/gnu tools arm embedded/5.2 2015q4/bin/../lib/gcc/arm-none-eabi/5.2.1/../../../../arm-none-eabi/lib/armv7e-m/fpu\libc.a(lib_a-refill.o)
 .data          0x200000e4        0x0 c:/program files (x86)/gnu tools arm embedded/5.2 2015q4/bin/../lib/gcc/arm-none-eabi/5.2.1/../../../../arm-none-eabi/lib/armv7e-m/fpu\libc.a(lib_a-sbrkr.o)
 .data          0x200000e4        0x0 c:/program files (x86)/gnu tools arm embedded/5.2 2015q4/bin/../lib/gcc/arm-none-eabi/5.2.1/../../../../arm-none-eabi/lib/armv7e-m/fpu\libc.a(lib_a-sprintf.o)
 .data          0x200000e4        0x0 c:/program files (x86)/gnu tools arm embedded/5.2 2015q4/bin/../lib/gcc/arm-none-eabi/5.2.1/../../../../arm-none-eabi/lib/armv7e-m/fpu\libc.a(lib_a-stdio.o)
 .data          0x200000e4        0x0 c:/program files (x86)/gnu tools arm embedded/5.2 2015q4/bin/../lib/gcc/arm-none-eabi/5.2.1/../../../../arm-none-eabi/lib/armv7e-m/fpu\libc.a(lib_a-strcat.o)
 .data          0x200000e4        0x0 c:/program files (x86)/gnu tools arm embedded/5.2 2015q4/bin/../lib/gcc/arm-none-eabi/5.2.1/../../../../arm-none-eabi/lib/armv7e-m/fpu\libc.a(lib_a-strchr.o)
 .data          0x200000e4        0x0 c:/program files (x86)/gnu tools arm embedded/5.2 2015q4/bin/../lib/gcc/arm-none-eabi/5.2.1/../../../../arm-none-eabi/lib/armv7e-m/fpu\libc.a(lib_a-strcmp.o)
 .data          0x200000e4        0x0 c:/program files (x86)/gnu tools arm embedded/5.2 2015q4/bin/../lib/gcc/arm-none-eabi/5.2.1/../../../../arm-none-eabi/lib/armv7e-m/fpu\libc.a(lib_a-strcpy.o)
 .data          0x200000e4        0x0 c:/program files (x86)/gnu tools arm embedded/5.2 2015q4/bin/../lib/gcc/arm-none-eabi/5.2.1/../../../../arm-none-eabi/lib/armv7e-m/fpu\libc.a(lib_a-strlcat.o)
 .data          0x200000e4        0x0 c:/program files (x86)/gnu tools arm embedded/5.2 2015q4/bin/../lib/gcc/arm-none-eabi/5.2.1/../../../../arm-none-eabi/lib/armv7e-m/fpu\libc.a(lib_a-strlen.o)
 .data          0x200000e4        0x0 c:/program files (x86)/gnu tools arm embedded/5.2 2015q4/bin/../lib/gcc/arm-none-eabi/5.2.1/../../../../arm-none-eabi/lib/armv7e-m/fpu\libc.a(lib_a-strncpy.o)
 .data          0x200000e4        0x0 c:/program files (x86)/gnu tools arm embedded/5.2 2015q4/bin/../lib/gcc/arm-none-eabi/5.2.1/../../../../arm-none-eabi/lib/armv7e-m/fpu\libc.a(lib_a-strtod.o)
 .data          0x200000e4        0x0 c:/program files (x86)/gnu tools arm embedded/5.2 2015q4/bin/../lib/gcc/arm-none-eabi/5.2.1/../../../../arm-none-eabi/lib/armv7e-m/fpu\libc.a(lib_a-strtol.o)
 .data          0x200000e4        0x0 c:/program files (x86)/gnu tools arm embedded/5.2 2015q4/bin/../lib/gcc/arm-none-eabi/5.2.1/../../../../arm-none-eabi/lib/armv7e-m/fpu\libc.a(lib_a-svfprintf.o)
 .data          0x200000e4        0x0 c:/program files (x86)/gnu tools arm embedded/5.2 2015q4/bin/../lib/gcc/arm-none-eabi/5.2.1/../../../../arm-none-eabi/lib/armv7e-m/fpu\libc.a(lib_a-vfprintf.o)
 .data          0x200000e4        0x0 c:/program files (x86)/gnu tools arm embedded/5.2 2015q4/bin/../lib/gcc/arm-none-eabi/5.2.1/../../../../arm-none-eabi/lib/armv7e-m/fpu\libc.a(lib_a-writer.o)
 .data          0x200000e4        0x0 c:/program files (x86)/gnu tools arm embedded/5.2 2015q4/bin/../lib/gcc/arm-none-eabi/5.2.1/../../../../arm-none-eabi/lib/armv7e-m/fpu\libc.a(lib_a-wsetup.o)
 .data          0x200000e4        0x0 c:/program files (x86)/gnu tools arm embedded/5.2 2015q4/bin/../lib/gcc/arm-none-eabi/5.2.1/../../../../arm-none-eabi/lib/armv7e-m/fpu\libc.a(lib_a-__call_atexit.o)
 .data          0x200000e4        0x0 c:/program files (x86)/gnu tools arm embedded/5.2 2015q4/bin/../lib/gcc/arm-none-eabi/5.2.1/../../../../arm-none-eabi/lib/armv7e-m/fpu\libc.a(lib_a-atexit.o)
 .data          0x200000e4        0x0 c:/program files (x86)/gnu tools arm embedded/5.2 2015q4/bin/../lib/gcc/arm-none-eabi/5.2.1/../../../../arm-none-eabi/lib/armv7e-m/fpu\libc.a(lib_a-closer.o)
 .data          0x200000e4        0x0 c:/program files (x86)/gnu tools arm embedded/5.2 2015q4/bin/../lib/gcc/arm-none-eabi/5.2.1/../../../../arm-none-eabi/lib/armv7e-m/fpu\libc.a(lib_a-ctype_.o)
 .data          0x200000e4        0x0 c:/program files (x86)/gnu tools arm embedded/5.2 2015q4/bin/../lib/gcc/arm-none-eabi/5.2.1/../../../../arm-none-eabi/lib/armv7e-m/fpu\libc.a(lib_a-dtoa.o)
 .data          0x200000e4        0x0 c:/program files (x86)/gnu tools arm embedded/5.2 2015q4/bin/../lib/gcc/arm-none-eabi/5.2.1/../../../../arm-none-eabi/lib/armv7e-m/fpu\libc.a(lib_a-fini.o)
 .data          0x200000e4        0x0 c:/program files (x86)/gnu tools arm embedded/5.2 2015q4/bin/../lib/gcc/arm-none-eabi/5.2.1/../../../../arm-none-eabi/lib/armv7e-m/fpu\libc.a(lib_a-flags.o)
 .data          0x200000e4        0x0 c:/program files (x86)/gnu tools arm embedded/5.2 2015q4/bin/../lib/gcc/arm-none-eabi/5.2.1/../../../../arm-none-eabi/lib/armv7e-m/fpu\libc.a(lib_a-gdtoa-gethex.o)
 .data          0x200000e4        0x0 c:/program files (x86)/gnu tools arm embedded/5.2 2015q4/bin/../lib/gcc/arm-none-eabi/5.2.1/../../../../arm-none-eabi/lib/armv7e-m/fpu\libc.a(lib_a-gdtoa-hexnan.o)
 .data          0x200000e4        0x0 c:/program files (x86)/gnu tools arm embedded/5.2 2015q4/bin/../lib/gcc/arm-none-eabi/5.2.1/../../../../arm-none-eabi/lib/armv7e-m/fpu\libc.a(lib_a-isattyr.o)
 .data          0x200000e4        0x0 c:/program files (x86)/gnu tools arm embedded/5.2 2015q4/bin/../lib/gcc/arm-none-eabi/5.2.1/../../../../arm-none-eabi/lib/armv7e-m/fpu\libc.a(lib_a-locale.o)
 .data          0x200000e4        0x0 c:/program files (x86)/gnu tools arm embedded/5.2 2015q4/bin/../lib/gcc/arm-none-eabi/5.2.1/../../../../arm-none-eabi/lib/armv7e-m/fpu\libc.a(lib_a-lseekr.o)
 .data          0x200000e4        0x0 c:/program files (x86)/gnu tools arm embedded/5.2 2015q4/bin/../lib/gcc/arm-none-eabi/5.2.1/../../../../arm-none-eabi/lib/armv7e-m/fpu\libc.a(lib_a-memchr.o)
 .data          0x200000e4        0x0 c:/program files (x86)/gnu tools arm embedded/5.2 2015q4/bin/../lib/gcc/arm-none-eabi/5.2.1/../../../../arm-none-eabi/lib/armv7e-m/fpu\libc.a(lib_a-mprec.o)
 .data          0x200000e4        0x0 c:/program files (x86)/gnu tools arm embedded/5.2 2015q4/bin/../lib/gcc/arm-none-eabi/5.2.1/../../../../arm-none-eabi/lib/armv7e-m/fpu\libc.a(lib_a-readr.o)
 .data          0x200000e4        0x0 c:/program files (x86)/gnu tools arm embedded/5.2 2015q4/bin/../lib/gcc/arm-none-eabi/5.2.1/../../../../arm-none-eabi/lib/armv7e-m/fpu\libc.a(lib_a-strncmp.o)
 .data          0x200000e4        0x0 c:/program files (x86)/gnu tools arm embedded/5.2 2015q4/bin/../lib/gcc/arm-none-eabi/5.2.1/../../../../arm-none-eabi/lib/armv7e-m/fpu\libc.a(lib_a-svfiprintf.o)
 .data          0x200000e4        0x0 c:/program files (x86)/gnu tools arm embedded/5.2 2015q4/bin/../lib/gcc/arm-none-eabi/5.2.1/../../../../arm-none-eabi/lib/armv7e-m/fpu\libc.a(lib_a-vfiprintf.o)
 .data          0x200000e4        0x0 c:/program files (x86)/gnu tools arm embedded/5.2 2015q4/bin/../lib/gcc/arm-none-eabi/5.2.1/../../../../arm-none-eabi/lib/armv7e-m/fpu\libc.a(lib_a-__atexit.o)
 .data          0x200000e4        0x0 c:/program files (x86)/gnu tools arm embedded/5.2 2015q4/bin/../lib/gcc/arm-none-eabi/5.2.1/../../../../arm-none-eabi/lib/armv7e-m/fpu\libc.a(lib_a-callocr.o)
 .data          0x200000e4        0x0 c:/program files (x86)/gnu tools arm embedded/5.2 2015q4/bin/../lib/gcc/arm-none-eabi/5.2.1/../../../../arm-none-eabi/lib/armv7e-m/fpu\libc.a(lib_a-fputwc.o)
 .data          0x200000e4        0x0 c:/program files (x86)/gnu tools arm embedded/5.2 2015q4/bin/../lib/gcc/arm-none-eabi/5.2.1/../../../../arm-none-eabi/lib/armv7e-m/fpu\libc.a(lib_a-fvwrite.o)
 .data          0x200000e4        0x0 c:/program files (x86)/gnu tools arm embedded/5.2 2015q4/bin/../lib/gcc/arm-none-eabi/5.2.1/../../../../arm-none-eabi/lib/armv7e-m/fpu\libc.a(lib_a-memmove.o)
 .data          0x200000e4        0x0 c:/program files (x86)/gnu tools arm embedded/5.2 2015q4/bin/../lib/gcc/arm-none-eabi/5.2.1/../../../../arm-none-eabi/lib/armv7e-m/fpu\libc.a(lib_a-reallocr.o)
 .data          0x200000e4        0x0 c:/program files (x86)/gnu tools arm embedded/5.2 2015q4/bin/../lib/gcc/arm-none-eabi/5.2.1/../../../../arm-none-eabi/lib/armv7e-m/fpu\libc.a(lib_a-wbuf.o)
 .data          0x200000e4        0x0 c:/program files (x86)/gnu tools arm embedded/5.2 2015q4/bin/../lib/gcc/arm-none-eabi/5.2.1/../../../../arm-none-eabi/lib/armv7e-m/fpu\libc.a(lib_a-wcrtomb.o)
 .data          0x200000e4        0x0 c:/program files (x86)/gnu tools arm embedded/5.2 2015q4/bin/../lib/gcc/arm-none-eabi/5.2.1/../../../../arm-none-eabi/lib/armv7e-m/fpu\libc.a(lib_a-wctomb_r.o)
 .data          0x200000e4        0x0 c:/program files (x86)/gnu tools arm embedded/5.2 2015q4/bin/../lib/gcc/arm-none-eabi/5.2.1/armv7e-m/fpu\libgcc.a(_arm_fixunsdfsi.o)
 .data          0x200000e4        0x0 c:/program files (x86)/gnu tools arm embedded/5.2 2015q4/bin/../lib/gcc/arm-none-eabi/5.2.1/armv7e-m/fpu\libgcc.a(_aeabi_uldivmod.o)
 .data          0x200000e4        0x0 c:/program files (x86)/gnu tools arm embedded/5.2 2015q4/bin/../lib/gcc/arm-none-eabi/5.2.1/armv7e-m/fpu\libgcc.a(_udivmoddi4.o)
 .data          0x200000e4        0x0 c:/program files (x86)/gnu tools arm embedded/5.2 2015q4/bin/../lib/gcc/arm-none-eabi/5.2.1/armv7e-m/fpu\libgcc.a(_dvmd_tls.o)
 .data          0x200000e4        0x0 c:/program files (x86)/gnu tools arm embedded/5.2 2015q4/bin/../lib/gcc/arm-none-eabi/5.2.1/../../../../arm-none-eabi/lib/armv7e-m/fpu\libnosys.a(close.o)
 .data          0x200000e4        0x0 c:/program files (x86)/gnu tools arm embedded/5.2 2015q4/bin/../lib/gcc/arm-none-eabi/5.2.1/../../../../arm-none-eabi/lib/armv7e-m/fpu\libnosys.a(fstat.o)
 .data          0x200000e4        0x0 c:/program files (x86)/gnu tools arm embedded/5.2 2015q4/bin/../lib/gcc/arm-none-eabi/5.2.1/../../../../arm-none-eabi/lib/armv7e-m/fpu\libnosys.a(isatty.o)
 .data          0x200000e4        0x0 c:/program files (x86)/gnu tools arm embedded/5.2 2015q4/bin/../lib/gcc/arm-none-eabi/5.2.1/../../../../arm-none-eabi/lib/armv7e-m/fpu\libnosys.a(lseek.o)
 .data          0x200000e4        0x0 c:/program files (x86)/gnu tools arm embedded/5.2 2015q4/bin/../lib/gcc/arm-none-eabi/5.2.1/../../../../arm-none-eabi/lib/armv7e-m/fpu\libnosys.a(open.o)
 .data          0x200000e4        0x0 c:/program files (x86)/gnu tools arm embedded/5.2 2015q4/bin/../lib/gcc/arm-none-eabi/5.2.1/../../../../arm-none-eabi/lib/armv7e-m/fpu\libnosys.a(read.o)
 .data          0x200000e4        0x0 c:/program files (x86)/gnu tools arm embedded/5.2 2015q4/bin/../lib/gcc/arm-none-eabi/5.2.1/../../../../arm-none-eabi/lib/armv7e-m/fpu\libnosys.a(write.o)
 .data          0x200000e4        0x0 c:/program files (x86)/gnu tools arm embedded/5.2 2015q4/bin/../lib/gcc/arm-none-eabi/5.2.1/../../../../arm-none-eabi/lib/armv7e-m/fpu\libnosys.a(_exit.o)
 .data          0x200000e4        0x0 c:/program files (x86)/gnu tools arm embedded/5.2 2015q4/bin/../lib/gcc/arm-none-eabi/5.2.1/armv7e-m/fpu/crtend.o
 .data          0x200000e4        0x0 c:/program files (x86)/gnu tools arm embedded/5.2 2015q4/bin/../lib/gcc/arm-none-eabi/5.2.1/armv7e-m/fpu/crtn.o
 *(.data*)
 .data.__fdlib_version
                0x200000e4        0x1 c:/program files (x86)/gnu tools arm embedded/5.2 2015q4/bin/../lib/gcc/arm-none-eabi/5.2.1/../../../../arm-none-eabi/lib/armv7e-m/fpu\libm.a(lib_a-s_lib_ver.o)
                0x200000e4                __fdlib_version
 *fill*         0x200000e5        0x3 
 .data.impure_data
                0x200000e8      0x428 c:/program files (x86)/gnu tools arm embedded/5.2 2015q4/bin/../lib/gcc/arm-none-eabi/5.2.1/../../../../arm-none-eabi/lib/armv7e-m/fpu\libc.a(lib_a-impure.o)
 .data._impure_ptr
                0x20000510        0x4 c:/program files (x86)/gnu tools arm embedded/5.2 2015q4/bin/../lib/gcc/arm-none-eabi/5.2.1/../../../../arm-none-eabi/lib/armv7e-m/fpu\libc.a(lib_a-impure.o)
                0x20000510                _impure_ptr
 .data.__malloc_av_
                0x20000514      0x408 c:/program files (x86)/gnu tools arm embedded/5.2 2015q4/bin/../lib/gcc/arm-none-eabi/5.2.1/../../../../arm-none-eabi/lib/armv7e-m/fpu\libc.a(lib_a-mallocr.o)
                0x20000514                __malloc_av_
 .data.__malloc_trim_threshold
                0x2000091c        0x4 c:/program files (x86)/gnu tools arm embedded/5.2 2015q4/bin/../lib/gcc/arm-none-eabi/5.2.1/../../../../arm-none-eabi/lib/armv7e-m/fpu\libc.a(lib_a-mallocr.o)
                0x2000091c                __malloc_trim_threshold
 .data.__malloc_sbrk_base
                0x20000920        0x4 c:/program files (x86)/gnu tools arm embedded/5.2 2015q4/bin/../lib/gcc/arm-none-eabi/5.2.1/../../../../arm-none-eabi/lib/armv7e-m/fpu\libc.a(lib_a-mallocr.o)
                0x20000920                __malloc_sbrk_base
 .data.__ctype_ptr__
                0x20000924        0x4 c:/program files (x86)/gnu tools arm embedded/5.2 2015q4/bin/../lib/gcc/arm-none-eabi/5.2.1/../../../../arm-none-eabi/lib/armv7e-m/fpu\libc.a(lib_a-ctype_.o)
                0x20000924                __ctype_ptr__
 .data.lc_message_charset
                0x20000928       0x20 c:/program files (x86)/gnu tools arm embedded/5.2 2015q4/bin/../lib/gcc/arm-none-eabi/5.2.1/../../../../arm-none-eabi/lib/armv7e-m/fpu\libc.a(lib_a-locale.o)
 .data.lconv    0x20000948       0x38 c:/program files (x86)/gnu tools arm embedded/5.2 2015q4/bin/../lib/gcc/arm-none-eabi/5.2.1/../../../../arm-none-eabi/lib/armv7e-m/fpu\libc.a(lib_a-locale.o)
 .data.lc_ctype_charset
                0x20000980       0x20 c:/program files (x86)/gnu tools arm embedded/5.2 2015q4/bin/../lib/gcc/arm-none-eabi/5.2.1/../../../../arm-none-eabi/lib/armv7e-m/fpu\libc.a(lib_a-locale.o)
 .data.__mb_cur_max
                0x200009a0        0x4 c:/program files (x86)/gnu tools arm embedded/5.2 2015q4/bin/../lib/gcc/arm-none-eabi/5.2.1/../../../../arm-none-eabi/lib/armv7e-m/fpu\libc.a(lib_a-locale.o)
                0x200009a0                __mb_cur_max
 .data.__wctomb
                0x200009a4        0x4 c:/program files (x86)/gnu tools arm embedded/5.2 2015q4/bin/../lib/gcc/arm-none-eabi/5.2.1/../../../../arm-none-eabi/lib/armv7e-m/fpu\libc.a(lib_a-wctomb_r.o)
                0x200009a4                __wctomb
                0x200009a8                . = ALIGN (0x4)
                0x200009a8                _edata = .
                0x081c88d0                _siccmram = LOADADDR (.ccmram)

.jcr            0x200009a8        0x4 load address 0x081c88cc
 .jcr           0x200009a8        0x0 c:/program files (x86)/gnu tools arm embedded/5.2 2015q4/bin/../lib/gcc/arm-none-eabi/5.2.1/armv7e-m/fpu/crtbegin.o
 .jcr           0x200009a8        0x4 c:/program files (x86)/gnu tools arm embedded/5.2 2015q4/bin/../lib/gcc/arm-none-eabi/5.2.1/armv7e-m/fpu/crtend.o

.tm_clone_table
                0x200009ac        0x0 load address 0x081c88d0
 .tm_clone_table
                0x200009ac        0x0 c:/program files (x86)/gnu tools arm embedded/5.2 2015q4/bin/../lib/gcc/arm-none-eabi/5.2.1/armv7e-m/fpu/crtbegin.o
 .tm_clone_table
                0x200009ac        0x0 c:/program files (x86)/gnu tools arm embedded/5.2 2015q4/bin/../lib/gcc/arm-none-eabi/5.2.1/armv7e-m/fpu/crtend.o

.igot.plt       0x200009ac        0x0 load address 0x081c88d0
 .igot.plt      0x200009ac        0x0 c:/program files (x86)/gnu tools arm embedded/5.2 2015q4/bin/../lib/gcc/arm-none-eabi/5.2.1/armv7e-m/fpu/crtbegin.o

.ccmram         0x10000000        0x0 load address 0x081c88d0
                0x10000000                . = ALIGN (0x4)
                0x10000000                _sccmram = .
 *(.ccmram)
 *(.ccmram*)
                0x10000000                . = ALIGN (0x4)
                0x10000000                _eccmram = .
                0x10000000                . = ALIGN (0x4)

.bss            0x200009ac    0x1a1b0
                0x200009ac                _sbss = .
                0x200009ac                __bss_start__ = _sbss
 *(.bss)
 .bss           0x200009ac        0x0 c:/program files (x86)/gnu tools arm embedded/5.2 2015q4/bin/../lib/gcc/arm-none-eabi/5.2.1/armv7e-m/fpu/crti.o
 .bss           0x200009ac       0x1c c:/program files (x86)/gnu tools arm embedded/5.2 2015q4/bin/../lib/gcc/arm-none-eabi/5.2.1/armv7e-m/fpu/crtbegin.o
 .bss           0x200009c8        0x0 c:/program files (x86)/gnu tools arm embedded/5.2 2015q4/bin/../lib/gcc/arm-none-eabi/5.2.1/../../../../arm-none-eabi/lib/armv7e-m/fpu/crt0.o
 .bss           0x200009c8        0x4 C:\PROGRA~2\VT3_8920\VT3\RESOUR~1\targets\CANVIEW4\lib\\lld\sysmem.o
 .bss           0x200009cc        0x0 vt3_code/vt3_lang.c.o
 .bss           0x200009cc        0x0 vt3_code/vt3_IO.c.o
 .bss           0x200009cc        0x1 vt3_code/vt3_disp.c.o
                0x200009cc                vt3_force_redraw_screen_background
 .bss           0x200009cd        0x0 vt3_code/vt3_disp_events.c.o
 *fill*         0x200009cd        0x3 
 .bss           0x200009d0       0x28 vt3_code/vt3_alarms.c.o
 .bss           0x200009f8        0x0 vt3_code/vt3_signature.c.o
 .bss           0x200009f8        0x0 vt3_code/vt3_images.c.o
 .bss           0x200009f8        0x0 vt3_code/vt3_Font__RobotoBold36.c.o
 .bss           0x200009f8        0x0 vt3_code/vt3_Font__RobotoBold49.c.o
 .bss           0x200009f8        0x0 vt3_code/vt3_POU__MAIN.c.o
 .bss           0x200009f8        0x0 vt3_code/vt3_POU__global_data.c.o
 .bss           0x200009f8        0x0 vt3_code/vt3_POU__key_data.c.o
 .bss           0x200009f8        0x0 vt3_code/vt3_POU_common.c.o
 .bss           0x200009f8        0x0 vt3_code/vt3_vars.c.o
 .bss           0x200009f8        0x0 vt3_code/vt3_var_version.c.o
 .bss           0x200009f8        0x0 vt3_code/vt3_init_persistent_p_array.c.o
 .bss           0x200009f8        0x0 vt3_code/vt3_init_persistent_r_array.c.o
 .bss           0x200009f8        0x0 vt3_code/vt3_init_persistent_f_array.c.o
 .bss           0x200009f8        0x4 vt3_code/vt3_CAN__CanInterface.c.o
 .bss           0x200009fc       0x10 vt3_code/vt3_CAN_common.c.o
                0x200009fc                vt3_j1939_rx_table
 .bss           0x20000a0c        0x0 extra/vt3_extra.c.o
 .bss           0x20000a0c        0x0 __OBJE~1/vt3_extra.c.o
 .bss           0x20000a0c        0x0 __OBJE~1/vt3_POU__closeUSB.c.o
 .bss           0x20000a0c        0x0 __OBJE~1/vt3_POU__DATA_ARRAY_255.c.o
 .bss           0x20000a0c        0x0 __OBJE~1/vt3_POU__DATA_ARRAY_50.c.o
 .bss           0x20000a0c        0x0 __OBJE~1/vt3_POU__ENUM_KEY_MODE.c.o
 .bss           0x20000a0c        0x0 __OBJE~1/vt3_POU__ENUM_MODE_ERR.c.o
 .bss           0x20000a0c        0x0 __OBJE~1/vt3_POU__ENUM_OPEN_FILE.c.o
 .bss           0x20000a0c        0x0 __OBJE~1/vt3_POU__ENUM_PARITY.c.o
 .bss           0x20000a0c        0x0 __OBJE~1/vt3_POU__ENUM_UART_ERR.c.o
 .bss           0x20000a0c        0x0 __OBJE~1/vt3_POU__ENUM_UPDATE.c.o
 .bss           0x20000a0c        0x0 __OBJE~1/vt3_POU__ENUM_USB_ERR.c.o
 .bss           0x20000a0c        0x0 __OBJE~1/vt3_POU__ForceUpdate.c.o
 .bss           0x20000a0c        0x0 __OBJE~1/vt3_POU__initCOM.c.o
 .bss           0x20000a0c        0x0 __OBJE~1/vt3_POU__mountUSB.c.o
 .bss           0x20000a0c        0x0 __OBJE~1/vt3_POU__openUSB.c.o
 .bss           0x20000a0c        0x0 __OBJE~1/vt3_POU__PowerOff.c.o
 .bss           0x20000a0c       0xff __OBJE~1/vt3_POU__readByteCOM.c.o
 *fill*         0x20000b0b        0x1 
 .bss           0x20000b0c       0xff __OBJE~1/vt3_POU__readStringCOM.c.o
 .bss           0x20000c0b        0x0 __OBJE~1/vt3_POU__readStringUSB.c.o
 .bss           0x20000c0b        0x0 __OBJE~1/vt3_POU__resetBufferCOM.c.o
 .bss           0x20000c0b        0x0 __OBJE~1/vt3_POU__SetKeyMode.c.o
 .bss           0x20000c0b        0x0 __OBJE~1/vt3_POU__umountUSB.c.o
 .bss           0x20000c0b        0x0 __OBJE~1/vt3_POU__writeByteCOM.c.o
 .bss           0x20000c0b        0x0 __OBJE~1/vt3_POU__writeElogUSB.c.o
 .bss           0x20000c0b        0x0 __OBJE~1/vt3_POU__writeStringCOM.c.o
 .bss           0x20000c0b        0x0 __OBJE~1/vt3_POU__writeStringUSB.c.o
 .bss           0x20000c0b        0x4 C:\PROGRA~2\VT3_8920\VT3\RESOUR~1\targets\CANVIEW4\lib\vt3_runtime\libvt3_runtime.a(VT3_Main.o)
                0x20000c0b                IndexRxDataBuffCurrent
                0x20000c0c                IndexRxDataBuffStartRead
                0x20000c0d                FlagBuffFull
                0x20000c0e                FlagBuffErr
 .bss           0x20000c0f        0x5 C:\PROGRA~2\VT3_8920\VT3\RESOUR~1\targets\CANVIEW4\lib\vt3_runtime\libvt3_runtime.a(VT3_Runtime.o)
                0x20000c0f                vt3_bytearray_P_main_block_good
                0x20000c10                vt3_bytearray_P_mirror_block_good
                0x20000c11                vt3_bytearray_R_main_block_good
                0x20000c12                vt3_bytearray_R_mirror_block_good
 .bss           0x20000c14        0x0 C:\PROGRA~2\VT3_8920\VT3\RESOUR~1\targets\CANVIEW4\lib\vt3_runtime\libvt3_runtime.a(VT3_Cycle100.o)
 .bss           0x20000c14        0x0 C:\PROGRA~2\VT3_8920\VT3\RESOUR~1\targets\CANVIEW4\lib\vt3_runtime\libvt3_runtime.a(VT3_Cycle20.o)
 .bss           0x20000c14       0x68 C:\PROGRA~2\VT3_8920\VT3\RESOUR~1\targets\CANVIEW4\lib\vt3_common\libvt3_common.a(IEC_Lib.o)
 .bss           0x20000c7c      0x5e0 C:\PROGRA~2\VT3_8920\VT3\RESOUR~1\targets\CANVIEW4\lib\vt3_common\libvt3_common.a(VT3_CAN_debug.o)
                0x20001218                write_dt_call
 .bss           0x2000125c      0x1d8 C:\PROGRA~2\VT3_8920\VT3\RESOUR~1\targets\CANVIEW4\lib\vt3_common\libvt3_common.a(VT3_Draw.o)
 .bss           0x20001434        0x4 C:\PROGRA~2\VT3_8920\VT3\RESOUR~1\targets\CANVIEW4\lib\vt3_common\libvt3_common.a(VT3_Runtime_Common.o)
 .bss           0x20001438       0xb4 C:\PROGRA~2\VT3_8920\VT3\RESOUR~1\targets\CANVIEW4\lib\vt3_common\libvt3_common.a(VT3_elog.o)
 .bss           0x200014ec        0x0 C:\PROGRA~2\VT3_8920\VT3\RESOUR~1\targets\CANVIEW4\lib\lld\libCANView4.a(startup_stm32f429xx.o)
 .bss           0x200014ec        0x0 C:\PROGRA~2\VT3_8920\VT3\RESOUR~1\targets\CANVIEW4\lib\lld\libCANView4.a(stm32f4xx_it.o)
 .bss           0x200014ec        0x0 C:\PROGRA~2\VT3_8920\VT3\RESOUR~1\targets\CANVIEW4\lib\lld\libCANView4.a(usbh_conf.o)
 .bss           0x200014ec        0x0 C:\PROGRA~2\VT3_8920\VT3\RESOUR~1\targets\CANVIEW4\lib\lld\libCANView4.a(system_stm32f4xx.o)
 .bss           0x200014ec        0x4 C:\PROGRA~2\VT3_8920\VT3\RESOUR~1\targets\CANVIEW4\lib\lld\libCANView4.a(stm32f4xx_hal.o)
 .bss           0x200014f0        0x0 C:\PROGRA~2\VT3_8920\VT3\RESOUR~1\targets\CANVIEW4\lib\lld\libCANView4.a(stm32f4xx_hal_cortex.o)
 .bss           0x200014f0        0x0 C:\PROGRA~2\VT3_8920\VT3\RESOUR~1\targets\CANVIEW4\lib\lld\libCANView4.a(stm32f4xx_hal_dcmi.o)
 .bss           0x200014f0        0x0 C:\PROGRA~2\VT3_8920\VT3\RESOUR~1\targets\CANVIEW4\lib\lld\libCANView4.a(stm32f4xx_hal_dma.o)
 .bss           0x200014f0        0x0 C:\PROGRA~2\VT3_8920\VT3\RESOUR~1\targets\CANVIEW4\lib\lld\libCANView4.a(stm32f4xx_hal_dma_ex.o)
 .bss           0x200014f0        0x0 C:\PROGRA~2\VT3_8920\VT3\RESOUR~1\targets\CANVIEW4\lib\lld\libCANView4.a(stm32f4xx_hal_gpio.o)
 .bss           0x200014f0        0x0 C:\PROGRA~2\VT3_8920\VT3\RESOUR~1\targets\CANVIEW4\lib\lld\libCANView4.a(stm32f4xx_hal_hcd.o)
 .bss           0x200014f0        0x0 C:\PROGRA~2\VT3_8920\VT3\RESOUR~1\targets\CANVIEW4\lib\lld\libCANView4.a(stm32f4xx_hal_rcc.o)
 .bss           0x200014f0        0x0 C:\PROGRA~2\VT3_8920\VT3\RESOUR~1\targets\CANVIEW4\lib\lld\libCANView4.a(stm32f4xx_hal_tim.o)
 .bss           0x200014f0        0x0 C:\PROGRA~2\VT3_8920\VT3\RESOUR~1\targets\CANVIEW4\lib\lld\libCANView4.a(stm32f4xx_hal_tim_ex.o)
 .bss           0x200014f0        0x0 C:\PROGRA~2\VT3_8920\VT3\RESOUR~1\targets\CANVIEW4\lib\lld\libCANView4.a(stm32f4xx_hal_uart.o)
 .bss           0x200014f0        0x4 C:\PROGRA~2\VT3_8920\VT3\RESOUR~1\targets\CANVIEW4\lib\lld\libCANView4.a(stm32f4xx_ll_usb.o)
 .bss           0x200014f4        0x0 C:\PROGRA~2\VT3_8920\VT3\RESOUR~1\targets\CANVIEW4\lib\lld\libCANView4.a(CRC16.o)
 .bss           0x200014f4      0x794 C:\PROGRA~2\VT3_8920\VT3\RESOUR~1\targets\CANVIEW4\lib\lld\libCANView4.a(Camera.o)
 .bss           0x20001c88      0x239 C:\PROGRA~2\VT3_8920\VT3\RESOUR~1\targets\CANVIEW4\lib\lld\libCANView4.a(CANView4_Event_Log.o)
 *fill*         0x20001ec1        0x3 
 .bss           0x20001ec4        0x8 C:\PROGRA~2\VT3_8920\VT3\RESOUR~1\targets\CANVIEW4\lib\lld\libCANView4.a(CANView4_HW_lib.o)
 .bss           0x20001ecc        0x0 C:\PROGRA~2\VT3_8920\VT3\RESOUR~1\targets\CANVIEW4\lib\lld\libCANView4.a(CANView4_Mem_EEPROM.o)
 .bss           0x20001ecc        0x4 C:\PROGRA~2\VT3_8920\VT3\RESOUR~1\targets\CANVIEW4\lib\lld\libCANView4.a(CANView4_Mem_EXT_FLASH.o)
 .bss           0x20001ed0        0x0 C:\PROGRA~2\VT3_8920\VT3\RESOUR~1\targets\CANVIEW4\lib\lld\libCANView4.a(CANView4_Node.o)
 .bss           0x20001ed0        0x0 C:\PROGRA~2\VT3_8920\VT3\RESOUR~1\targets\CANVIEW4\lib\lld\libCANView4.a(CANView4_STM_periphs_lib.o)
 .bss           0x20001ed0      0x2ce C:\PROGRA~2\VT3_8920\VT3\RESOUR~1\targets\CANVIEW4\lib\lld\libCANView4.a(CANView4_Task_Manager.o)
 .bss           0x2000219e        0x1 C:\PROGRA~2\VT3_8920\VT3\RESOUR~1\targets\CANVIEW4\lib\lld\libCANView4.a(KWP2000_Light.o)
                0x2000219e                g_bSessionOpen
 .bss           0x2000219f        0x1 C:\PROGRA~2\VT3_8920\VT3\RESOUR~1\targets\CANVIEW4\lib\lld\libCANView4.a(Virtual_TIMs.o)
 .bss           0x200021a0        0x0 C:\PROGRA~2\VT3_8920\VT3\RESOUR~1\targets\CANVIEW4\lib\lld\libCANView4.a(Display_Utilities.o)
 .bss           0x200021a0       0x38 C:\PROGRA~2\VT3_8920\VT3\RESOUR~1\targets\CANVIEW4\lib\lld\libCANView4.a(Display_lib.o)
 .bss           0x200021d8       0x18 C:\PROGRA~2\VT3_8920\VT3\RESOUR~1\targets\CANVIEW4\lib\lld\libCANView4.a(eeprom.o)
                0x200021ec                SectorError
 .bss           0x200021f0       0x18 C:\PROGRA~2\VT3_8920\VT3\RESOUR~1\targets\CANVIEW4\lib\lld\libCANView4.a(Spansion_128Mb.o)
                0x200021f0                SpansionSpiTxState
                0x200021f1                SpansionSpiRxState
 .bss           0x20002208     0x22f0 C:\PROGRA~2\VT3_8920\VT3\RESOUR~1\targets\CANVIEW4\lib\lld\libCANView4.a(CAN.o)
 .bss           0x200044f8        0x0 C:\PROGRA~2\VT3_8920\VT3\RESOUR~1\targets\CANVIEW4\lib\lld\libCANView4.a(Generic_IO.o)
 .bss           0x200044f8        0x4 C:\PROGRA~2\VT3_8920\VT3\RESOUR~1\targets\CANVIEW4\lib\lld\libCANView4.a(RS232.o)
                0x200044f8                RX_CAL_BACK
 .bss           0x200044fc        0x0 C:\PROGRA~2\VT3_8920\VT3\RESOUR~1\targets\CANVIEW4\lib\lld\libCANView4.a(MD5.o)
 .bss           0x200044fc        0x0 C:\PROGRA~2\VT3_8920\VT3\RESOUR~1\targets\CANVIEW4\lib\lld\libCANView4.a(RTC.o)
 .bss           0x200044fc        0x0 C:\PROGRA~2\VT3_8920\VT3\RESOUR~1\targets\CANVIEW4\lib\lld\libCANView4.a(CANView4_Mem_RTC.o)
 .bss           0x200044fc        0x0 C:\PROGRA~2\VT3_8920\VT3\RESOUR~1\targets\CANVIEW4\lib\lld\libCANView4.a(TVP5150.o)
 .bss           0x200044fc      0x22c C:\PROGRA~2\VT3_8920\VT3\RESOUR~1\targets\CANVIEW4\lib\lld\libCANView4.a(USB_Utilities.o)
 .bss           0x20004728        0x0 C:\PROGRA~2\VT3_8920\VT3\RESOUR~1\targets\CANVIEW4\lib\lld\libCANView4.a(Utilities.o)
 .bss           0x20004728      0x220 C:\PROGRA~2\VT3_8920\VT3\RESOUR~1\targets\CANVIEW4\lib\lld\libCANView4.a(ff.o)
 .bss           0x20004948        0x0 C:\PROGRA~2\VT3_8920\VT3\RESOUR~1\targets\CANVIEW4\lib\lld\libCANView4.a(cmsis_os.o)
 .bss           0x20004948    0x10018 C:\PROGRA~2\VT3_8920\VT3\RESOUR~1\targets\CANVIEW4\lib\lld\libCANView4.a(heap_4.o)
 .bss           0x20014960        0x8 C:\PROGRA~2\VT3_8920\VT3\RESOUR~1\targets\CANVIEW4\lib\lld\libCANView4.a(port.o)
 .bss           0x20014968        0x0 C:\PROGRA~2\VT3_8920\VT3\RESOUR~1\targets\CANVIEW4\lib\lld\libCANView4.a(queue.o)
 .bss           0x20014968      0x124 C:\PROGRA~2\VT3_8920\VT3\RESOUR~1\targets\CANVIEW4\lib\lld\libCANView4.a(tasks.o)
                0x20014968                pxCurrentTCB
 .bss           0x20014a8c        0x0 C:\PROGRA~2\VT3_8920\VT3\RESOUR~1\targets\CANVIEW4\lib\lld\libCANView4.a(usbh_core.o)
 .bss           0x20014a8c        0x0 C:\PROGRA~2\VT3_8920\VT3\RESOUR~1\targets\CANVIEW4\lib\lld\libCANView4.a(usbh_ctlreq.o)
 .bss           0x20014a8c        0x0 C:\PROGRA~2\VT3_8920\VT3\RESOUR~1\targets\CANVIEW4\lib\lld\libCANView4.a(usbh_ioreq.o)
 .bss           0x20014a8c        0x0 C:\PROGRA~2\VT3_8920\VT3\RESOUR~1\targets\CANVIEW4\lib\lld\libCANView4.a(usbh_pipes.o)
 .bss           0x20014a8c        0x0 C:\PROGRA~2\VT3_8920\VT3\RESOUR~1\targets\CANVIEW4\lib\lld\libCANView4.a(fatfs.o)
 .bss           0x20014a8c       0x64 C:\PROGRA~2\VT3_8920\VT3\RESOUR~1\targets\CANVIEW4\lib\lld\libCANView4.a(stm32f4xx_hal_msp.o)
 .bss           0x20014af0        0x1 C:\PROGRA~2\VT3_8920\VT3\RESOUR~1\targets\CANVIEW4\lib\lld\libCANView4.a(usb_host.o)
                0x20014af0                Appli_state
 .bss           0x20014af1        0x0 C:\PROGRA~2\VT3_8920\VT3\RESOUR~1\targets\CANVIEW4\lib\lld\libCANView4.a(stm32f4xx_hal_adc.o)
 .bss           0x20014af1        0x0 C:\PROGRA~2\VT3_8920\VT3\RESOUR~1\targets\CANVIEW4\lib\lld\libCANView4.a(stm32f4xx_hal_adc_ex.o)
 *fill*         0x20014af1        0x3 
 .bss           0x20014af4        0x4 C:\PROGRA~2\VT3_8920\VT3\RESOUR~1\targets\CANVIEW4\lib\lld\libCANView4.a(stm32f4xx_hal_can.o)
 .bss           0x20014af8        0x0 C:\PROGRA~2\VT3_8920\VT3\RESOUR~1\targets\CANVIEW4\lib\lld\libCANView4.a(stm32f4xx_hal_dma2d.o)
 .bss           0x20014af8        0x0 C:\PROGRA~2\VT3_8920\VT3\RESOUR~1\targets\CANVIEW4\lib\lld\libCANView4.a(stm32f4xx_hal_flash.o)
 .bss           0x20014af8        0x0 C:\PROGRA~2\VT3_8920\VT3\RESOUR~1\targets\CANVIEW4\lib\lld\libCANView4.a(stm32f4xx_hal_flash_ex.o)
 .bss           0x20014af8        0x0 C:\PROGRA~2\VT3_8920\VT3\RESOUR~1\targets\CANVIEW4\lib\lld\libCANView4.a(stm32f4xx_hal_i2c.o)
 .bss           0x20014af8        0x0 C:\PROGRA~2\VT3_8920\VT3\RESOUR~1\targets\CANVIEW4\lib\lld\libCANView4.a(stm32f4xx_hal_ltdc.o)
 .bss           0x20014af8        0x0 C:\PROGRA~2\VT3_8920\VT3\RESOUR~1\targets\CANVIEW4\lib\lld\libCANView4.a(stm32f4xx_hal_pwr.o)
 .bss           0x20014af8        0x0 C:\PROGRA~2\VT3_8920\VT3\RESOUR~1\targets\CANVIEW4\lib\lld\libCANView4.a(stm32f4xx_hal_pwr_ex.o)
 .bss           0x20014af8        0x0 C:\PROGRA~2\VT3_8920\VT3\RESOUR~1\targets\CANVIEW4\lib\lld\libCANView4.a(stm32f4xx_hal_rcc_ex.o)
 .bss           0x20014af8        0x0 C:\PROGRA~2\VT3_8920\VT3\RESOUR~1\targets\CANVIEW4\lib\lld\libCANView4.a(stm32f4xx_hal_rtc.o)
 .bss           0x20014af8        0x0 C:\PROGRA~2\VT3_8920\VT3\RESOUR~1\targets\CANVIEW4\lib\lld\libCANView4.a(stm32f4xx_hal_rtc_ex.o)
 .bss           0x20014af8        0x0 C:\PROGRA~2\VT3_8920\VT3\RESOUR~1\targets\CANVIEW4\lib\lld\libCANView4.a(stm32f4xx_hal_sdram.o)
 .bss           0x20014af8        0x0 C:\PROGRA~2\VT3_8920\VT3\RESOUR~1\targets\CANVIEW4\lib\lld\libCANView4.a(stm32f4xx_hal_spi.o)
 .bss           0x20014af8        0x0 C:\PROGRA~2\VT3_8920\VT3\RESOUR~1\targets\CANVIEW4\lib\lld\libCANView4.a(stm32f4xx_ll_fmc.o)
 .bss           0x20014af8        0x0 C:\PROGRA~2\VT3_8920\VT3\RESOUR~1\targets\CANVIEW4\lib\lld\libCANView4.a(CRC32.o)
 .bss           0x20014af8        0x0 C:\PROGRA~2\VT3_8920\VT3\RESOUR~1\targets\CANVIEW4\lib\lld\libCANView4.a(ccsbcs.o)
 .bss           0x20014af8        0x0 C:\PROGRA~2\VT3_8920\VT3\RESOUR~1\targets\CANVIEW4\lib\lld\libCANView4.a(diskio.o)
 .bss           0x20014af8        0xc C:\PROGRA~2\VT3_8920\VT3\RESOUR~1\targets\CANVIEW4\lib\lld\libCANView4.a(ff_gen_drv.o)
                0x20014af8                disk
 .bss           0x20014b04        0x0 C:\PROGRA~2\VT3_8920\VT3\RESOUR~1\targets\CANVIEW4\lib\lld\libCANView4.a(usbh_diskio.o)
 .bss           0x20014b04        0x0 C:\PROGRA~2\VT3_8920\VT3\RESOUR~1\targets\CANVIEW4\lib\lld\libCANView4.a(list.o)
 .bss           0x20014b04        0x0 C:\PROGRA~2\VT3_8920\VT3\RESOUR~1\targets\CANVIEW4\lib\lld\libCANView4.a(usbh_msc.o)
 .bss           0x20014b04        0x0 C:\PROGRA~2\VT3_8920\VT3\RESOUR~1\targets\CANVIEW4\lib\lld\libCANView4.a(usbh_msc_bot.o)
 .bss           0x20014b04        0x0 C:\PROGRA~2\VT3_8920\VT3\RESOUR~1\targets\CANVIEW4\lib\lld\libCANView4.a(usbh_msc_scsi.o)
 .bss           0x20014b04        0x0 c:/program files (x86)/gnu tools arm embedded/5.2 2015q4/bin/../lib/gcc/arm-none-eabi/5.2.1/../../../../arm-none-eabi/lib/armv7e-m/fpu\libm.a(lib_a-s_cos.o)
 .bss           0x20014b04        0x0 c:/program files (x86)/gnu tools arm embedded/5.2 2015q4/bin/../lib/gcc/arm-none-eabi/5.2.1/../../../../arm-none-eabi/lib/armv7e-m/fpu\libm.a(lib_a-s_sin.o)
 .bss           0x20014b04        0x0 c:/program files (x86)/gnu tools arm embedded/5.2 2015q4/bin/../lib/gcc/arm-none-eabi/5.2.1/../../../../arm-none-eabi/lib/armv7e-m/fpu\libm.a(lib_a-sf_tan.o)
 .bss           0x20014b04        0x0 c:/program files (x86)/gnu tools arm embedded/5.2 2015q4/bin/../lib/gcc/arm-none-eabi/5.2.1/../../../../arm-none-eabi/lib/armv7e-m/fpu\libm.a(lib_a-w_acos.o)
 .bss           0x20014b04        0x0 c:/program files (x86)/gnu tools arm embedded/5.2 2015q4/bin/../lib/gcc/arm-none-eabi/5.2.1/../../../../arm-none-eabi/lib/armv7e-m/fpu\libm.a(lib_a-w_asin.o)
 .bss           0x20014b04        0x0 c:/program files (x86)/gnu tools arm embedded/5.2 2015q4/bin/../lib/gcc/arm-none-eabi/5.2.1/../../../../arm-none-eabi/lib/armv7e-m/fpu\libm.a(lib_a-w_pow.o)
 .bss           0x20014b04        0x0 c:/program files (x86)/gnu tools arm embedded/5.2 2015q4/bin/../lib/gcc/arm-none-eabi/5.2.1/../../../../arm-none-eabi/lib/armv7e-m/fpu\libm.a(lib_a-wf_exp.o)
 .bss           0x20014b04        0x0 c:/program files (x86)/gnu tools arm embedded/5.2 2015q4/bin/../lib/gcc/arm-none-eabi/5.2.1/../../../../arm-none-eabi/lib/armv7e-m/fpu\libm.a(lib_a-wf_log.o)
 .bss           0x20014b04        0x0 c:/program files (x86)/gnu tools arm embedded/5.2 2015q4/bin/../lib/gcc/arm-none-eabi/5.2.1/../../../../arm-none-eabi/lib/armv7e-m/fpu\libm.a(lib_a-wf_log10.o)
 .bss           0x20014b04        0x0 c:/program files (x86)/gnu tools arm embedded/5.2 2015q4/bin/../lib/gcc/arm-none-eabi/5.2.1/../../../../arm-none-eabi/lib/armv7e-m/fpu\libm.a(lib_a-wf_pow.o)
 .bss           0x20014b04        0x0 c:/program files (x86)/gnu tools arm embedded/5.2 2015q4/bin/../lib/gcc/arm-none-eabi/5.2.1/../../../../arm-none-eabi/lib/armv7e-m/fpu\libm.a(lib_a-wf_sqrt.o)
 .bss           0x20014b04        0x0 c:/program files (x86)/gnu tools arm embedded/5.2 2015q4/bin/../lib/gcc/arm-none-eabi/5.2.1/../../../../arm-none-eabi/lib/armv7e-m/fpu\libm.a(lib_a-e_acos.o)
 .bss           0x20014b04        0x0 c:/program files (x86)/gnu tools arm embedded/5.2 2015q4/bin/../lib/gcc/arm-none-eabi/5.2.1/../../../../arm-none-eabi/lib/armv7e-m/fpu\libm.a(lib_a-e_asin.o)
 .bss           0x20014b04        0x0 c:/program files (x86)/gnu tools arm embedded/5.2 2015q4/bin/../lib/gcc/arm-none-eabi/5.2.1/../../../../arm-none-eabi/lib/armv7e-m/fpu\libm.a(lib_a-e_pow.o)
 .bss           0x20014b04        0x0 c:/program files (x86)/gnu tools arm embedded/5.2 2015q4/bin/../lib/gcc/arm-none-eabi/5.2.1/../../../../arm-none-eabi/lib/armv7e-m/fpu\libm.a(lib_a-e_rem_pio2.o)
 .bss           0x20014b04        0x0 c:/program files (x86)/gnu tools arm embedded/5.2 2015q4/bin/../lib/gcc/arm-none-eabi/5.2.1/../../../../arm-none-eabi/lib/armv7e-m/fpu\libm.a(lib_a-e_sqrt.o)
 .bss           0x20014b04        0x0 c:/program files (x86)/gnu tools arm embedded/5.2 2015q4/bin/../lib/gcc/arm-none-eabi/5.2.1/../../../../arm-none-eabi/lib/armv7e-m/fpu\libm.a(lib_a-ef_exp.o)
 .bss           0x20014b04        0x0 c:/program files (x86)/gnu tools arm embedded/5.2 2015q4/bin/../lib/gcc/arm-none-eabi/5.2.1/../../../../arm-none-eabi/lib/armv7e-m/fpu\libm.a(lib_a-ef_log.o)
 .bss           0x20014b04        0x0 c:/program files (x86)/gnu tools arm embedded/5.2 2015q4/bin/../lib/gcc/arm-none-eabi/5.2.1/../../../../arm-none-eabi/lib/armv7e-m/fpu\libm.a(lib_a-ef_log10.o)
 .bss           0x20014b04        0x0 c:/program files (x86)/gnu tools arm embedded/5.2 2015q4/bin/../lib/gcc/arm-none-eabi/5.2.1/../../../../arm-none-eabi/lib/armv7e-m/fpu\libm.a(lib_a-ef_pow.o)
 .bss           0x20014b04        0x0 c:/program files (x86)/gnu tools arm embedded/5.2 2015q4/bin/../lib/gcc/arm-none-eabi/5.2.1/../../../../arm-none-eabi/lib/armv7e-m/fpu\libm.a(lib_a-ef_rem_pio2.o)
 .bss           0x20014b04        0x0 c:/program files (x86)/gnu tools arm embedded/5.2 2015q4/bin/../lib/gcc/arm-none-eabi/5.2.1/../../../../arm-none-eabi/lib/armv7e-m/fpu\libm.a(lib_a-ef_sqrt.o)
 .bss           0x20014b04        0x0 c:/program files (x86)/gnu tools arm embedded/5.2 2015q4/bin/../lib/gcc/arm-none-eabi/5.2.1/../../../../arm-none-eabi/lib/armv7e-m/fpu\libm.a(lib_a-k_cos.o)
 .bss           0x20014b04        0x0 c:/program files (x86)/gnu tools arm embedded/5.2 2015q4/bin/../lib/gcc/arm-none-eabi/5.2.1/../../../../arm-none-eabi/lib/armv7e-m/fpu\libm.a(lib_a-k_rem_pio2.o)
 .bss           0x20014b04        0x0 c:/program files (x86)/gnu tools arm embedded/5.2 2015q4/bin/../lib/gcc/arm-none-eabi/5.2.1/../../../../arm-none-eabi/lib/armv7e-m/fpu\libm.a(lib_a-k_sin.o)
 .bss           0x20014b04        0x0 c:/program files (x86)/gnu tools arm embedded/5.2 2015q4/bin/../lib/gcc/arm-none-eabi/5.2.1/../../../../arm-none-eabi/lib/armv7e-m/fpu\libm.a(lib_a-kf_rem_pio2.o)
 .bss           0x20014b04        0x0 c:/program files (x86)/gnu tools arm embedded/5.2 2015q4/bin/../lib/gcc/arm-none-eabi/5.2.1/../../../../arm-none-eabi/lib/armv7e-m/fpu\libm.a(lib_a-kf_tan.o)
 .bss           0x20014b04        0x0 c:/program files (x86)/gnu tools arm embedded/5.2 2015q4/bin/../lib/gcc/arm-none-eabi/5.2.1/../../../../arm-none-eabi/lib/armv7e-m/fpu\libm.a(lib_a-s_fabs.o)
 .bss           0x20014b04        0x0 c:/program files (x86)/gnu tools arm embedded/5.2 2015q4/bin/../lib/gcc/arm-none-eabi/5.2.1/../../../../arm-none-eabi/lib/armv7e-m/fpu\libm.a(lib_a-s_finite.o)
 .bss           0x20014b04        0x0 c:/program files (x86)/gnu tools arm embedded/5.2 2015q4/bin/../lib/gcc/arm-none-eabi/5.2.1/../../../../arm-none-eabi/lib/armv7e-m/fpu\libm.a(lib_a-s_floor.o)
 .bss           0x20014b04        0x0 c:/program files (x86)/gnu tools arm embedded/5.2 2015q4/bin/../lib/gcc/arm-none-eabi/5.2.1/../../../../arm-none-eabi/lib/armv7e-m/fpu\libm.a(lib_a-s_fpclassify.o)
 .bss           0x20014b04        0x0 c:/program files (x86)/gnu tools arm embedded/5.2 2015q4/bin/../lib/gcc/arm-none-eabi/5.2.1/../../../../arm-none-eabi/lib/armv7e-m/fpu\libm.a(lib_a-s_lib_ver.o)
 .bss           0x20014b04        0x0 c:/program files (x86)/gnu tools arm embedded/5.2 2015q4/bin/../lib/gcc/arm-none-eabi/5.2.1/../../../../arm-none-eabi/lib/armv7e-m/fpu\libm.a(lib_a-s_matherr.o)
 .bss           0x20014b04        0x0 c:/program files (x86)/gnu tools arm embedded/5.2 2015q4/bin/../lib/gcc/arm-none-eabi/5.2.1/../../../../arm-none-eabi/lib/armv7e-m/fpu\libm.a(lib_a-s_nan.o)
 .bss           0x20014b04        0x0 c:/program files (x86)/gnu tools arm embedded/5.2 2015q4/bin/../lib/gcc/arm-none-eabi/5.2.1/../../../../arm-none-eabi/lib/armv7e-m/fpu\libm.a(lib_a-s_rint.o)
 .bss           0x20014b04        0x0 c:/program files (x86)/gnu tools arm embedded/5.2 2015q4/bin/../lib/gcc/arm-none-eabi/5.2.1/../../../../arm-none-eabi/lib/armv7e-m/fpu\libm.a(lib_a-s_scalbn.o)
 .bss           0x20014b04        0x0 c:/program files (x86)/gnu tools arm embedded/5.2 2015q4/bin/../lib/gcc/arm-none-eabi/5.2.1/../../../../arm-none-eabi/lib/armv7e-m/fpu\libm.a(lib_a-sf_fabs.o)
 .bss           0x20014b04        0x0 c:/program files (x86)/gnu tools arm embedded/5.2 2015q4/bin/../lib/gcc/arm-none-eabi/5.2.1/../../../../arm-none-eabi/lib/armv7e-m/fpu\libm.a(lib_a-sf_finite.o)
 .bss           0x20014b04        0x0 c:/program files (x86)/gnu tools arm embedded/5.2 2015q4/bin/../lib/gcc/arm-none-eabi/5.2.1/../../../../arm-none-eabi/lib/armv7e-m/fpu\libm.a(lib_a-sf_floor.o)
 .bss           0x20014b04        0x0 c:/program files (x86)/gnu tools arm embedded/5.2 2015q4/bin/../lib/gcc/arm-none-eabi/5.2.1/../../../../arm-none-eabi/lib/armv7e-m/fpu\libm.a(lib_a-sf_fpclassify.o)
 .bss           0x20014b04        0x0 c:/program files (x86)/gnu tools arm embedded/5.2 2015q4/bin/../lib/gcc/arm-none-eabi/5.2.1/../../../../arm-none-eabi/lib/armv7e-m/fpu\libm.a(lib_a-sf_nan.o)
 .bss           0x20014b04        0x0 c:/program files (x86)/gnu tools arm embedded/5.2 2015q4/bin/../lib/gcc/arm-none-eabi/5.2.1/../../../../arm-none-eabi/lib/armv7e-m/fpu\libm.a(lib_a-sf_scalbn.o)
 .bss           0x20014b04        0x0 c:/program files (x86)/gnu tools arm embedded/5.2 2015q4/bin/../lib/gcc/arm-none-eabi/5.2.1/../../../../arm-none-eabi/lib/armv7e-m/fpu\libm.a(lib_a-s_copysign.o)
 .bss           0x20014b04        0x0 c:/program files (x86)/gnu tools arm embedded/5.2 2015q4/bin/../lib/gcc/arm-none-eabi/5.2.1/../../../../arm-none-eabi/lib/armv7e-m/fpu\libm.a(lib_a-sf_copysign.o)
 .bss           0x20014b04        0x0 c:/program files (x86)/gnu tools arm embedded/5.2 2015q4/bin/../lib/gcc/arm-none-eabi/5.2.1/armv7e-m/fpu\libgcc.a(_arm_addsubdf3.o)
 .bss           0x20014b04        0x0 c:/program files (x86)/gnu tools arm embedded/5.2 2015q4/bin/../lib/gcc/arm-none-eabi/5.2.1/armv7e-m/fpu\libgcc.a(_arm_muldivdf3.o)
 .bss           0x20014b04        0x0 c:/program files (x86)/gnu tools arm embedded/5.2 2015q4/bin/../lib/gcc/arm-none-eabi/5.2.1/armv7e-m/fpu\libgcc.a(_arm_cmpdf2.o)
 .bss           0x20014b04        0x0 c:/program files (x86)/gnu tools arm embedded/5.2 2015q4/bin/../lib/gcc/arm-none-eabi/5.2.1/armv7e-m/fpu\libgcc.a(_arm_fixdfsi.o)
 .bss           0x20014b04        0x0 c:/program files (x86)/gnu tools arm embedded/5.2 2015q4/bin/../lib/gcc/arm-none-eabi/5.2.1/armv7e-m/fpu\libgcc.a(_arm_truncdfsf2.o)
 .bss           0x20014b04        0x0 c:/program files (x86)/gnu tools arm embedded/5.2 2015q4/bin/../lib/gcc/arm-none-eabi/5.2.1/../../../../arm-none-eabi/lib/armv7e-m/fpu\libc.a(lib_a-atof.o)
 .bss           0x20014b04        0x0 c:/program files (x86)/gnu tools arm embedded/5.2 2015q4/bin/../lib/gcc/arm-none-eabi/5.2.1/../../../../arm-none-eabi/lib/armv7e-m/fpu\libc.a(lib_a-atoi.o)
 .bss           0x20014b04        0x0 c:/program files (x86)/gnu tools arm embedded/5.2 2015q4/bin/../lib/gcc/arm-none-eabi/5.2.1/../../../../arm-none-eabi/lib/armv7e-m/fpu\libc.a(lib_a-atol.o)
 .bss           0x20014b04        0x0 c:/program files (x86)/gnu tools arm embedded/5.2 2015q4/bin/../lib/gcc/arm-none-eabi/5.2.1/../../../../arm-none-eabi/lib/armv7e-m/fpu\libc.a(lib_a-bsearch.o)
 .bss           0x20014b04        0x0 c:/program files (x86)/gnu tools arm embedded/5.2 2015q4/bin/../lib/gcc/arm-none-eabi/5.2.1/../../../../arm-none-eabi/lib/armv7e-m/fpu\libc.a(lib_a-errno.o)
 .bss           0x20014b04        0x0 c:/program files (x86)/gnu tools arm embedded/5.2 2015q4/bin/../lib/gcc/arm-none-eabi/5.2.1/../../../../arm-none-eabi/lib/armv7e-m/fpu\libc.a(lib_a-exit.o)
 .bss           0x20014b04        0x0 c:/program files (x86)/gnu tools arm embedded/5.2 2015q4/bin/../lib/gcc/arm-none-eabi/5.2.1/../../../../arm-none-eabi/lib/armv7e-m/fpu\libc.a(lib_a-fclose.o)
 .bss           0x20014b04        0x0 c:/program files (x86)/gnu tools arm embedded/5.2 2015q4/bin/../lib/gcc/arm-none-eabi/5.2.1/../../../../arm-none-eabi/lib/armv7e-m/fpu\libc.a(lib_a-fflush.o)
 .bss           0x20014b04        0x0 c:/program files (x86)/gnu tools arm embedded/5.2 2015q4/bin/../lib/gcc/arm-none-eabi/5.2.1/../../../../arm-none-eabi/lib/armv7e-m/fpu\libc.a(lib_a-findfp.o)
 .bss           0x20014b04        0x0 c:/program files (x86)/gnu tools arm embedded/5.2 2015q4/bin/../lib/gcc/arm-none-eabi/5.2.1/../../../../arm-none-eabi/lib/armv7e-m/fpu\libc.a(lib_a-fopen.o)
 .bss           0x20014b04        0x0 c:/program files (x86)/gnu tools arm embedded/5.2 2015q4/bin/../lib/gcc/arm-none-eabi/5.2.1/../../../../arm-none-eabi/lib/armv7e-m/fpu\libc.a(lib_a-fread.o)
 .bss           0x20014b04        0x0 c:/program files (x86)/gnu tools arm embedded/5.2 2015q4/bin/../lib/gcc/arm-none-eabi/5.2.1/../../../../arm-none-eabi/lib/armv7e-m/fpu\libc.a(lib_a-freer.o)
 .bss           0x20014b04        0x0 c:/program files (x86)/gnu tools arm embedded/5.2 2015q4/bin/../lib/gcc/arm-none-eabi/5.2.1/../../../../arm-none-eabi/lib/armv7e-m/fpu\libc.a(lib_a-fseek.o)
 .bss           0x20014b04        0x0 c:/program files (x86)/gnu tools arm embedded/5.2 2015q4/bin/../lib/gcc/arm-none-eabi/5.2.1/../../../../arm-none-eabi/lib/armv7e-m/fpu\libc.a(lib_a-fseeko.o)
 .bss           0x20014b04        0x0 c:/program files (x86)/gnu tools arm embedded/5.2 2015q4/bin/../lib/gcc/arm-none-eabi/5.2.1/../../../../arm-none-eabi/lib/armv7e-m/fpu\libc.a(lib_a-fstatr.o)
 .bss           0x20014b04        0x0 c:/program files (x86)/gnu tools arm embedded/5.2 2015q4/bin/../lib/gcc/arm-none-eabi/5.2.1/../../../../arm-none-eabi/lib/armv7e-m/fpu\libc.a(lib_a-fwalk.o)
 .bss           0x20014b04        0x0 c:/program files (x86)/gnu tools arm embedded/5.2 2015q4/bin/../lib/gcc/arm-none-eabi/5.2.1/../../../../arm-none-eabi/lib/armv7e-m/fpu\libc.a(lib_a-impure.o)
 .bss           0x20014b04        0x0 c:/program files (x86)/gnu tools arm embedded/5.2 2015q4/bin/../lib/gcc/arm-none-eabi/5.2.1/../../../../arm-none-eabi/lib/armv7e-m/fpu\libc.a(lib_a-init.o)
 .bss           0x20014b04        0x0 c:/program files (x86)/gnu tools arm embedded/5.2 2015q4/bin/../lib/gcc/arm-none-eabi/5.2.1/../../../../arm-none-eabi/lib/armv7e-m/fpu\libc.a(lib_a-isalnum.o)
 .bss           0x20014b04        0x0 c:/program files (x86)/gnu tools arm embedded/5.2 2015q4/bin/../lib/gcc/arm-none-eabi/5.2.1/../../../../arm-none-eabi/lib/armv7e-m/fpu\libc.a(lib_a-isalpha.o)
 .bss           0x20014b04        0x0 c:/program files (x86)/gnu tools arm embedded/5.2 2015q4/bin/../lib/gcc/arm-none-eabi/5.2.1/../../../../arm-none-eabi/lib/armv7e-m/fpu\libc.a(lib_a-islower.o)
 .bss           0x20014b04        0x0 c:/program files (x86)/gnu tools arm embedded/5.2 2015q4/bin/../lib/gcc/arm-none-eabi/5.2.1/../../../../arm-none-eabi/lib/armv7e-m/fpu\libc.a(lib_a-isspace.o)
 .bss           0x20014b04        0x0 c:/program files (x86)/gnu tools arm embedded/5.2 2015q4/bin/../lib/gcc/arm-none-eabi/5.2.1/../../../../arm-none-eabi/lib/armv7e-m/fpu\libc.a(lib_a-isupper.o)
 .bss           0x20014b04        0x0 c:/program files (x86)/gnu tools arm embedded/5.2 2015q4/bin/../lib/gcc/arm-none-eabi/5.2.1/../../../../arm-none-eabi/lib/armv7e-m/fpu\libc.a(lib_a-isxdigit.o)
 .bss           0x20014b04        0x0 c:/program files (x86)/gnu tools arm embedded/5.2 2015q4/bin/../lib/gcc/arm-none-eabi/5.2.1/../../../../arm-none-eabi/lib/armv7e-m/fpu\libc.a(lib_a-makebuf.o)
 .bss           0x20014b04        0x0 c:/program files (x86)/gnu tools arm embedded/5.2 2015q4/bin/../lib/gcc/arm-none-eabi/5.2.1/../../../../arm-none-eabi/lib/armv7e-m/fpu\libc.a(lib_a-malloc.o)
 .bss           0x20014b04        0x0 c:/program files (x86)/gnu tools arm embedded/5.2 2015q4/bin/../lib/gcc/arm-none-eabi/5.2.1/../../../../arm-none-eabi/lib/armv7e-m/fpu\libc.a(lib_a-mallocr.o)
 .bss           0x20014b04        0x0 c:/program files (x86)/gnu tools arm embedded/5.2 2015q4/bin/../lib/gcc/arm-none-eabi/5.2.1/../../../../arm-none-eabi/lib/armv7e-m/fpu\libc.a(lib_a-memcmp.o)
 .bss           0x20014b04        0x0 c:/program files (x86)/gnu tools arm embedded/5.2 2015q4/bin/../lib/gcc/arm-none-eabi/5.2.1/../../../../arm-none-eabi/lib/armv7e-m/fpu\libc.a(lib_a-memcpy.o)
 .bss           0x20014b04        0x0 c:/program files (x86)/gnu tools arm embedded/5.2 2015q4/bin/../lib/gcc/arm-none-eabi/5.2.1/../../../../arm-none-eabi/lib/armv7e-m/fpu\libc.a(lib_a-memset.o)
 .bss           0x20014b04        0x0 c:/program files (x86)/gnu tools arm embedded/5.2 2015q4/bin/../lib/gcc/arm-none-eabi/5.2.1/../../../../arm-none-eabi/lib/armv7e-m/fpu\libc.a(lib_a-mlock.o)
 .bss           0x20014b04        0x0 c:/program files (x86)/gnu tools arm embedded/5.2 2015q4/bin/../lib/gcc/arm-none-eabi/5.2.1/../../../../arm-none-eabi/lib/armv7e-m/fpu\libc.a(lib_a-openr.o)
 .bss           0x20014b04        0x0 c:/program files (x86)/gnu tools arm embedded/5.2 2015q4/bin/../lib/gcc/arm-none-eabi/5.2.1/../../../../arm-none-eabi/lib/armv7e-m/fpu\libc.a(lib_a-printf.o)
 .bss           0x20014b04        0x0 c:/program files (x86)/gnu tools arm embedded/5.2 2015q4/bin/../lib/gcc/arm-none-eabi/5.2.1/../../../../arm-none-eabi/lib/armv7e-m/fpu\libc.a(lib_a-rand.o)
 .bss           0x20014b04        0x0 c:/program files (x86)/gnu tools arm embedded/5.2 2015q4/bin/../lib/gcc/arm-none-eabi/5.2.1/../../../../arm-none-eabi/lib/armv7e-m/fpu\libc.a(lib_a-reent.o)
 .bss           0x20014b04        0x0 c:/program files (x86)/gnu tools arm embedded/5.2 2015q4/bin/../lib/gcc/arm-none-eabi/5.2.1/../../../../arm-none-eabi/lib/armv7e-m/fpu\libc.a(lib_a-refill.o)
 .bss           0x20014b04        0x0 c:/program files (x86)/gnu tools arm embedded/5.2 2015q4/bin/../lib/gcc/arm-none-eabi/5.2.1/../../../../arm-none-eabi/lib/armv7e-m/fpu\libc.a(lib_a-sbrkr.o)
 .bss           0x20014b04        0x0 c:/program files (x86)/gnu tools arm embedded/5.2 2015q4/bin/../lib/gcc/arm-none-eabi/5.2.1/../../../../arm-none-eabi/lib/armv7e-m/fpu\libc.a(lib_a-sprintf.o)
 .bss           0x20014b04        0x0 c:/program files (x86)/gnu tools arm embedded/5.2 2015q4/bin/../lib/gcc/arm-none-eabi/5.2.1/../../../../arm-none-eabi/lib/armv7e-m/fpu\libc.a(lib_a-stdio.o)
 .bss           0x20014b04        0x0 c:/program files (x86)/gnu tools arm embedded/5.2 2015q4/bin/../lib/gcc/arm-none-eabi/5.2.1/../../../../arm-none-eabi/lib/armv7e-m/fpu\libc.a(lib_a-strcat.o)
 .bss           0x20014b04        0x0 c:/program files (x86)/gnu tools arm embedded/5.2 2015q4/bin/../lib/gcc/arm-none-eabi/5.2.1/../../../../arm-none-eabi/lib/armv7e-m/fpu\libc.a(lib_a-strchr.o)
 .bss           0x20014b04        0x0 c:/program files (x86)/gnu tools arm embedded/5.2 2015q4/bin/../lib/gcc/arm-none-eabi/5.2.1/../../../../arm-none-eabi/lib/armv7e-m/fpu\libc.a(lib_a-strcmp.o)
 .bss           0x20014b04        0x0 c:/program files (x86)/gnu tools arm embedded/5.2 2015q4/bin/../lib/gcc/arm-none-eabi/5.2.1/../../../../arm-none-eabi/lib/armv7e-m/fpu\libc.a(lib_a-strcpy.o)
 .bss           0x20014b04        0x0 c:/program files (x86)/gnu tools arm embedded/5.2 2015q4/bin/../lib/gcc/arm-none-eabi/5.2.1/../../../../arm-none-eabi/lib/armv7e-m/fpu\libc.a(lib_a-strlcat.o)
 .bss           0x20014b04        0x0 c:/program files (x86)/gnu tools arm embedded/5.2 2015q4/bin/../lib/gcc/arm-none-eabi/5.2.1/../../../../arm-none-eabi/lib/armv7e-m/fpu\libc.a(lib_a-strlen.o)
 .bss           0x20014b04        0x0 c:/program files (x86)/gnu tools arm embedded/5.2 2015q4/bin/../lib/gcc/arm-none-eabi/5.2.1/../../../../arm-none-eabi/lib/armv7e-m/fpu\libc.a(lib_a-strncpy.o)
 .bss           0x20014b04        0x0 c:/program files (x86)/gnu tools arm embedded/5.2 2015q4/bin/../lib/gcc/arm-none-eabi/5.2.1/../../../../arm-none-eabi/lib/armv7e-m/fpu\libc.a(lib_a-strtod.o)
 .bss           0x20014b04        0x0 c:/program files (x86)/gnu tools arm embedded/5.2 2015q4/bin/../lib/gcc/arm-none-eabi/5.2.1/../../../../arm-none-eabi/lib/armv7e-m/fpu\libc.a(lib_a-strtol.o)
 .bss           0x20014b04        0x0 c:/program files (x86)/gnu tools arm embedded/5.2 2015q4/bin/../lib/gcc/arm-none-eabi/5.2.1/../../../../arm-none-eabi/lib/armv7e-m/fpu\libc.a(lib_a-svfprintf.o)
 .bss           0x20014b04        0x0 c:/program files (x86)/gnu tools arm embedded/5.2 2015q4/bin/../lib/gcc/arm-none-eabi/5.2.1/../../../../arm-none-eabi/lib/armv7e-m/fpu\libc.a(lib_a-vfprintf.o)
 .bss           0x20014b04        0x0 c:/program files (x86)/gnu tools arm embedded/5.2 2015q4/bin/../lib/gcc/arm-none-eabi/5.2.1/../../../../arm-none-eabi/lib/armv7e-m/fpu\libc.a(lib_a-writer.o)
 .bss           0x20014b04        0x0 c:/program files (x86)/gnu tools arm embedded/5.2 2015q4/bin/../lib/gcc/arm-none-eabi/5.2.1/../../../../arm-none-eabi/lib/armv7e-m/fpu\libc.a(lib_a-wsetup.o)
 .bss           0x20014b04        0x0 c:/program files (x86)/gnu tools arm embedded/5.2 2015q4/bin/../lib/gcc/arm-none-eabi/5.2.1/../../../../arm-none-eabi/lib/armv7e-m/fpu\libc.a(lib_a-__call_atexit.o)
 .bss           0x20014b04        0x0 c:/program files (x86)/gnu tools arm embedded/5.2 2015q4/bin/../lib/gcc/arm-none-eabi/5.2.1/../../../../arm-none-eabi/lib/armv7e-m/fpu\libc.a(lib_a-atexit.o)
 .bss           0x20014b04        0x0 c:/program files (x86)/gnu tools arm embedded/5.2 2015q4/bin/../lib/gcc/arm-none-eabi/5.2.1/../../../../arm-none-eabi/lib/armv7e-m/fpu\libc.a(lib_a-closer.o)
 .bss           0x20014b04        0x0 c:/program files (x86)/gnu tools arm embedded/5.2 2015q4/bin/../lib/gcc/arm-none-eabi/5.2.1/../../../../arm-none-eabi/lib/armv7e-m/fpu\libc.a(lib_a-ctype_.o)
 .bss           0x20014b04        0x0 c:/program files (x86)/gnu tools arm embedded/5.2 2015q4/bin/../lib/gcc/arm-none-eabi/5.2.1/../../../../arm-none-eabi/lib/armv7e-m/fpu\libc.a(lib_a-dtoa.o)
 .bss           0x20014b04        0x0 c:/program files (x86)/gnu tools arm embedded/5.2 2015q4/bin/../lib/gcc/arm-none-eabi/5.2.1/../../../../arm-none-eabi/lib/armv7e-m/fpu\libc.a(lib_a-fini.o)
 .bss           0x20014b04        0x0 c:/program files (x86)/gnu tools arm embedded/5.2 2015q4/bin/../lib/gcc/arm-none-eabi/5.2.1/../../../../arm-none-eabi/lib/armv7e-m/fpu\libc.a(lib_a-flags.o)
 .bss           0x20014b04        0x0 c:/program files (x86)/gnu tools arm embedded/5.2 2015q4/bin/../lib/gcc/arm-none-eabi/5.2.1/../../../../arm-none-eabi/lib/armv7e-m/fpu\libc.a(lib_a-gdtoa-gethex.o)
 .bss           0x20014b04        0x0 c:/program files (x86)/gnu tools arm embedded/5.2 2015q4/bin/../lib/gcc/arm-none-eabi/5.2.1/../../../../arm-none-eabi/lib/armv7e-m/fpu\libc.a(lib_a-gdtoa-hexnan.o)
 .bss           0x20014b04        0x0 c:/program files (x86)/gnu tools arm embedded/5.2 2015q4/bin/../lib/gcc/arm-none-eabi/5.2.1/../../../../arm-none-eabi/lib/armv7e-m/fpu\libc.a(lib_a-isattyr.o)
 .bss           0x20014b04        0x0 c:/program files (x86)/gnu tools arm embedded/5.2 2015q4/bin/../lib/gcc/arm-none-eabi/5.2.1/../../../../arm-none-eabi/lib/armv7e-m/fpu\libc.a(lib_a-locale.o)
 .bss           0x20014b04        0x0 c:/program files (x86)/gnu tools arm embedded/5.2 2015q4/bin/../lib/gcc/arm-none-eabi/5.2.1/../../../../arm-none-eabi/lib/armv7e-m/fpu\libc.a(lib_a-lseekr.o)
 .bss           0x20014b04        0x0 c:/program files (x86)/gnu tools arm embedded/5.2 2015q4/bin/../lib/gcc/arm-none-eabi/5.2.1/../../../../arm-none-eabi/lib/armv7e-m/fpu\libc.a(lib_a-memchr.o)
 .bss           0x20014b04        0x0 c:/program files (x86)/gnu tools arm embedded/5.2 2015q4/bin/../lib/gcc/arm-none-eabi/5.2.1/../../../../arm-none-eabi/lib/armv7e-m/fpu\libc.a(lib_a-mprec.o)
 .bss           0x20014b04        0x0 c:/program files (x86)/gnu tools arm embedded/5.2 2015q4/bin/../lib/gcc/arm-none-eabi/5.2.1/../../../../arm-none-eabi/lib/armv7e-m/fpu\libc.a(lib_a-readr.o)
 .bss           0x20014b04        0x0 c:/program files (x86)/gnu tools arm embedded/5.2 2015q4/bin/../lib/gcc/arm-none-eabi/5.2.1/../../../../arm-none-eabi/lib/armv7e-m/fpu\libc.a(lib_a-strncmp.o)
 .bss           0x20014b04        0x0 c:/program files (x86)/gnu tools arm embedded/5.2 2015q4/bin/../lib/gcc/arm-none-eabi/5.2.1/../../../../arm-none-eabi/lib/armv7e-m/fpu\libc.a(lib_a-svfiprintf.o)
 .bss           0x20014b04        0x0 c:/program files (x86)/gnu tools arm embedded/5.2 2015q4/bin/../lib/gcc/arm-none-eabi/5.2.1/../../../../arm-none-eabi/lib/armv7e-m/fpu\libc.a(lib_a-vfiprintf.o)
 .bss           0x20014b04        0x0 c:/program files (x86)/gnu tools arm embedded/5.2 2015q4/bin/../lib/gcc/arm-none-eabi/5.2.1/../../../../arm-none-eabi/lib/armv7e-m/fpu\libc.a(lib_a-__atexit.o)
 .bss           0x20014b04        0x0 c:/program files (x86)/gnu tools arm embedded/5.2 2015q4/bin/../lib/gcc/arm-none-eabi/5.2.1/../../../../arm-none-eabi/lib/armv7e-m/fpu\libc.a(lib_a-callocr.o)
 .bss           0x20014b04        0x0 c:/program files (x86)/gnu tools arm embedded/5.2 2015q4/bin/../lib/gcc/arm-none-eabi/5.2.1/../../../../arm-none-eabi/lib/armv7e-m/fpu\libc.a(lib_a-fputwc.o)
 .bss           0x20014b04        0x0 c:/program files (x86)/gnu tools arm embedded/5.2 2015q4/bin/../lib/gcc/arm-none-eabi/5.2.1/../../../../arm-none-eabi/lib/armv7e-m/fpu\libc.a(lib_a-fvwrite.o)
 .bss           0x20014b04        0x0 c:/program files (x86)/gnu tools arm embedded/5.2 2015q4/bin/../lib/gcc/arm-none-eabi/5.2.1/../../../../arm-none-eabi/lib/armv7e-m/fpu\libc.a(lib_a-memmove.o)
 .bss           0x20014b04        0x0 c:/program files (x86)/gnu tools arm embedded/5.2 2015q4/bin/../lib/gcc/arm-none-eabi/5.2.1/../../../../arm-none-eabi/lib/armv7e-m/fpu\libc.a(lib_a-reallocr.o)
 .bss           0x20014b04        0x0 c:/program files (x86)/gnu tools arm embedded/5.2 2015q4/bin/../lib/gcc/arm-none-eabi/5.2.1/../../../../arm-none-eabi/lib/armv7e-m/fpu\libc.a(lib_a-wbuf.o)
 .bss           0x20014b04        0x0 c:/program files (x86)/gnu tools arm embedded/5.2 2015q4/bin/../lib/gcc/arm-none-eabi/5.2.1/../../../../arm-none-eabi/lib/armv7e-m/fpu\libc.a(lib_a-wcrtomb.o)
 .bss           0x20014b04        0x0 c:/program files (x86)/gnu tools arm embedded/5.2 2015q4/bin/../lib/gcc/arm-none-eabi/5.2.1/../../../../arm-none-eabi/lib/armv7e-m/fpu\libc.a(lib_a-wctomb_r.o)
 .bss           0x20014b04        0x0 c:/program files (x86)/gnu tools arm embedded/5.2 2015q4/bin/../lib/gcc/arm-none-eabi/5.2.1/armv7e-m/fpu\libgcc.a(_arm_fixunsdfsi.o)
 .bss           0x20014b04        0x0 c:/program files (x86)/gnu tools arm embedded/5.2 2015q4/bin/../lib/gcc/arm-none-eabi/5.2.1/armv7e-m/fpu\libgcc.a(_aeabi_uldivmod.o)
 .bss           0x20014b04        0x0 c:/program files (x86)/gnu tools arm embedded/5.2 2015q4/bin/../lib/gcc/arm-none-eabi/5.2.1/armv7e-m/fpu\libgcc.a(_udivmoddi4.o)
 .bss           0x20014b04        0x0 c:/program files (x86)/gnu tools arm embedded/5.2 2015q4/bin/../lib/gcc/arm-none-eabi/5.2.1/armv7e-m/fpu\libgcc.a(_dvmd_tls.o)
 .bss           0x20014b04        0x0 c:/program files (x86)/gnu tools arm embedded/5.2 2015q4/bin/../lib/gcc/arm-none-eabi/5.2.1/../../../../arm-none-eabi/lib/armv7e-m/fpu\libnosys.a(close.o)
 .bss           0x20014b04        0x0 c:/program files (x86)/gnu tools arm embedded/5.2 2015q4/bin/../lib/gcc/arm-none-eabi/5.2.1/../../../../arm-none-eabi/lib/armv7e-m/fpu\libnosys.a(fstat.o)
 .bss           0x20014b04        0x0 c:/program files (x86)/gnu tools arm embedded/5.2 2015q4/bin/../lib/gcc/arm-none-eabi/5.2.1/../../../../arm-none-eabi/lib/armv7e-m/fpu\libnosys.a(isatty.o)
 .bss           0x20014b04        0x0 c:/program files (x86)/gnu tools arm embedded/5.2 2015q4/bin/../lib/gcc/arm-none-eabi/5.2.1/../../../../arm-none-eabi/lib/armv7e-m/fpu\libnosys.a(lseek.o)
 .bss           0x20014b04        0x0 c:/program files (x86)/gnu tools arm embedded/5.2 2015q4/bin/../lib/gcc/arm-none-eabi/5.2.1/../../../../arm-none-eabi/lib/armv7e-m/fpu\libnosys.a(open.o)
 .bss           0x20014b04        0x0 c:/program files (x86)/gnu tools arm embedded/5.2 2015q4/bin/../lib/gcc/arm-none-eabi/5.2.1/../../../../arm-none-eabi/lib/armv7e-m/fpu\libnosys.a(read.o)
 .bss           0x20014b04        0x0 c:/program files (x86)/gnu tools arm embedded/5.2 2015q4/bin/../lib/gcc/arm-none-eabi/5.2.1/../../../../arm-none-eabi/lib/armv7e-m/fpu\libnosys.a(write.o)
 .bss           0x20014b04        0x0 c:/program files (x86)/gnu tools arm embedded/5.2 2015q4/bin/../lib/gcc/arm-none-eabi/5.2.1/../../../../arm-none-eabi/lib/armv7e-m/fpu\libnosys.a(_exit.o)
 .bss           0x20014b04        0x0 c:/program files (x86)/gnu tools arm embedded/5.2 2015q4/bin/../lib/gcc/arm-none-eabi/5.2.1/armv7e-m/fpu/crtend.o
 .bss           0x20014b04        0x0 c:/program files (x86)/gnu tools arm embedded/5.2 2015q4/bin/../lib/gcc/arm-none-eabi/5.2.1/armv7e-m/fpu/crtn.o
 *(.bss*)
 .bss.__malloc_max_total_mem
                0x20014b04        0x4 c:/program files (x86)/gnu tools arm embedded/5.2 2015q4/bin/../lib/gcc/arm-none-eabi/5.2.1/../../../../arm-none-eabi/lib/armv7e-m/fpu\libc.a(lib_a-mallocr.o)
                0x20014b04                __malloc_max_total_mem
 .bss.__malloc_max_sbrked_mem
                0x20014b08        0x4 c:/program files (x86)/gnu tools arm embedded/5.2 2015q4/bin/../lib/gcc/arm-none-eabi/5.2.1/../../../../arm-none-eabi/lib/armv7e-m/fpu\libc.a(lib_a-mallocr.o)
                0x20014b08                __malloc_max_sbrked_mem
 .bss.__malloc_top_pad
                0x20014b0c        0x4 c:/program files (x86)/gnu tools arm embedded/5.2 2015q4/bin/../lib/gcc/arm-none-eabi/5.2.1/../../../../arm-none-eabi/lib/armv7e-m/fpu\libc.a(lib_a-mallocr.o)
                0x20014b0c                __malloc_top_pad
 .bss.__malloc_current_mallinfo
                0x20014b10       0x28 c:/program files (x86)/gnu tools arm embedded/5.2 2015q4/bin/../lib/gcc/arm-none-eabi/5.2.1/../../../../arm-none-eabi/lib/armv7e-m/fpu\libc.a(lib_a-mallocr.o)
                0x20014b10                __malloc_current_mallinfo
 .bss._PathLocale
                0x20014b38        0x4 c:/program files (x86)/gnu tools arm embedded/5.2 2015q4/bin/../lib/gcc/arm-none-eabi/5.2.1/../../../../arm-none-eabi/lib/armv7e-m/fpu\libc.a(lib_a-locale.o)
                0x20014b38                _PathLocale
 .bss.__nlocale_changed
                0x20014b3c        0x4 c:/program files (x86)/gnu tools arm embedded/5.2 2015q4/bin/../lib/gcc/arm-none-eabi/5.2.1/../../../../arm-none-eabi/lib/armv7e-m/fpu\libc.a(lib_a-locale.o)
                0x20014b3c                __nlocale_changed
 .bss.__mlocale_changed
                0x20014b40        0x4 c:/program files (x86)/gnu tools arm embedded/5.2 2015q4/bin/../lib/gcc/arm-none-eabi/5.2.1/../../../../arm-none-eabi/lib/armv7e-m/fpu\libc.a(lib_a-locale.o)
                0x20014b40                __mlocale_changed
 *(COMMON)
 COMMON         0x20014b44       0x17 vt3_code/vt3_IO.c.o
                0x20014b44                vt3_force_values
                0x20014b54                vt3_force_flags
 *fill*         0x20014b5b        0x1 
 COMMON         0x20014b5c       0xfc vt3_code/vt3_disp.c.o
                0x20014b5c                ind_screen_frame_key_F4
                0x20014b64                ind_screen_frame_keys_backlight
                0x20014b6c                vt3_screen_union
                0x20014c28                ind_screen_frame_screen_backlight
                0x20014c30                ind_screen_frame_key_F1
                0x20014c38                ind_screen_frame_key_F5
                0x20014c40                ind_screen_frame_key_F2
                0x20014c48                ind_screen_frame_key_F3
                0x20014c50                ind_screen_frame_buzzer
 COMMON         0x20014c58       0x28 vt3_code/vt3_alarms.c.o
                0x20014c58                vt3_alarm_status
                0x20014c5c                vt3_elog_communication_status
                0x20014c74                vt3_devices_alarm_status
 COMMON         0x20014c80     0x2c74 vt3_code/vt3_vars.c.o
                0x20014c80                openUSB
                0x20014ca0                writeElogUSB
                0x20014ca4                BYTEK
                0x20014ca8                BYTEM
                0x20014cc4                BYTEQ
                0x20014cd2                AGL_lateral
                0x20014cd4                vt3_bytearray_P_warning
                0x20014cd8                initCOM
                0x20014ce8                readStringUSB
                0x20014df4                BYTEE
                0x20014df5                vt3_can_alarm_busoff_CAN_interface
                0x20014df8                resetBufferCOM
                0x20014dfa                AGL_longitudinal
                0x20014dfc                MAIN
                0x20014e00                BYTEP
                0x20016cf8                writeStringUSB
                0x20016e02                INIT_byt1
                0x20016e04                BYTER
                0x20017600                vt3_bytearray_P_error
                0x20017604                BYTEF
                0x20017606                vt3_alarm_inhibition_bitmask
                0x20017608                vt3_can_period_Init
                0x2001760c                BYTES
                0x20017614                SetKeyMode
                0x2001761c                umountUSB
                0x20017620                vt3_can_alarm_Angle
                0x20017624                vt3_task_run_time_video_task
                0x20017628                vt3_task_run_time_CAN_bus_task
                0x2001762c                writeStringCOM
                0x20017668                vt3_task_run_time_MAIN
                0x2001766c                ForceUpdate
                0x20017670                vt3_bytearray_R_warning
                0x20017671                vt3_can_trigger_Init
                0x20017674                writeByteCOM
                0x200176ac                closeUSB
                0x200176b0                mountUSB
                0x200176b4                vt3_language
                0x200176b8                readStringCOM
                0x200177c0                INIT_byt2
                0x200177c4                BYTEI
                0x200177e0                vt3_can_period_Sync
                0x200177e2                vt3_can_trigger_Sync
                0x200177e4                vt3_screen
                0x200177e8                PowerOff
                0x200177ec                vt3_bytearray_R_error
                0x200177f0                readByteCOM
 COMMON         0x200178f4      0x100 C:\PROGRA~2\VT3_8920\VT3\RESOUR~1\targets\CANVIEW4\lib\vt3_runtime\libvt3_runtime.a(VT3_Main.o)
                0x200178f4                RxDataBuff
                0x200179f3                graph_taskid
 COMMON         0x200179f4      0x7fd C:\PROGRA~2\VT3_8920\VT3\RESOUR~1\targets\CANVIEW4\lib\vt3_runtime\libvt3_runtime.a(VT3_Runtime.o)
                0x200179f4                RTCRam
                0x200181f0                camera_setup_count
 *fill*         0x200181f1        0x3 
 COMMON         0x200181f4       0x1a C:\PROGRA~2\VT3_8920\VT3\RESOUR~1\targets\CANVIEW4\lib\vt3_common\libvt3_common.a(VT3_CAN_debug.o)
                0x200181f4                write_dt_flag_sa
                0x200181f6                BootLoaderNodeID
                0x200181f8                date_time_set
                0x20018200                HWRevision
                0x20018204                HWCode
                0x20018208                HWSerial
                0x2001820c                j1939_MultiPacket_tx_timeout
 *fill*         0x2001820e        0x2 
 COMMON         0x20018210       0x32 C:\PROGRA~2\VT3_8920\VT3\RESOUR~1\targets\CANVIEW4\lib\vt3_common\libvt3_common.a(VT3_Draw.o)
                0x20018210                prova
 *fill*         0x20018242        0x2 
 COMMON         0x20018244        0x2 C:\PROGRA~2\VT3_8920\VT3\RESOUR~1\targets\CANVIEW4\lib\vt3_common\libvt3_common.a(VT3_Runtime_Common.o)
                0x20018244                vt3_can_rx_proc_buff_offs
 *fill*         0x20018246        0x2 
 COMMON         0x20018248      0x298 C:\PROGRA~2\VT3_8920\VT3\RESOUR~1\targets\CANVIEW4\lib\lld\libCANView4.a(usbh_conf.o)
                0x20018248                hhcd_USB_OTG_HS
 COMMON         0x200184e0        0xd C:\PROGRA~2\VT3_8920\VT3\RESOUR~1\targets\CANVIEW4\lib\lld\libCANView4.a(Camera.o)
                0x200184e0                end_frame_sync
                0x200184e4                Buffer1
                0x200184e8                Buffer2
                0x200184ec                status
 *fill*         0x200184ed        0x3 
 COMMON         0x200184f0      0x875 C:\PROGRA~2\VT3_8920\VT3\RESOUR~1\targets\CANVIEW4\lib\lld\libCANView4.a(CANView4_HW_lib.o)
                0x200184f0                hspi2
                0x20018548                hspi5
                0x200185a0                m_pData
                0x200185a4                hi2c1
                0x200185e0                hdma_dcmi
                0x20018638                Key_mode
                0x2001863c                command
                0x2001864c                EfMD5Table_test
                0x2001884c                FWversion
                0x20018854                hltdc
                0x20018964                EfMD5Table
                0x20018b64                hadc1
                0x20018ba8                hcan2
                0x20018be8                hdcmi
                0x20018c28                CAN1_Rx_Flag
                0x20018c2a                FreeStackSize
                0x20018c2c                Secure_Shutdown
                0x20018c30                hrtc
                0x20018c50                EfMD5Table_status
                0x20018c70                hdma2d
                0x20018cb0                huart2
                0x20018cf0                hcan1
                0x20018d30                hsdram1
                0x20018d64                CAN2_Rx_Flag
 *fill*         0x20018d65        0x3 
 COMMON         0x20018d68        0xc C:\PROGRA~2\VT3_8920\VT3\RESOUR~1\targets\CANVIEW4\lib\lld\libCANView4.a(CANView4_Mem_EXT_FLASH.o)
                0x20018d68                ExtFlash_Header
 COMMON         0x20018d74       0x80 C:\PROGRA~2\VT3_8920\VT3\RESOUR~1\targets\CANVIEW4\lib\lld\libCANView4.a(CANView4_Node.o)
                0x20018d74                g_SysMirror
 COMMON         0x20018df4      0x12c C:\PROGRA~2\VT3_8920\VT3\RESOUR~1\targets\CANVIEW4\lib\lld\libCANView4.a(CANView4_STM_periphs_lib.o)
                0x20018df4                htim8
                0x20018e30                htim4
                0x20018e6c                htim3
                0x20018ea8                htim1
                0x20018ee4                htim2
 COMMON         0x20018f20       0x18 C:\PROGRA~2\VT3_8920\VT3\RESOUR~1\targets\CANVIEW4\lib\lld\libCANView4.a(CANView4_Task_Manager.o)
                0x20018f20                FreeHeapSize
                0x20018f24                TasksStack
 COMMON         0x20018f38     0x1443 C:\PROGRA~2\VT3_8920\VT3\RESOUR~1\targets\CANVIEW4\lib\lld\libCANView4.a(KWP2000_Light.o)
                0x20018f38                m_PendingReq
                0x20018f54                m_AccessCtr
                0x20018f58                m_DwltmpBuff
                0x20019358                g_UpdateSys
                0x2001935c                m_LocalSeed
                0x20019360                m_FrameCtr
                0x20019362                m_DataSize
                0x20019364                m_RndSeedW
                0x20019368                __buffer_data_start
                0x20019368                m_RndSeedZ
                0x2001936c                m_DwlBuff_decompressed
                0x20019b6d                m_bNewMsg
                0x20019b6e                m_bSecurityAcc
                0x20019b70                m_DwlBuff
                0x2001a371                m_bUpdateLoader
                0x2001a372                ui16KWP2000Timer
                0x2001a374                m_LoaderSize
                0x2001a378                Mem_ID_List
                0x2001a37a                Mem_ID_Numbrer
 *fill*         0x2001a37b        0x1 
 COMMON         0x2001a37c       0x14 C:\PROGRA~2\VT3_8920\VT3\RESOUR~1\targets\CANVIEW4\lib\lld\libCANView4.a(Virtual_TIMs.o)
                0x2001a37c                counters_EN
                0x2001a380                TIMs_n
                0x2001a384                VTIM_CallBack_funct_ptr
                0x2001a388                counters_TH
                0x2001a38c                counters
 COMMON         0x2001a390        0x8 C:\PROGRA~2\VT3_8920\VT3\RESOUR~1\targets\CANVIEW4\lib\lld\libCANView4.a(Display_Utilities.o)
                0x2001a390                Layer_status
 COMMON         0x2001a398        0x2 C:\PROGRA~2\VT3_8920\VT3\RESOUR~1\targets\CANVIEW4\lib\lld\libCANView4.a(Spansion_128Mb.o)
                0x2001a398                ui16SPANSIONTimerMS
 *fill*         0x2001a39a        0x2 
 COMMON         0x2001a39c       0x90 C:\PROGRA~2\VT3_8920\VT3\RESOUR~1\targets\CANVIEW4\lib\lld\libCANView4.a(CAN.o)
                0x2001a39c                pCanDebugOn
                0x2001a3a0                CanBootloader
                0x2001a3b0                sFilterConfig1
                0x2001a3d8                CAN_TX_OK
                0x2001a3dc                pCanRxOn
                0x2001a3e4                sFilterConfig2
                0x2001a40c                CanWinscope
 COMMON         0x2001a42c        0xd C:\PROGRA~2\VT3_8920\VT3\RESOUR~1\targets\CANVIEW4\lib\lld\libCANView4.a(Generic_IO.o)
                0x2001a42c                Input_IT_State
                0x2001a434                Input_State
 *fill*         0x2001a439        0x3 
 COMMON         0x2001a43c        0x1 C:\PROGRA~2\VT3_8920\VT3\RESOUR~1\targets\CANVIEW4\lib\lld\libCANView4.a(RS232.o)
                0x2001a43c                RX_buffer
 *fill*         0x2001a43d        0x3 
 COMMON         0x2001a440      0x230 C:\PROGRA~2\VT3_8920\VT3\RESOUR~1\targets\CANVIEW4\lib\lld\libCANView4.a(USB_Utilities.o)
                0x2001a440                USB_Fs
 COMMON         0x2001a670       0x40 C:\PROGRA~2\VT3_8920\VT3\RESOUR~1\targets\CANVIEW4\lib\lld\libCANView4.a(queue.o)
                0x2001a670                xQueueRegistry
 COMMON         0x2001a6b0        0x5 C:\PROGRA~2\VT3_8920\VT3\RESOUR~1\targets\CANVIEW4\lib\lld\libCANView4.a(fatfs.o)
                0x2001a6b0                USBH_Path
                0x2001a6b4                retUSBH
 *fill*         0x2001a6b5        0x3 
 COMMON         0x2001a6b8       0xb0 C:\PROGRA~2\VT3_8920\VT3\RESOUR~1\targets\CANVIEW4\lib\lld\libCANView4.a(stm32f4xx_hal_msp.o)
                0x2001a6b8                hdma_spi5_rx
                0x2001a710                hdma_spi5_tx
 COMMON         0x2001a768      0x3d0 C:\PROGRA~2\VT3_8920\VT3\RESOUR~1\targets\CANVIEW4\lib\lld\libCANView4.a(usb_host.o)
                0x2001a768                hUsbHostHS
 COMMON         0x2001ab38       0x20 C:\PROGRA~2\VT3_8920\VT3\RESOUR~1\targets\CANVIEW4\lib\lld\libCANView4.a(stm32f4xx_hal_flash.o)
                0x2001ab38                pFlash
 COMMON         0x2001ab58        0x4 c:/program files (x86)/gnu tools arm embedded/5.2 2015q4/bin/../lib/gcc/arm-none-eabi/5.2.1/../../../../arm-none-eabi/lib/armv7e-m/fpu\libc.a(lib_a-reent.o)
                0x2001ab58                errno
                0x2001ab5c                . = ALIGN (0x4)
                0x2001ab5c                _ebss = .
                0x2001ab5c                __bss_end__ = _ebss

._user_heap_stack
                0x2001ab5c      0x604
                0x2001ab60                . = ALIGN (0x8)
 *fill*         0x2001ab5c        0x4 
                0x2001ab60                PROVIDE (end, .)
                [!provide]                PROVIDE (_end, .)
                0x2001ad60                . = (. + _Min_Heap_Size)
 *fill*         0x2001ab60      0x200 
                0x2001b160                . = (. + _Min_Stack_Size)
 *fill*         0x2001ad60      0x400 
                0x2001b160                . = ALIGN (0x8)

/DISCARD/
 libc.a(*)
 libm.a(*)
 libgcc.a(*)

.ARM.attributes
                0x00000000       0x30
 *(.ARM.attributes)
 .ARM.attributes
                0x00000000       0x22 c:/program files (x86)/gnu tools arm embedded/5.2 2015q4/bin/../lib/gcc/arm-none-eabi/5.2.1/armv7e-m/fpu/crti.o
 .ARM.attributes
                0x00000022       0x34 c:/program files (x86)/gnu tools arm embedded/5.2 2015q4/bin/../lib/gcc/arm-none-eabi/5.2.1/armv7e-m/fpu/crtbegin.o
 .ARM.attributes
                0x00000056       0x20 c:/program files (x86)/gnu tools arm embedded/5.2 2015q4/bin/../lib/gcc/arm-none-eabi/5.2.1/../../../../arm-none-eabi/lib/armv7e-m/fpu/crt0.o
 .ARM.attributes
                0x00000076       0x39 C:\PROGRA~2\VT3_8920\VT3\RESOUR~1\targets\CANVIEW4\lib\\lld\sysmem.o
 .ARM.attributes
                0x000000af       0x39 vt3_code/vt3_lang.c.o
 .ARM.attributes
                0x000000e8       0x39 vt3_code/vt3_IO.c.o
 .ARM.attributes
                0x00000121       0x39 vt3_code/vt3_disp.c.o
 .ARM.attributes
                0x0000015a       0x39 vt3_code/vt3_disp_events.c.o
 .ARM.attributes
                0x00000193       0x39 vt3_code/vt3_alarms.c.o
 .ARM.attributes
                0x000001cc       0x39 vt3_code/vt3_signature.c.o
 .ARM.attributes
                0x00000205       0x39 vt3_code/vt3_images.c.o
 .ARM.attributes
                0x0000023e       0x39 vt3_code/vt3_Font__RobotoBold36.c.o
 .ARM.attributes
                0x00000277       0x39 vt3_code/vt3_Font__RobotoBold49.c.o
 .ARM.attributes
                0x000002b0       0x39 vt3_code/vt3_POU__MAIN.c.o
 .ARM.attributes
                0x000002e9       0x39 vt3_code/vt3_POU__global_data.c.o
 .ARM.attributes
                0x00000322       0x39 vt3_code/vt3_POU__key_data.c.o
 .ARM.attributes
                0x0000035b       0x39 vt3_code/vt3_POU_common.c.o
 .ARM.attributes
                0x00000394       0x39 vt3_code/vt3_vars.c.o
 .ARM.attributes
                0x000003cd       0x39 vt3_code/vt3_var_version.c.o
 .ARM.attributes
                0x00000406       0x39 vt3_code/vt3_init_persistent_p_array.c.o
 .ARM.attributes
                0x0000043f       0x39 vt3_code/vt3_init_persistent_r_array.c.o
 .ARM.attributes
                0x00000478       0x39 vt3_code/vt3_init_persistent_f_array.c.o
 .ARM.attributes
                0x000004b1       0x39 vt3_code/vt3_CAN__CanInterface.c.o
 .ARM.attributes
                0x000004ea       0x39 vt3_code/vt3_CAN_common.c.o
 .ARM.attributes
                0x00000523       0x39 extra/vt3_extra.c.o
 .ARM.attributes
                0x0000055c       0x39 __OBJE~1/vt3_extra.c.o
 .ARM.attributes
                0x00000595       0x39 __OBJE~1/vt3_POU__closeUSB.c.o
 .ARM.attributes
                0x000005ce       0x39 __OBJE~1/vt3_POU__DATA_ARRAY_255.c.o
 .ARM.attributes
                0x00000607       0x39 __OBJE~1/vt3_POU__DATA_ARRAY_50.c.o
 .ARM.attributes
                0x00000640       0x39 __OBJE~1/vt3_POU__ENUM_KEY_MODE.c.o
 .ARM.attributes
                0x00000679       0x39 __OBJE~1/vt3_POU__ENUM_MODE_ERR.c.o
 .ARM.attributes
                0x000006b2       0x39 __OBJE~1/vt3_POU__ENUM_OPEN_FILE.c.o
 .ARM.attributes
                0x000006eb       0x39 __OBJE~1/vt3_POU__ENUM_PARITY.c.o
 .ARM.attributes
                0x00000724       0x39 __OBJE~1/vt3_POU__ENUM_UART_ERR.c.o
 .ARM.attributes
                0x0000075d       0x39 __OBJE~1/vt3_POU__ENUM_UPDATE.c.o
 .ARM.attributes
                0x00000796       0x39 __OBJE~1/vt3_POU__ENUM_USB_ERR.c.o
 .ARM.attributes
                0x000007cf       0x39 __OBJE~1/vt3_POU__ForceUpdate.c.o
 .ARM.attributes
                0x00000808       0x39 __OBJE~1/vt3_POU__initCOM.c.o
 .ARM.attributes
                0x00000841       0x39 __OBJE~1/vt3_POU__mountUSB.c.o
 .ARM.attributes
                0x0000087a       0x39 __OBJE~1/vt3_POU__openUSB.c.o
 .ARM.attributes
                0x000008b3       0x39 __OBJE~1/vt3_POU__PowerOff.c.o
 .ARM.attributes
                0x000008ec       0x39 __OBJE~1/vt3_POU__readByteCOM.c.o
 .ARM.attributes
                0x00000925       0x39 __OBJE~1/vt3_POU__readStringCOM.c.o
 .ARM.attributes
                0x0000095e       0x39 __OBJE~1/vt3_POU__readStringUSB.c.o
 .ARM.attributes
                0x00000997       0x39 __OBJE~1/vt3_POU__resetBufferCOM.c.o
 .ARM.attributes
                0x000009d0       0x39 __OBJE~1/vt3_POU__SetKeyMode.c.o
 .ARM.attributes
                0x00000a09       0x39 __OBJE~1/vt3_POU__umountUSB.c.o
 .ARM.attributes
                0x00000a42       0x39 __OBJE~1/vt3_POU__writeByteCOM.c.o
 .ARM.attributes
                0x00000a7b       0x39 __OBJE~1/vt3_POU__writeElogUSB.c.o
 .ARM.attributes
                0x00000ab4       0x39 __OBJE~1/vt3_POU__writeStringCOM.c.o
 .ARM.attributes
                0x00000aed       0x39 __OBJE~1/vt3_POU__writeStringUSB.c.o
 .ARM.attributes
                0x00000b26       0x39 C:\PROGRA~2\VT3_8920\VT3\RESOUR~1\targets\CANVIEW4\lib\vt3_runtime\libvt3_runtime.a(VT3_Main.o)
 .ARM.attributes
                0x00000b5f       0x39 C:\PROGRA~2\VT3_8920\VT3\RESOUR~1\targets\CANVIEW4\lib\vt3_runtime\libvt3_runtime.a(VT3_Runtime.o)
 .ARM.attributes
                0x00000b98       0x39 C:\PROGRA~2\VT3_8920\VT3\RESOUR~1\targets\CANVIEW4\lib\vt3_runtime\libvt3_runtime.a(VT3_Cycle100.o)
 .ARM.attributes
                0x00000bd1       0x39 C:\PROGRA~2\VT3_8920\VT3\RESOUR~1\targets\CANVIEW4\lib\vt3_runtime\libvt3_runtime.a(VT3_Cycle20.o)
 .ARM.attributes
                0x00000c0a       0x39 C:\PROGRA~2\VT3_8920\VT3\RESOUR~1\targets\CANVIEW4\lib\vt3_common\libvt3_common.a(IEC_Lib.o)
 .ARM.attributes
                0x00000c43       0x39 C:\PROGRA~2\VT3_8920\VT3\RESOUR~1\targets\CANVIEW4\lib\vt3_common\libvt3_common.a(VT3_CAN_debug.o)
 .ARM.attributes
                0x00000c7c       0x39 C:\PROGRA~2\VT3_8920\VT3\RESOUR~1\targets\CANVIEW4\lib\vt3_common\libvt3_common.a(VT3_Draw.o)
 .ARM.attributes
                0x00000cb5       0x39 C:\PROGRA~2\VT3_8920\VT3\RESOUR~1\targets\CANVIEW4\lib\vt3_common\libvt3_common.a(VT3_Runtime_Common.o)
 .ARM.attributes
                0x00000cee       0x39 C:\PROGRA~2\VT3_8920\VT3\RESOUR~1\targets\CANVIEW4\lib\vt3_common\libvt3_common.a(VT3_elog.o)
 .ARM.attributes
                0x00000d27       0x21 C:\PROGRA~2\VT3_8920\VT3\RESOUR~1\targets\CANVIEW4\lib\lld\libCANView4.a(startup_stm32f429xx.o)
 .ARM.attributes
                0x00000d48       0x39 C:\PROGRA~2\VT3_8920\VT3\RESOUR~1\targets\CANVIEW4\lib\lld\libCANView4.a(stm32f4xx_it.o)
 .ARM.attributes
                0x00000d81       0x39 C:\PROGRA~2\VT3_8920\VT3\RESOUR~1\targets\CANVIEW4\lib\lld\libCANView4.a(usbh_conf.o)
 .ARM.attributes
                0x00000dba       0x39 C:\PROGRA~2\VT3_8920\VT3\RESOUR~1\targets\CANVIEW4\lib\lld\libCANView4.a(system_stm32f4xx.o)
 .ARM.attributes
                0x00000df3       0x39 C:\PROGRA~2\VT3_8920\VT3\RESOUR~1\targets\CANVIEW4\lib\lld\libCANView4.a(stm32f4xx_hal.o)
 .ARM.attributes
                0x00000e2c       0x39 C:\PROGRA~2\VT3_8920\VT3\RESOUR~1\targets\CANVIEW4\lib\lld\libCANView4.a(stm32f4xx_hal_cortex.o)
 .ARM.attributes
                0x00000e65       0x39 C:\PROGRA~2\VT3_8920\VT3\RESOUR~1\targets\CANVIEW4\lib\lld\libCANView4.a(stm32f4xx_hal_dcmi.o)
 .ARM.attributes
                0x00000e9e       0x39 C:\PROGRA~2\VT3_8920\VT3\RESOUR~1\targets\CANVIEW4\lib\lld\libCANView4.a(stm32f4xx_hal_dma.o)
 .ARM.attributes
                0x00000ed7       0x39 C:\PROGRA~2\VT3_8920\VT3\RESOUR~1\targets\CANVIEW4\lib\lld\libCANView4.a(stm32f4xx_hal_dma_ex.o)
 .ARM.attributes
                0x00000f10       0x39 C:\PROGRA~2\VT3_8920\VT3\RESOUR~1\targets\CANVIEW4\lib\lld\libCANView4.a(stm32f4xx_hal_gpio.o)
 .ARM.attributes
                0x00000f49       0x39 C:\PROGRA~2\VT3_8920\VT3\RESOUR~1\targets\CANVIEW4\lib\lld\libCANView4.a(stm32f4xx_hal_hcd.o)
 .ARM.attributes
                0x00000f82       0x39 C:\PROGRA~2\VT3_8920\VT3\RESOUR~1\targets\CANVIEW4\lib\lld\libCANView4.a(stm32f4xx_hal_rcc.o)
 .ARM.attributes
                0x00000fbb       0x39 C:\PROGRA~2\VT3_8920\VT3\RESOUR~1\targets\CANVIEW4\lib\lld\libCANView4.a(stm32f4xx_hal_tim.o)
 .ARM.attributes
                0x00000ff4       0x39 C:\PROGRA~2\VT3_8920\VT3\RESOUR~1\targets\CANVIEW4\lib\lld\libCANView4.a(stm32f4xx_hal_tim_ex.o)
 .ARM.attributes
                0x0000102d       0x39 C:\PROGRA~2\VT3_8920\VT3\RESOUR~1\targets\CANVIEW4\lib\lld\libCANView4.a(stm32f4xx_hal_uart.o)
 .ARM.attributes
                0x00001066       0x39 C:\PROGRA~2\VT3_8920\VT3\RESOUR~1\targets\CANVIEW4\lib\lld\libCANView4.a(stm32f4xx_ll_usb.o)
 .ARM.attributes
                0x0000109f       0x39 C:\PROGRA~2\VT3_8920\VT3\RESOUR~1\targets\CANVIEW4\lib\lld\libCANView4.a(CRC16.o)
 .ARM.attributes
                0x000010d8       0x39 C:\PROGRA~2\VT3_8920\VT3\RESOUR~1\targets\CANVIEW4\lib\lld\libCANView4.a(Camera.o)
 .ARM.attributes
                0x00001111       0x39 C:\PROGRA~2\VT3_8920\VT3\RESOUR~1\targets\CANVIEW4\lib\lld\libCANView4.a(CANView4_Event_Log.o)
 .ARM.attributes
                0x0000114a       0x39 C:\PROGRA~2\VT3_8920\VT3\RESOUR~1\targets\CANVIEW4\lib\lld\libCANView4.a(CANView4_HW_lib.o)
 .ARM.attributes
                0x00001183       0x39 C:\PROGRA~2\VT3_8920\VT3\RESOUR~1\targets\CANVIEW4\lib\lld\libCANView4.a(CANView4_Mem_EEPROM.o)
 .ARM.attributes
                0x000011bc       0x39 C:\PROGRA~2\VT3_8920\VT3\RESOUR~1\targets\CANVIEW4\lib\lld\libCANView4.a(CANView4_Mem_EXT_FLASH.o)
 .ARM.attributes
                0x000011f5       0x39 C:\PROGRA~2\VT3_8920\VT3\RESOUR~1\targets\CANVIEW4\lib\lld\libCANView4.a(CANView4_Node.o)
 .ARM.attributes
                0x0000122e       0x39 C:\PROGRA~2\VT3_8920\VT3\RESOUR~1\targets\CANVIEW4\lib\lld\libCANView4.a(CANView4_STM_periphs_lib.o)
 .ARM.attributes
                0x00001267       0x39 C:\PROGRA~2\VT3_8920\VT3\RESOUR~1\targets\CANVIEW4\lib\lld\libCANView4.a(CANView4_Task_Manager.o)
 .ARM.attributes
                0x000012a0       0x39 C:\PROGRA~2\VT3_8920\VT3\RESOUR~1\targets\CANVIEW4\lib\lld\libCANView4.a(KWP2000_Light.o)
 .ARM.attributes
                0x000012d9       0x39 C:\PROGRA~2\VT3_8920\VT3\RESOUR~1\targets\CANVIEW4\lib\lld\libCANView4.a(Virtual_TIMs.o)
 .ARM.attributes
                0x00001312       0x39 C:\PROGRA~2\VT3_8920\VT3\RESOUR~1\targets\CANVIEW4\lib\lld\libCANView4.a(Display_Utilities.o)
 .ARM.attributes
                0x0000134b       0x39 C:\PROGRA~2\VT3_8920\VT3\RESOUR~1\targets\CANVIEW4\lib\lld\libCANView4.a(Display_lib.o)
 .ARM.attributes
                0x00001384       0x39 C:\PROGRA~2\VT3_8920\VT3\RESOUR~1\targets\CANVIEW4\lib\lld\libCANView4.a(eeprom.o)
 .ARM.attributes
                0x000013bd       0x39 C:\PROGRA~2\VT3_8920\VT3\RESOUR~1\targets\CANVIEW4\lib\lld\libCANView4.a(Spansion_128Mb.o)
 .ARM.attributes
                0x000013f6       0x39 C:\PROGRA~2\VT3_8920\VT3\RESOUR~1\targets\CANVIEW4\lib\lld\libCANView4.a(CAN.o)
 .ARM.attributes
                0x0000142f       0x39 C:\PROGRA~2\VT3_8920\VT3\RESOUR~1\targets\CANVIEW4\lib\lld\libCANView4.a(Generic_IO.o)
 .ARM.attributes
                0x00001468       0x39 C:\PROGRA~2\VT3_8920\VT3\RESOUR~1\targets\CANVIEW4\lib\lld\libCANView4.a(RS232.o)
 .ARM.attributes
                0x000014a1       0x39 C:\PROGRA~2\VT3_8920\VT3\RESOUR~1\targets\CANVIEW4\lib\lld\libCANView4.a(MD5.o)
 .ARM.attributes
                0x000014da       0x39 C:\PROGRA~2\VT3_8920\VT3\RESOUR~1\targets\CANVIEW4\lib\lld\libCANView4.a(RTC.o)
 .ARM.attributes
                0x00001513       0x39 C:\PROGRA~2\VT3_8920\VT3\RESOUR~1\targets\CANVIEW4\lib\lld\libCANView4.a(CANView4_Mem_RTC.o)
 .ARM.attributes
                0x0000154c       0x39 C:\PROGRA~2\VT3_8920\VT3\RESOUR~1\targets\CANVIEW4\lib\lld\libCANView4.a(TVP5150.o)
 .ARM.attributes
                0x00001585       0x39 C:\PROGRA~2\VT3_8920\VT3\RESOUR~1\targets\CANVIEW4\lib\lld\libCANView4.a(USB_Utilities.o)
 .ARM.attributes
                0x000015be       0x39 C:\PROGRA~2\VT3_8920\VT3\RESOUR~1\targets\CANVIEW4\lib\lld\libCANView4.a(Utilities.o)
 .ARM.attributes
                0x000015f7       0x39 C:\PROGRA~2\VT3_8920\VT3\RESOUR~1\targets\CANVIEW4\lib\lld\libCANView4.a(ff.o)
 .ARM.attributes
                0x00001630       0x39 C:\PROGRA~2\VT3_8920\VT3\RESOUR~1\targets\CANVIEW4\lib\lld\libCANView4.a(cmsis_os.o)
 .ARM.attributes
                0x00001669       0x39 C:\PROGRA~2\VT3_8920\VT3\RESOUR~1\targets\CANVIEW4\lib\lld\libCANView4.a(heap_4.o)
 .ARM.attributes
                0x000016a2       0x39 C:\PROGRA~2\VT3_8920\VT3\RESOUR~1\targets\CANVIEW4\lib\lld\libCANView4.a(port.o)
 .ARM.attributes
                0x000016db       0x39 C:\PROGRA~2\VT3_8920\VT3\RESOUR~1\targets\CANVIEW4\lib\lld\libCANView4.a(queue.o)
 .ARM.attributes
                0x00001714       0x39 C:\PROGRA~2\VT3_8920\VT3\RESOUR~1\targets\CANVIEW4\lib\lld\libCANView4.a(tasks.o)
 .ARM.attributes
                0x0000174d       0x39 C:\PROGRA~2\VT3_8920\VT3\RESOUR~1\targets\CANVIEW4\lib\lld\libCANView4.a(usbh_core.o)
 .ARM.attributes
                0x00001786       0x39 C:\PROGRA~2\VT3_8920\VT3\RESOUR~1\targets\CANVIEW4\lib\lld\libCANView4.a(usbh_ctlreq.o)
 .ARM.attributes
                0x000017bf       0x39 C:\PROGRA~2\VT3_8920\VT3\RESOUR~1\targets\CANVIEW4\lib\lld\libCANView4.a(usbh_ioreq.o)
 .ARM.attributes
                0x000017f8       0x39 C:\PROGRA~2\VT3_8920\VT3\RESOUR~1\targets\CANVIEW4\lib\lld\libCANView4.a(usbh_pipes.o)
 .ARM.attributes
                0x00001831       0x39 C:\PROGRA~2\VT3_8920\VT3\RESOUR~1\targets\CANVIEW4\lib\lld\libCANView4.a(fatfs.o)
 .ARM.attributes
                0x0000186a       0x39 C:\PROGRA~2\VT3_8920\VT3\RESOUR~1\targets\CANVIEW4\lib\lld\libCANView4.a(stm32f4xx_hal_msp.o)
 .ARM.attributes
                0x000018a3       0x39 C:\PROGRA~2\VT3_8920\VT3\RESOUR~1\targets\CANVIEW4\lib\lld\libCANView4.a(usb_host.o)
 .ARM.attributes
                0x000018dc       0x39 C:\PROGRA~2\VT3_8920\VT3\RESOUR~1\targets\CANVIEW4\lib\lld\libCANView4.a(stm32f4xx_hal_adc.o)
 .ARM.attributes
                0x00001915       0x39 C:\PROGRA~2\VT3_8920\VT3\RESOUR~1\targets\CANVIEW4\lib\lld\libCANView4.a(stm32f4xx_hal_adc_ex.o)
 .ARM.attributes
                0x0000194e       0x39 C:\PROGRA~2\VT3_8920\VT3\RESOUR~1\targets\CANVIEW4\lib\lld\libCANView4.a(stm32f4xx_hal_can.o)
 .ARM.attributes
                0x00001987       0x39 C:\PROGRA~2\VT3_8920\VT3\RESOUR~1\targets\CANVIEW4\lib\lld\libCANView4.a(stm32f4xx_hal_dma2d.o)
 .ARM.attributes
                0x000019c0       0x39 C:\PROGRA~2\VT3_8920\VT3\RESOUR~1\targets\CANVIEW4\lib\lld\libCANView4.a(stm32f4xx_hal_flash.o)
 .ARM.attributes
                0x000019f9       0x39 C:\PROGRA~2\VT3_8920\VT3\RESOUR~1\targets\CANVIEW4\lib\lld\libCANView4.a(stm32f4xx_hal_flash_ex.o)
 .ARM.attributes
                0x00001a32       0x39 C:\PROGRA~2\VT3_8920\VT3\RESOUR~1\targets\CANVIEW4\lib\lld\libCANView4.a(stm32f4xx_hal_i2c.o)
 .ARM.attributes
                0x00001a6b       0x39 C:\PROGRA~2\VT3_8920\VT3\RESOUR~1\targets\CANVIEW4\lib\lld\libCANView4.a(stm32f4xx_hal_ltdc.o)
 .ARM.attributes
                0x00001aa4       0x39 C:\PROGRA~2\VT3_8920\VT3\RESOUR~1\targets\CANVIEW4\lib\lld\libCANView4.a(stm32f4xx_hal_pwr.o)
 .ARM.attributes
                0x00001add       0x39 C:\PROGRA~2\VT3_8920\VT3\RESOUR~1\targets\CANVIEW4\lib\lld\libCANView4.a(stm32f4xx_hal_pwr_ex.o)
 .ARM.attributes
                0x00001b16       0x39 C:\PROGRA~2\VT3_8920\VT3\RESOUR~1\targets\CANVIEW4\lib\lld\libCANView4.a(stm32f4xx_hal_rcc_ex.o)
 .ARM.attributes
                0x00001b4f       0x39 C:\PROGRA~2\VT3_8920\VT3\RESOUR~1\targets\CANVIEW4\lib\lld\libCANView4.a(stm32f4xx_hal_rtc.o)
 .ARM.attributes
                0x00001b88       0x39 C:\PROGRA~2\VT3_8920\VT3\RESOUR~1\targets\CANVIEW4\lib\lld\libCANView4.a(stm32f4xx_hal_rtc_ex.o)
 .ARM.attributes
                0x00001bc1       0x39 C:\PROGRA~2\VT3_8920\VT3\RESOUR~1\targets\CANVIEW4\lib\lld\libCANView4.a(stm32f4xx_hal_sdram.o)
 .ARM.attributes
                0x00001bfa       0x39 C:\PROGRA~2\VT3_8920\VT3\RESOUR~1\targets\CANVIEW4\lib\lld\libCANView4.a(stm32f4xx_hal_spi.o)
 .ARM.attributes
                0x00001c33       0x39 C:\PROGRA~2\VT3_8920\VT3\RESOUR~1\targets\CANVIEW4\lib\lld\libCANView4.a(stm32f4xx_ll_fmc.o)
 .ARM.attributes
                0x00001c6c       0x39 C:\PROGRA~2\VT3_8920\VT3\RESOUR~1\targets\CANVIEW4\lib\lld\libCANView4.a(CRC32.o)
 .ARM.attributes
                0x00001ca5       0x39 C:\PROGRA~2\VT3_8920\VT3\RESOUR~1\targets\CANVIEW4\lib\lld\libCANView4.a(ccsbcs.o)
 .ARM.attributes
                0x00001cde       0x39 C:\PROGRA~2\VT3_8920\VT3\RESOUR~1\targets\CANVIEW4\lib\lld\libCANView4.a(diskio.o)
 .ARM.attributes
                0x00001d17       0x39 C:\PROGRA~2\VT3_8920\VT3\RESOUR~1\targets\CANVIEW4\lib\lld\libCANView4.a(ff_gen_drv.o)
 .ARM.attributes
                0x00001d50       0x39 C:\PROGRA~2\VT3_8920\VT3\RESOUR~1\targets\CANVIEW4\lib\lld\libCANView4.a(usbh_diskio.o)
 .ARM.attributes
                0x00001d89       0x39 C:\PROGRA~2\VT3_8920\VT3\RESOUR~1\targets\CANVIEW4\lib\lld\libCANView4.a(list.o)
 .ARM.attributes
                0x00001dc2       0x39 C:\PROGRA~2\VT3_8920\VT3\RESOUR~1\targets\CANVIEW4\lib\lld\libCANView4.a(usbh_msc.o)
 .ARM.attributes
                0x00001dfb       0x39 C:\PROGRA~2\VT3_8920\VT3\RESOUR~1\targets\CANVIEW4\lib\lld\libCANView4.a(usbh_msc_bot.o)
 .ARM.attributes
                0x00001e34       0x39 C:\PROGRA~2\VT3_8920\VT3\RESOUR~1\targets\CANVIEW4\lib\lld\libCANView4.a(usbh_msc_scsi.o)
 .ARM.attributes
                0x00001e6d       0x34 c:/program files (x86)/gnu tools arm embedded/5.2 2015q4/bin/../lib/gcc/arm-none-eabi/5.2.1/../../../../arm-none-eabi/lib/armv7e-m/fpu\libm.a(lib_a-s_cos.o)
 .ARM.attributes
                0x00001ea1       0x34 c:/program files (x86)/gnu tools arm embedded/5.2 2015q4/bin/../lib/gcc/arm-none-eabi/5.2.1/../../../../arm-none-eabi/lib/armv7e-m/fpu\libm.a(lib_a-s_sin.o)
 .ARM.attributes
                0x00001ed5       0x34 c:/program files (x86)/gnu tools arm embedded/5.2 2015q4/bin/../lib/gcc/arm-none-eabi/5.2.1/../../../../arm-none-eabi/lib/armv7e-m/fpu\libm.a(lib_a-sf_tan.o)
 .ARM.attributes
                0x00001f09       0x34 c:/program files (x86)/gnu tools arm embedded/5.2 2015q4/bin/../lib/gcc/arm-none-eabi/5.2.1/../../../../arm-none-eabi/lib/armv7e-m/fpu\libm.a(lib_a-w_acos.o)
 .ARM.attributes
                0x00001f3d       0x34 c:/program files (x86)/gnu tools arm embedded/5.2 2015q4/bin/../lib/gcc/arm-none-eabi/5.2.1/../../../../arm-none-eabi/lib/armv7e-m/fpu\libm.a(lib_a-w_asin.o)
 .ARM.attributes
                0x00001f71       0x34 c:/program files (x86)/gnu tools arm embedded/5.2 2015q4/bin/../lib/gcc/arm-none-eabi/5.2.1/../../../../arm-none-eabi/lib/armv7e-m/fpu\libm.a(lib_a-w_pow.o)
 .ARM.attributes
                0x00001fa5       0x34 c:/program files (x86)/gnu tools arm embedded/5.2 2015q4/bin/../lib/gcc/arm-none-eabi/5.2.1/../../../../arm-none-eabi/lib/armv7e-m/fpu\libm.a(lib_a-wf_exp.o)
 .ARM.attributes
                0x00001fd9       0x34 c:/program files (x86)/gnu tools arm embedded/5.2 2015q4/bin/../lib/gcc/arm-none-eabi/5.2.1/../../../../arm-none-eabi/lib/armv7e-m/fpu\libm.a(lib_a-wf_log.o)
 .ARM.attributes
                0x0000200d       0x34 c:/program files (x86)/gnu tools arm embedded/5.2 2015q4/bin/../lib/gcc/arm-none-eabi/5.2.1/../../../../arm-none-eabi/lib/armv7e-m/fpu\libm.a(lib_a-wf_log10.o)
 .ARM.attributes
                0x00002041       0x34 c:/program files (x86)/gnu tools arm embedded/5.2 2015q4/bin/../lib/gcc/arm-none-eabi/5.2.1/../../../../arm-none-eabi/lib/armv7e-m/fpu\libm.a(lib_a-wf_pow.o)
 .ARM.attributes
                0x00002075       0x34 c:/program files (x86)/gnu tools arm embedded/5.2 2015q4/bin/../lib/gcc/arm-none-eabi/5.2.1/../../../../arm-none-eabi/lib/armv7e-m/fpu\libm.a(lib_a-wf_sqrt.o)
 .ARM.attributes
                0x000020a9       0x34 c:/program files (x86)/gnu tools arm embedded/5.2 2015q4/bin/../lib/gcc/arm-none-eabi/5.2.1/../../../../arm-none-eabi/lib/armv7e-m/fpu\libm.a(lib_a-e_acos.o)
 .ARM.attributes
                0x000020dd       0x34 c:/program files (x86)/gnu tools arm embedded/5.2 2015q4/bin/../lib/gcc/arm-none-eabi/5.2.1/../../../../arm-none-eabi/lib/armv7e-m/fpu\libm.a(lib_a-e_asin.o)
 .ARM.attributes
                0x00002111       0x34 c:/program files (x86)/gnu tools arm embedded/5.2 2015q4/bin/../lib/gcc/arm-none-eabi/5.2.1/../../../../arm-none-eabi/lib/armv7e-m/fpu\libm.a(lib_a-e_pow.o)
 .ARM.attributes
                0x00002145       0x34 c:/program files (x86)/gnu tools arm embedded/5.2 2015q4/bin/../lib/gcc/arm-none-eabi/5.2.1/../../../../arm-none-eabi/lib/armv7e-m/fpu\libm.a(lib_a-e_rem_pio2.o)
 .ARM.attributes
                0x00002179       0x34 c:/program files (x86)/gnu tools arm embedded/5.2 2015q4/bin/../lib/gcc/arm-none-eabi/5.2.1/../../../../arm-none-eabi/lib/armv7e-m/fpu\libm.a(lib_a-e_sqrt.o)
 .ARM.attributes
                0x000021ad       0x34 c:/program files (x86)/gnu tools arm embedded/5.2 2015q4/bin/../lib/gcc/arm-none-eabi/5.2.1/../../../../arm-none-eabi/lib/armv7e-m/fpu\libm.a(lib_a-ef_exp.o)
 .ARM.attributes
                0x000021e1       0x34 c:/program files (x86)/gnu tools arm embedded/5.2 2015q4/bin/../lib/gcc/arm-none-eabi/5.2.1/../../../../arm-none-eabi/lib/armv7e-m/fpu\libm.a(lib_a-ef_log.o)
 .ARM.attributes
                0x00002215       0x34 c:/program files (x86)/gnu tools arm embedded/5.2 2015q4/bin/../lib/gcc/arm-none-eabi/5.2.1/../../../../arm-none-eabi/lib/armv7e-m/fpu\libm.a(lib_a-ef_log10.o)
 .ARM.attributes
                0x00002249       0x34 c:/program files (x86)/gnu tools arm embedded/5.2 2015q4/bin/../lib/gcc/arm-none-eabi/5.2.1/../../../../arm-none-eabi/lib/armv7e-m/fpu\libm.a(lib_a-ef_pow.o)
 .ARM.attributes
                0x0000227d       0x34 c:/program files (x86)/gnu tools arm embedded/5.2 2015q4/bin/../lib/gcc/arm-none-eabi/5.2.1/../../../../arm-none-eabi/lib/armv7e-m/fpu\libm.a(lib_a-ef_rem_pio2.o)
 .ARM.attributes
                0x000022b1       0x34 c:/program files (x86)/gnu tools arm embedded/5.2 2015q4/bin/../lib/gcc/arm-none-eabi/5.2.1/../../../../arm-none-eabi/lib/armv7e-m/fpu\libm.a(lib_a-ef_sqrt.o)
 .ARM.attributes
                0x000022e5       0x34 c:/program files (x86)/gnu tools arm embedded/5.2 2015q4/bin/../lib/gcc/arm-none-eabi/5.2.1/../../../../arm-none-eabi/lib/armv7e-m/fpu\libm.a(lib_a-k_cos.o)
 .ARM.attributes
                0x00002319       0x34 c:/program files (x86)/gnu tools arm embedded/5.2 2015q4/bin/../lib/gcc/arm-none-eabi/5.2.1/../../../../arm-none-eabi/lib/armv7e-m/fpu\libm.a(lib_a-k_rem_pio2.o)
 .ARM.attributes
                0x0000234d       0x34 c:/program files (x86)/gnu tools arm embedded/5.2 2015q4/bin/../lib/gcc/arm-none-eabi/5.2.1/../../../../arm-none-eabi/lib/armv7e-m/fpu\libm.a(lib_a-k_sin.o)
 .ARM.attributes
                0x00002381       0x34 c:/program files (x86)/gnu tools arm embedded/5.2 2015q4/bin/../lib/gcc/arm-none-eabi/5.2.1/../../../../arm-none-eabi/lib/armv7e-m/fpu\libm.a(lib_a-kf_rem_pio2.o)
 .ARM.attributes
                0x000023b5       0x34 c:/program files (x86)/gnu tools arm embedded/5.2 2015q4/bin/../lib/gcc/arm-none-eabi/5.2.1/../../../../arm-none-eabi/lib/armv7e-m/fpu\libm.a(lib_a-kf_tan.o)
 .ARM.attributes
                0x000023e9       0x34 c:/program files (x86)/gnu tools arm embedded/5.2 2015q4/bin/../lib/gcc/arm-none-eabi/5.2.1/../../../../arm-none-eabi/lib/armv7e-m/fpu\libm.a(lib_a-s_fabs.o)
 .ARM.attributes
                0x0000241d       0x34 c:/program files (x86)/gnu tools arm embedded/5.2 2015q4/bin/../lib/gcc/arm-none-eabi/5.2.1/../../../../arm-none-eabi/lib/armv7e-m/fpu\libm.a(lib_a-s_finite.o)
 .ARM.attributes
                0x00002451       0x34 c:/program files (x86)/gnu tools arm embedded/5.2 2015q4/bin/../lib/gcc/arm-none-eabi/5.2.1/../../../../arm-none-eabi/lib/armv7e-m/fpu\libm.a(lib_a-s_floor.o)
 .ARM.attributes
                0x00002485       0x34 c:/program files (x86)/gnu tools arm embedded/5.2 2015q4/bin/../lib/gcc/arm-none-eabi/5.2.1/../../../../arm-none-eabi/lib/armv7e-m/fpu\libm.a(lib_a-s_fpclassify.o)
 .ARM.attributes
                0x000024b9       0x34 c:/program files (x86)/gnu tools arm embedded/5.2 2015q4/bin/../lib/gcc/arm-none-eabi/5.2.1/../../../../arm-none-eabi/lib/armv7e-m/fpu\libm.a(lib_a-s_lib_ver.o)
 .ARM.attributes
                0x000024ed       0x34 c:/program files (x86)/gnu tools arm embedded/5.2 2015q4/bin/../lib/gcc/arm-none-eabi/5.2.1/../../../../arm-none-eabi/lib/armv7e-m/fpu\libm.a(lib_a-s_matherr.o)
 .ARM.attributes
                0x00002521       0x34 c:/program files (x86)/gnu tools arm embedded/5.2 2015q4/bin/../lib/gcc/arm-none-eabi/5.2.1/../../../../arm-none-eabi/lib/armv7e-m/fpu\libm.a(lib_a-s_nan.o)
 .ARM.attributes
                0x00002555       0x34 c:/program files (x86)/gnu tools arm embedded/5.2 2015q4/bin/../lib/gcc/arm-none-eabi/5.2.1/../../../../arm-none-eabi/lib/armv7e-m/fpu\libm.a(lib_a-s_rint.o)
 .ARM.attributes
                0x00002589       0x34 c:/program files (x86)/gnu tools arm embedded/5.2 2015q4/bin/../lib/gcc/arm-none-eabi/5.2.1/../../../../arm-none-eabi/lib/armv7e-m/fpu\libm.a(lib_a-s_scalbn.o)
 .ARM.attributes
                0x000025bd       0x34 c:/program files (x86)/gnu tools arm embedded/5.2 2015q4/bin/../lib/gcc/arm-none-eabi/5.2.1/../../../../arm-none-eabi/lib/armv7e-m/fpu\libm.a(lib_a-sf_fabs.o)
 .ARM.attributes
                0x000025f1       0x34 c:/program files (x86)/gnu tools arm embedded/5.2 2015q4/bin/../lib/gcc/arm-none-eabi/5.2.1/../../../../arm-none-eabi/lib/armv7e-m/fpu\libm.a(lib_a-sf_finite.o)
 .ARM.attributes
                0x00002625       0x34 c:/program files (x86)/gnu tools arm embedded/5.2 2015q4/bin/../lib/gcc/arm-none-eabi/5.2.1/../../../../arm-none-eabi/lib/armv7e-m/fpu\libm.a(lib_a-sf_floor.o)
 .ARM.attributes
                0x00002659       0x34 c:/program files (x86)/gnu tools arm embedded/5.2 2015q4/bin/../lib/gcc/arm-none-eabi/5.2.1/../../../../arm-none-eabi/lib/armv7e-m/fpu\libm.a(lib_a-sf_fpclassify.o)
 .ARM.attributes
                0x0000268d       0x34 c:/program files (x86)/gnu tools arm embedded/5.2 2015q4/bin/../lib/gcc/arm-none-eabi/5.2.1/../../../../arm-none-eabi/lib/armv7e-m/fpu\libm.a(lib_a-sf_nan.o)
 .ARM.attributes
                0x000026c1       0x34 c:/program files (x86)/gnu tools arm embedded/5.2 2015q4/bin/../lib/gcc/arm-none-eabi/5.2.1/../../../../arm-none-eabi/lib/armv7e-m/fpu\libm.a(lib_a-sf_scalbn.o)
 .ARM.attributes
                0x000026f5       0x34 c:/program files (x86)/gnu tools arm embedded/5.2 2015q4/bin/../lib/gcc/arm-none-eabi/5.2.1/../../../../arm-none-eabi/lib/armv7e-m/fpu\libm.a(lib_a-s_copysign.o)
 .ARM.attributes
                0x00002729       0x34 c:/program files (x86)/gnu tools arm embedded/5.2 2015q4/bin/../lib/gcc/arm-none-eabi/5.2.1/../../../../arm-none-eabi/lib/armv7e-m/fpu\libm.a(lib_a-sf_copysign.o)
 .ARM.attributes
                0x0000275d       0x22 c:/program files (x86)/gnu tools arm embedded/5.2 2015q4/bin/../lib/gcc/arm-none-eabi/5.2.1/armv7e-m/fpu\libgcc.a(_arm_addsubdf3.o)
 .ARM.attributes
                0x0000277f       0x22 c:/program files (x86)/gnu tools arm embedded/5.2 2015q4/bin/../lib/gcc/arm-none-eabi/5.2.1/armv7e-m/fpu\libgcc.a(_arm_muldivdf3.o)
 .ARM.attributes
                0x000027a1       0x22 c:/program files (x86)/gnu tools arm embedded/5.2 2015q4/bin/../lib/gcc/arm-none-eabi/5.2.1/armv7e-m/fpu\libgcc.a(_arm_cmpdf2.o)
 .ARM.attributes
                0x000027c3       0x22 c:/program files (x86)/gnu tools arm embedded/5.2 2015q4/bin/../lib/gcc/arm-none-eabi/5.2.1/armv7e-m/fpu\libgcc.a(_arm_fixdfsi.o)
 .ARM.attributes
                0x000027e5       0x22 c:/program files (x86)/gnu tools arm embedded/5.2 2015q4/bin/../lib/gcc/arm-none-eabi/5.2.1/armv7e-m/fpu\libgcc.a(_arm_truncdfsf2.o)
 .ARM.attributes
                0x00002807       0x34 c:/program files (x86)/gnu tools arm embedded/5.2 2015q4/bin/../lib/gcc/arm-none-eabi/5.2.1/../../../../arm-none-eabi/lib/armv7e-m/fpu\libc.a(lib_a-atof.o)
 .ARM.attributes
                0x0000283b       0x34 c:/program files (x86)/gnu tools arm embedded/5.2 2015q4/bin/../lib/gcc/arm-none-eabi/5.2.1/../../../../arm-none-eabi/lib/armv7e-m/fpu\libc.a(lib_a-atoi.o)
 .ARM.attributes
                0x0000286f       0x34 c:/program files (x86)/gnu tools arm embedded/5.2 2015q4/bin/../lib/gcc/arm-none-eabi/5.2.1/../../../../arm-none-eabi/lib/armv7e-m/fpu\libc.a(lib_a-atol.o)
 .ARM.attributes
                0x000028a3       0x34 c:/program files (x86)/gnu tools arm embedded/5.2 2015q4/bin/../lib/gcc/arm-none-eabi/5.2.1/../../../../arm-none-eabi/lib/armv7e-m/fpu\libc.a(lib_a-bsearch.o)
 .ARM.attributes
                0x000028d7       0x34 c:/program files (x86)/gnu tools arm embedded/5.2 2015q4/bin/../lib/gcc/arm-none-eabi/5.2.1/../../../../arm-none-eabi/lib/armv7e-m/fpu\libc.a(lib_a-errno.o)
 .ARM.attributes
                0x0000290b       0x34 c:/program files (x86)/gnu tools arm embedded/5.2 2015q4/bin/../lib/gcc/arm-none-eabi/5.2.1/../../../../arm-none-eabi/lib/armv7e-m/fpu\libc.a(lib_a-exit.o)
 .ARM.attributes
                0x0000293f       0x34 c:/program files (x86)/gnu tools arm embedded/5.2 2015q4/bin/../lib/gcc/arm-none-eabi/5.2.1/../../../../arm-none-eabi/lib/armv7e-m/fpu\libc.a(lib_a-fclose.o)
 .ARM.attributes
                0x00002973       0x34 c:/program files (x86)/gnu tools arm embedded/5.2 2015q4/bin/../lib/gcc/arm-none-eabi/5.2.1/../../../../arm-none-eabi/lib/armv7e-m/fpu\libc.a(lib_a-fflush.o)
 .ARM.attributes
                0x000029a7       0x34 c:/program files (x86)/gnu tools arm embedded/5.2 2015q4/bin/../lib/gcc/arm-none-eabi/5.2.1/../../../../arm-none-eabi/lib/armv7e-m/fpu\libc.a(lib_a-findfp.o)
 .ARM.attributes
                0x000029db       0x34 c:/program files (x86)/gnu tools arm embedded/5.2 2015q4/bin/../lib/gcc/arm-none-eabi/5.2.1/../../../../arm-none-eabi/lib/armv7e-m/fpu\libc.a(lib_a-fopen.o)
 .ARM.attributes
                0x00002a0f       0x34 c:/program files (x86)/gnu tools arm embedded/5.2 2015q4/bin/../lib/gcc/arm-none-eabi/5.2.1/../../../../arm-none-eabi/lib/armv7e-m/fpu\libc.a(lib_a-fread.o)
 .ARM.attributes
                0x00002a43       0x34 c:/program files (x86)/gnu tools arm embedded/5.2 2015q4/bin/../lib/gcc/arm-none-eabi/5.2.1/../../../../arm-none-eabi/lib/armv7e-m/fpu\libc.a(lib_a-freer.o)
 .ARM.attributes
                0x00002a77       0x34 c:/program files (x86)/gnu tools arm embedded/5.2 2015q4/bin/../lib/gcc/arm-none-eabi/5.2.1/../../../../arm-none-eabi/lib/armv7e-m/fpu\libc.a(lib_a-fseek.o)
 .ARM.attributes
                0x00002aab       0x34 c:/program files (x86)/gnu tools arm embedded/5.2 2015q4/bin/../lib/gcc/arm-none-eabi/5.2.1/../../../../arm-none-eabi/lib/armv7e-m/fpu\libc.a(lib_a-fseeko.o)
 .ARM.attributes
                0x00002adf       0x34 c:/program files (x86)/gnu tools arm embedded/5.2 2015q4/bin/../lib/gcc/arm-none-eabi/5.2.1/../../../../arm-none-eabi/lib/armv7e-m/fpu\libc.a(lib_a-fstatr.o)
 .ARM.attributes
                0x00002b13       0x34 c:/program files (x86)/gnu tools arm embedded/5.2 2015q4/bin/../lib/gcc/arm-none-eabi/5.2.1/../../../../arm-none-eabi/lib/armv7e-m/fpu\libc.a(lib_a-fwalk.o)
 .ARM.attributes
                0x00002b47       0x34 c:/program files (x86)/gnu tools arm embedded/5.2 2015q4/bin/../lib/gcc/arm-none-eabi/5.2.1/../../../../arm-none-eabi/lib/armv7e-m/fpu\libc.a(lib_a-impure.o)
 .ARM.attributes
                0x00002b7b       0x34 c:/program files (x86)/gnu tools arm embedded/5.2 2015q4/bin/../lib/gcc/arm-none-eabi/5.2.1/../../../../arm-none-eabi/lib/armv7e-m/fpu\libc.a(lib_a-init.o)
 .ARM.attributes
                0x00002baf       0x34 c:/program files (x86)/gnu tools arm embedded/5.2 2015q4/bin/../lib/gcc/arm-none-eabi/5.2.1/../../../../arm-none-eabi/lib/armv7e-m/fpu\libc.a(lib_a-isalnum.o)
 .ARM.attributes
                0x00002be3       0x34 c:/program files (x86)/gnu tools arm embedded/5.2 2015q4/bin/../lib/gcc/arm-none-eabi/5.2.1/../../../../arm-none-eabi/lib/armv7e-m/fpu\libc.a(lib_a-isalpha.o)
 .ARM.attributes
                0x00002c17       0x34 c:/program files (x86)/gnu tools arm embedded/5.2 2015q4/bin/../lib/gcc/arm-none-eabi/5.2.1/../../../../arm-none-eabi/lib/armv7e-m/fpu\libc.a(lib_a-islower.o)
 .ARM.attributes
                0x00002c4b       0x34 c:/program files (x86)/gnu tools arm embedded/5.2 2015q4/bin/../lib/gcc/arm-none-eabi/5.2.1/../../../../arm-none-eabi/lib/armv7e-m/fpu\libc.a(lib_a-isspace.o)
 .ARM.attributes
                0x00002c7f       0x34 c:/program files (x86)/gnu tools arm embedded/5.2 2015q4/bin/../lib/gcc/arm-none-eabi/5.2.1/../../../../arm-none-eabi/lib/armv7e-m/fpu\libc.a(lib_a-isupper.o)
 .ARM.attributes
                0x00002cb3       0x34 c:/program files (x86)/gnu tools arm embedded/5.2 2015q4/bin/../lib/gcc/arm-none-eabi/5.2.1/../../../../arm-none-eabi/lib/armv7e-m/fpu\libc.a(lib_a-isxdigit.o)
 .ARM.attributes
                0x00002ce7       0x34 c:/program files (x86)/gnu tools arm embedded/5.2 2015q4/bin/../lib/gcc/arm-none-eabi/5.2.1/../../../../arm-none-eabi/lib/armv7e-m/fpu\libc.a(lib_a-makebuf.o)
 .ARM.attributes
                0x00002d1b       0x34 c:/program files (x86)/gnu tools arm embedded/5.2 2015q4/bin/../lib/gcc/arm-none-eabi/5.2.1/../../../../arm-none-eabi/lib/armv7e-m/fpu\libc.a(lib_a-malloc.o)
 .ARM.attributes
                0x00002d4f       0x34 c:/program files (x86)/gnu tools arm embedded/5.2 2015q4/bin/../lib/gcc/arm-none-eabi/5.2.1/../../../../arm-none-eabi/lib/armv7e-m/fpu\libc.a(lib_a-mallocr.o)
 .ARM.attributes
                0x00002d83       0x34 c:/program files (x86)/gnu tools arm embedded/5.2 2015q4/bin/../lib/gcc/arm-none-eabi/5.2.1/../../../../arm-none-eabi/lib/armv7e-m/fpu\libc.a(lib_a-memcmp.o)
 .ARM.attributes
                0x00002db7       0x20 c:/program files (x86)/gnu tools arm embedded/5.2 2015q4/bin/../lib/gcc/arm-none-eabi/5.2.1/../../../../arm-none-eabi/lib/armv7e-m/fpu\libc.a(lib_a-memcpy.o)
 .ARM.attributes
                0x00002dd7       0x34 c:/program files (x86)/gnu tools arm embedded/5.2 2015q4/bin/../lib/gcc/arm-none-eabi/5.2.1/../../../../arm-none-eabi/lib/armv7e-m/fpu\libc.a(lib_a-memset.o)
 .ARM.attributes
                0x00002e0b       0x34 c:/program files (x86)/gnu tools arm embedded/5.2 2015q4/bin/../lib/gcc/arm-none-eabi/5.2.1/../../../../arm-none-eabi/lib/armv7e-m/fpu\libc.a(lib_a-mlock.o)
 .ARM.attributes
                0x00002e3f       0x34 c:/program files (x86)/gnu tools arm embedded/5.2 2015q4/bin/../lib/gcc/arm-none-eabi/5.2.1/../../../../arm-none-eabi/lib/armv7e-m/fpu\libc.a(lib_a-openr.o)
 .ARM.attributes
                0x00002e73       0x34 c:/program files (x86)/gnu tools arm embedded/5.2 2015q4/bin/../lib/gcc/arm-none-eabi/5.2.1/../../../../arm-none-eabi/lib/armv7e-m/fpu\libc.a(lib_a-printf.o)
 .ARM.attributes
                0x00002ea7       0x34 c:/program files (x86)/gnu tools arm embedded/5.2 2015q4/bin/../lib/gcc/arm-none-eabi/5.2.1/../../../../arm-none-eabi/lib/armv7e-m/fpu\libc.a(lib_a-rand.o)
 .ARM.attributes
                0x00002edb       0x34 c:/program files (x86)/gnu tools arm embedded/5.2 2015q4/bin/../lib/gcc/arm-none-eabi/5.2.1/../../../../arm-none-eabi/lib/armv7e-m/fpu\libc.a(lib_a-reent.o)
 .ARM.attributes
                0x00002f0f       0x34 c:/program files (x86)/gnu tools arm embedded/5.2 2015q4/bin/../lib/gcc/arm-none-eabi/5.2.1/../../../../arm-none-eabi/lib/armv7e-m/fpu\libc.a(lib_a-refill.o)
 .ARM.attributes
                0x00002f43       0x34 c:/program files (x86)/gnu tools arm embedded/5.2 2015q4/bin/../lib/gcc/arm-none-eabi/5.2.1/../../../../arm-none-eabi/lib/armv7e-m/fpu\libc.a(lib_a-sbrkr.o)
 .ARM.attributes
                0x00002f77       0x34 c:/program files (x86)/gnu tools arm embedded/5.2 2015q4/bin/../lib/gcc/arm-none-eabi/5.2.1/../../../../arm-none-eabi/lib/armv7e-m/fpu\libc.a(lib_a-sprintf.o)
 .ARM.attributes
                0x00002fab       0x34 c:/program files (x86)/gnu tools arm embedded/5.2 2015q4/bin/../lib/gcc/arm-none-eabi/5.2.1/../../../../arm-none-eabi/lib/armv7e-m/fpu\libc.a(lib_a-stdio.o)
 .ARM.attributes
                0x00002fdf       0x34 c:/program files (x86)/gnu tools arm embedded/5.2 2015q4/bin/../lib/gcc/arm-none-eabi/5.2.1/../../../../arm-none-eabi/lib/armv7e-m/fpu\libc.a(lib_a-strcat.o)
 .ARM.attributes
                0x00003013       0x34 c:/program files (x86)/gnu tools arm embedded/5.2 2015q4/bin/../lib/gcc/arm-none-eabi/5.2.1/../../../../arm-none-eabi/lib/armv7e-m/fpu\libc.a(lib_a-strchr.o)
 .ARM.attributes
                0x00003047       0x20 c:/program files (x86)/gnu tools arm embedded/5.2 2015q4/bin/../lib/gcc/arm-none-eabi/5.2.1/../../../../arm-none-eabi/lib/armv7e-m/fpu\libc.a(lib_a-strcmp.o)
 .ARM.attributes
                0x00003067       0x34 c:/program files (x86)/gnu tools arm embedded/5.2 2015q4/bin/../lib/gcc/arm-none-eabi/5.2.1/../../../../arm-none-eabi/lib/armv7e-m/fpu\libc.a(lib_a-strcpy.o)
 .ARM.attributes
                0x0000309b       0x34 c:/program files (x86)/gnu tools arm embedded/5.2 2015q4/bin/../lib/gcc/arm-none-eabi/5.2.1/../../../../arm-none-eabi/lib/armv7e-m/fpu\libc.a(lib_a-strlcat.o)
 .ARM.attributes
                0x000030cf       0x20 c:/program files (x86)/gnu tools arm embedded/5.2 2015q4/bin/../lib/gcc/arm-none-eabi/5.2.1/../../../../arm-none-eabi/lib/armv7e-m/fpu\libc.a(lib_a-strlen.o)
 .ARM.attributes
                0x000030ef       0x34 c:/program files (x86)/gnu tools arm embedded/5.2 2015q4/bin/../lib/gcc/arm-none-eabi/5.2.1/../../../../arm-none-eabi/lib/armv7e-m/fpu\libc.a(lib_a-strncpy.o)
 .ARM.attributes
                0x00003123       0x34 c:/program files (x86)/gnu tools arm embedded/5.2 2015q4/bin/../lib/gcc/arm-none-eabi/5.2.1/../../../../arm-none-eabi/lib/armv7e-m/fpu\libc.a(lib_a-strtod.o)
 .ARM.attributes
                0x00003157       0x34 c:/program files (x86)/gnu tools arm embedded/5.2 2015q4/bin/../lib/gcc/arm-none-eabi/5.2.1/../../../../arm-none-eabi/lib/armv7e-m/fpu\libc.a(lib_a-strtol.o)
 .ARM.attributes
                0x0000318b       0x34 c:/program files (x86)/gnu tools arm embedded/5.2 2015q4/bin/../lib/gcc/arm-none-eabi/5.2.1/../../../../arm-none-eabi/lib/armv7e-m/fpu\libc.a(lib_a-svfprintf.o)
 .ARM.attributes
                0x000031bf       0x34 c:/program files (x86)/gnu tools arm embedded/5.2 2015q4/bin/../lib/gcc/arm-none-eabi/5.2.1/../../../../arm-none-eabi/lib/armv7e-m/fpu\libc.a(lib_a-vfprintf.o)
 .ARM.attributes
                0x000031f3       0x34 c:/program files (x86)/gnu tools arm embedded/5.2 2015q4/bin/../lib/gcc/arm-none-eabi/5.2.1/../../../../arm-none-eabi/lib/armv7e-m/fpu\libc.a(lib_a-writer.o)
 .ARM.attributes
                0x00003227       0x34 c:/program files (x86)/gnu tools arm embedded/5.2 2015q4/bin/../lib/gcc/arm-none-eabi/5.2.1/../../../../arm-none-eabi/lib/armv7e-m/fpu\libc.a(lib_a-wsetup.o)
 .ARM.attributes
                0x0000325b       0x34 c:/program files (x86)/gnu tools arm embedded/5.2 2015q4/bin/../lib/gcc/arm-none-eabi/5.2.1/../../../../arm-none-eabi/lib/armv7e-m/fpu\libc.a(lib_a-__call_atexit.o)
 .ARM.attributes
                0x0000328f       0x34 c:/program files (x86)/gnu tools arm embedded/5.2 2015q4/bin/../lib/gcc/arm-none-eabi/5.2.1/../../../../arm-none-eabi/lib/armv7e-m/fpu\libc.a(lib_a-atexit.o)
 .ARM.attributes
                0x000032c3       0x34 c:/program files (x86)/gnu tools arm embedded/5.2 2015q4/bin/../lib/gcc/arm-none-eabi/5.2.1/../../../../arm-none-eabi/lib/armv7e-m/fpu\libc.a(lib_a-closer.o)
 .ARM.attributes
                0x000032f7       0x34 c:/program files (x86)/gnu tools arm embedded/5.2 2015q4/bin/../lib/gcc/arm-none-eabi/5.2.1/../../../../arm-none-eabi/lib/armv7e-m/fpu\libc.a(lib_a-ctype_.o)
 .ARM.attributes
                0x0000332b       0x34 c:/program files (x86)/gnu tools arm embedded/5.2 2015q4/bin/../lib/gcc/arm-none-eabi/5.2.1/../../../../arm-none-eabi/lib/armv7e-m/fpu\libc.a(lib_a-dtoa.o)
 .ARM.attributes
                0x0000335f       0x34 c:/program files (x86)/gnu tools arm embedded/5.2 2015q4/bin/../lib/gcc/arm-none-eabi/5.2.1/../../../../arm-none-eabi/lib/armv7e-m/fpu\libc.a(lib_a-fini.o)
 .ARM.attributes
                0x00003393       0x34 c:/program files (x86)/gnu tools arm embedded/5.2 2015q4/bin/../lib/gcc/arm-none-eabi/5.2.1/../../../../arm-none-eabi/lib/armv7e-m/fpu\libc.a(lib_a-flags.o)
 .ARM.attributes
                0x000033c7       0x34 c:/program files (x86)/gnu tools arm embedded/5.2 2015q4/bin/../lib/gcc/arm-none-eabi/5.2.1/../../../../arm-none-eabi/lib/armv7e-m/fpu\libc.a(lib_a-gdtoa-gethex.o)
 .ARM.attributes
                0x000033fb       0x34 c:/program files (x86)/gnu tools arm embedded/5.2 2015q4/bin/../lib/gcc/arm-none-eabi/5.2.1/../../../../arm-none-eabi/lib/armv7e-m/fpu\libc.a(lib_a-gdtoa-hexnan.o)
 .ARM.attributes
                0x0000342f       0x34 c:/program files (x86)/gnu tools arm embedded/5.2 2015q4/bin/../lib/gcc/arm-none-eabi/5.2.1/../../../../arm-none-eabi/lib/armv7e-m/fpu\libc.a(lib_a-isattyr.o)
 .ARM.attributes
                0x00003463       0x34 c:/program files (x86)/gnu tools arm embedded/5.2 2015q4/bin/../lib/gcc/arm-none-eabi/5.2.1/../../../../arm-none-eabi/lib/armv7e-m/fpu\libc.a(lib_a-locale.o)
 .ARM.attributes
                0x00003497       0x34 c:/program files (x86)/gnu tools arm embedded/5.2 2015q4/bin/../lib/gcc/arm-none-eabi/5.2.1/../../../../arm-none-eabi/lib/armv7e-m/fpu\libc.a(lib_a-lseekr.o)
 .ARM.attributes
                0x000034cb       0x20 c:/program files (x86)/gnu tools arm embedded/5.2 2015q4/bin/../lib/gcc/arm-none-eabi/5.2.1/../../../../arm-none-eabi/lib/armv7e-m/fpu\libc.a(lib_a-memchr.o)
 .ARM.attributes
                0x000034eb       0x34 c:/program files (x86)/gnu tools arm embedded/5.2 2015q4/bin/../lib/gcc/arm-none-eabi/5.2.1/../../../../arm-none-eabi/lib/armv7e-m/fpu\libc.a(lib_a-mprec.o)
 .ARM.attributes
                0x0000351f       0x34 c:/program files (x86)/gnu tools arm embedded/5.2 2015q4/bin/../lib/gcc/arm-none-eabi/5.2.1/../../../../arm-none-eabi/lib/armv7e-m/fpu\libc.a(lib_a-readr.o)
 .ARM.attributes
                0x00003553       0x34 c:/program files (x86)/gnu tools arm embedded/5.2 2015q4/bin/../lib/gcc/arm-none-eabi/5.2.1/../../../../arm-none-eabi/lib/armv7e-m/fpu\libc.a(lib_a-strncmp.o)
 .ARM.attributes
                0x00003587       0x34 c:/program files (x86)/gnu tools arm embedded/5.2 2015q4/bin/../lib/gcc/arm-none-eabi/5.2.1/../../../../arm-none-eabi/lib/armv7e-m/fpu\libc.a(lib_a-svfiprintf.o)
 .ARM.attributes
                0x000035bb       0x34 c:/program files (x86)/gnu tools arm embedded/5.2 2015q4/bin/../lib/gcc/arm-none-eabi/5.2.1/../../../../arm-none-eabi/lib/armv7e-m/fpu\libc.a(lib_a-vfiprintf.o)
 .ARM.attributes
                0x000035ef       0x34 c:/program files (x86)/gnu tools arm embedded/5.2 2015q4/bin/../lib/gcc/arm-none-eabi/5.2.1/../../../../arm-none-eabi/lib/armv7e-m/fpu\libc.a(lib_a-__atexit.o)
 .ARM.attributes
                0x00003623       0x34 c:/program files (x86)/gnu tools arm embedded/5.2 2015q4/bin/../lib/gcc/arm-none-eabi/5.2.1/../../../../arm-none-eabi/lib/armv7e-m/fpu\libc.a(lib_a-callocr.o)
 .ARM.attributes
                0x00003657       0x34 c:/program files (x86)/gnu tools arm embedded/5.2 2015q4/bin/../lib/gcc/arm-none-eabi/5.2.1/../../../../arm-none-eabi/lib/armv7e-m/fpu\libc.a(lib_a-fputwc.o)
 .ARM.attributes
                0x0000368b       0x34 c:/program files (x86)/gnu tools arm embedded/5.2 2015q4/bin/../lib/gcc/arm-none-eabi/5.2.1/../../../../arm-none-eabi/lib/armv7e-m/fpu\libc.a(lib_a-fvwrite.o)
 .ARM.attributes
                0x000036bf       0x34 c:/program files (x86)/gnu tools arm embedded/5.2 2015q4/bin/../lib/gcc/arm-none-eabi/5.2.1/../../../../arm-none-eabi/lib/armv7e-m/fpu\libc.a(lib_a-memmove.o)
 .ARM.attributes
                0x000036f3       0x34 c:/program files (x86)/gnu tools arm embedded/5.2 2015q4/bin/../lib/gcc/arm-none-eabi/5.2.1/../../../../arm-none-eabi/lib/armv7e-m/fpu\libc.a(lib_a-reallocr.o)
 .ARM.attributes
                0x00003727       0x34 c:/program files (x86)/gnu tools arm embedded/5.2 2015q4/bin/../lib/gcc/arm-none-eabi/5.2.1/../../../../arm-none-eabi/lib/armv7e-m/fpu\libc.a(lib_a-wbuf.o)
 .ARM.attributes
                0x0000375b       0x34 c:/program files (x86)/gnu tools arm embedded/5.2 2015q4/bin/../lib/gcc/arm-none-eabi/5.2.1/../../../../arm-none-eabi/lib/armv7e-m/fpu\libc.a(lib_a-wcrtomb.o)
 .ARM.attributes
                0x0000378f       0x34 c:/program files (x86)/gnu tools arm embedded/5.2 2015q4/bin/../lib/gcc/arm-none-eabi/5.2.1/../../../../arm-none-eabi/lib/armv7e-m/fpu\libc.a(lib_a-wctomb_r.o)
 .ARM.attributes
                0x000037c3       0x22 c:/program files (x86)/gnu tools arm embedded/5.2 2015q4/bin/../lib/gcc/arm-none-eabi/5.2.1/armv7e-m/fpu\libgcc.a(_arm_fixunsdfsi.o)
 .ARM.attributes
                0x000037e5       0x22 c:/program files (x86)/gnu tools arm embedded/5.2 2015q4/bin/../lib/gcc/arm-none-eabi/5.2.1/armv7e-m/fpu\libgcc.a(_aeabi_uldivmod.o)
 .ARM.attributes
                0x00003807       0x34 c:/program files (x86)/gnu tools arm embedded/5.2 2015q4/bin/../lib/gcc/arm-none-eabi/5.2.1/armv7e-m/fpu\libgcc.a(_udivmoddi4.o)
 .ARM.attributes
                0x0000383b       0x22 c:/program files (x86)/gnu tools arm embedded/5.2 2015q4/bin/../lib/gcc/arm-none-eabi/5.2.1/armv7e-m/fpu\libgcc.a(_dvmd_tls.o)
 .ARM.attributes
                0x0000385d       0x34 c:/program files (x86)/gnu tools arm embedded/5.2 2015q4/bin/../lib/gcc/arm-none-eabi/5.2.1/../../../../arm-none-eabi/lib/armv7e-m/fpu\libnosys.a(close.o)
 .ARM.attributes
                0x00003891       0x34 c:/program files (x86)/gnu tools arm embedded/5.2 2015q4/bin/../lib/gcc/arm-none-eabi/5.2.1/../../../../arm-none-eabi/lib/armv7e-m/fpu\libnosys.a(fstat.o)
 .ARM.attributes
                0x000038c5       0x34 c:/program files (x86)/gnu tools arm embedded/5.2 2015q4/bin/../lib/gcc/arm-none-eabi/5.2.1/../../../../arm-none-eabi/lib/armv7e-m/fpu\libnosys.a(isatty.o)
 .ARM.attributes
                0x000038f9       0x34 c:/program files (x86)/gnu tools arm embedded/5.2 2015q4/bin/../lib/gcc/arm-none-eabi/5.2.1/../../../../arm-none-eabi/lib/armv7e-m/fpu\libnosys.a(lseek.o)
 .ARM.attributes
                0x0000392d       0x34 c:/program files (x86)/gnu tools arm embedded/5.2 2015q4/bin/../lib/gcc/arm-none-eabi/5.2.1/../../../../arm-none-eabi/lib/armv7e-m/fpu\libnosys.a(open.o)
 .ARM.attributes
                0x00003961       0x34 c:/program files (x86)/gnu tools arm embedded/5.2 2015q4/bin/../lib/gcc/arm-none-eabi/5.2.1/../../../../arm-none-eabi/lib/armv7e-m/fpu\libnosys.a(read.o)
 .ARM.attributes
                0x00003995       0x34 c:/program files (x86)/gnu tools arm embedded/5.2 2015q4/bin/../lib/gcc/arm-none-eabi/5.2.1/../../../../arm-none-eabi/lib/armv7e-m/fpu\libnosys.a(write.o)
 .ARM.attributes
                0x000039c9       0x34 c:/program files (x86)/gnu tools arm embedded/5.2 2015q4/bin/../lib/gcc/arm-none-eabi/5.2.1/../../../../arm-none-eabi/lib/armv7e-m/fpu\libnosys.a(_exit.o)
 .ARM.attributes
                0x000039fd       0x34 c:/program files (x86)/gnu tools arm embedded/5.2 2015q4/bin/../lib/gcc/arm-none-eabi/5.2.1/armv7e-m/fpu/crtend.o
 .ARM.attributes
                0x00003a31       0x22 c:/program files (x86)/gnu tools arm embedded/5.2 2015q4/bin/../lib/gcc/arm-none-eabi/5.2.1/armv7e-m/fpu/crtn.o
OUTPUT(bin\vt3_app.elf elf32-littlearm)

.comment        0x00000000      0x15c
 .comment       0x00000000       0x6e C:\PROGRA~2\VT3_8920\VT3\RESOUR~1\targets\CANVIEW4\lib\\lld\sysmem.o
                                 0x6f (size before relaxing)
 .comment       0x0000006e       0x6f vt3_code/vt3_lang.c.o
 .comment       0x0000006e       0x6f vt3_code/vt3_IO.c.o
 .comment       0x0000006e       0x6f vt3_code/vt3_disp.c.o
 .comment       0x0000006e       0x6f vt3_code/vt3_disp_events.c.o
 .comment       0x0000006e       0x6f vt3_code/vt3_alarms.c.o
 .comment       0x0000006e       0x6f vt3_code/vt3_signature.c.o
 .comment       0x0000006e       0x6f vt3_code/vt3_images.c.o
 .comment       0x0000006e       0x6f vt3_code/vt3_Font__RobotoBold36.c.o
 .comment       0x0000006e       0x6f vt3_code/vt3_Font__RobotoBold49.c.o
 .comment       0x0000006e       0x6f vt3_code/vt3_POU__MAIN.c.o
 .comment       0x0000006e       0x6f vt3_code/vt3_POU__global_data.c.o
 .comment       0x0000006e       0x6f vt3_code/vt3_POU__key_data.c.o
 .comment       0x0000006e       0x6f vt3_code/vt3_POU_common.c.o
 .comment       0x0000006e       0x6f vt3_code/vt3_vars.c.o
 .comment       0x0000006e       0x6f vt3_code/vt3_var_version.c.o
 .comment       0x0000006e       0x6f vt3_code/vt3_init_persistent_p_array.c.o
 .comment       0x0000006e       0x6f vt3_code/vt3_init_persistent_r_array.c.o
 .comment       0x0000006e       0x6f vt3_code/vt3_init_persistent_f_array.c.o
 .comment       0x0000006e       0x6f vt3_code/vt3_CAN__CanInterface.c.o
 .comment       0x0000006e       0x6f vt3_code/vt3_CAN_common.c.o
 .comment       0x0000006e       0x6f extra/vt3_extra.c.o
 .comment       0x0000006e       0x6f __OBJE~1/vt3_extra.c.o
 .comment       0x0000006e       0x6f __OBJE~1/vt3_POU__closeUSB.c.o
 .comment       0x0000006e       0x6f __OBJE~1/vt3_POU__DATA_ARRAY_255.c.o
 .comment       0x0000006e       0x6f __OBJE~1/vt3_POU__DATA_ARRAY_50.c.o
 .comment       0x0000006e       0x6f __OBJE~1/vt3_POU__ENUM_KEY_MODE.c.o
 .comment       0x0000006e       0x6f __OBJE~1/vt3_POU__ENUM_MODE_ERR.c.o
 .comment       0x0000006e       0x6f __OBJE~1/vt3_POU__ENUM_OPEN_FILE.c.o
 .comment       0x0000006e       0x6f __OBJE~1/vt3_POU__ENUM_PARITY.c.o
 .comment       0x0000006e       0x6f __OBJE~1/vt3_POU__ENUM_UART_ERR.c.o
 .comment       0x0000006e       0x6f __OBJE~1/vt3_POU__ENUM_UPDATE.c.o
 .comment       0x0000006e       0x6f __OBJE~1/vt3_POU__ENUM_USB_ERR.c.o
 .comment       0x0000006e       0x6f __OBJE~1/vt3_POU__ForceUpdate.c.o
 .comment       0x0000006e       0x6f __OBJE~1/vt3_POU__initCOM.c.o
 .comment       0x0000006e       0x6f __OBJE~1/vt3_POU__mountUSB.c.o
 .comment       0x0000006e       0x6f __OBJE~1/vt3_POU__openUSB.c.o
 .comment       0x0000006e       0x6f __OBJE~1/vt3_POU__PowerOff.c.o
 .comment       0x0000006e       0x6f __OBJE~1/vt3_POU__readByteCOM.c.o
 .comment       0x0000006e       0x6f __OBJE~1/vt3_POU__readStringCOM.c.o
 .comment       0x0000006e       0x6f __OBJE~1/vt3_POU__readStringUSB.c.o
 .comment       0x0000006e       0x6f __OBJE~1/vt3_POU__resetBufferCOM.c.o
 .comment       0x0000006e       0x6f __OBJE~1/vt3_POU__SetKeyMode.c.o
 .comment       0x0000006e       0x6f __OBJE~1/vt3_POU__umountUSB.c.o
 .comment       0x0000006e       0x6f __OBJE~1/vt3_POU__writeByteCOM.c.o
 .comment       0x0000006e       0x6f __OBJE~1/vt3_POU__writeElogUSB.c.o
 .comment       0x0000006e       0x6f __OBJE~1/vt3_POU__writeStringCOM.c.o
 .comment       0x0000006e       0x6f __OBJE~1/vt3_POU__writeStringUSB.c.o
 .comment       0x0000006e       0x70 C:\PROGRA~2\VT3_8920\VT3\RESOUR~1\targets\CANVIEW4\lib\vt3_runtime\libvt3_runtime.a(VT3_Main.o)
                                 0x71 (size before relaxing)
 .comment       0x000000de       0x71 C:\PROGRA~2\VT3_8920\VT3\RESOUR~1\targets\CANVIEW4\lib\vt3_runtime\libvt3_runtime.a(VT3_Runtime.o)
 .comment       0x000000de       0x71 C:\PROGRA~2\VT3_8920\VT3\RESOUR~1\targets\CANVIEW4\lib\vt3_runtime\libvt3_runtime.a(VT3_Cycle100.o)
 .comment       0x000000de       0x71 C:\PROGRA~2\VT3_8920\VT3\RESOUR~1\targets\CANVIEW4\lib\vt3_runtime\libvt3_runtime.a(VT3_Cycle20.o)
 .comment       0x000000de       0x71 C:\PROGRA~2\VT3_8920\VT3\RESOUR~1\targets\CANVIEW4\lib\vt3_common\libvt3_common.a(IEC_Lib.o)
 .comment       0x000000de       0x71 C:\PROGRA~2\VT3_8920\VT3\RESOUR~1\targets\CANVIEW4\lib\vt3_common\libvt3_common.a(VT3_CAN_debug.o)
 .comment       0x000000de       0x71 C:\PROGRA~2\VT3_8920\VT3\RESOUR~1\targets\CANVIEW4\lib\vt3_common\libvt3_common.a(VT3_Draw.o)
 .comment       0x000000de       0x71 C:\PROGRA~2\VT3_8920\VT3\RESOUR~1\targets\CANVIEW4\lib\vt3_common\libvt3_common.a(VT3_Runtime_Common.o)
 .comment       0x000000de       0x71 C:\PROGRA~2\VT3_8920\VT3\RESOUR~1\targets\CANVIEW4\lib\vt3_common\libvt3_common.a(VT3_elog.o)
 .comment       0x000000de       0x7e C:\PROGRA~2\VT3_8920\VT3\RESOUR~1\targets\CANVIEW4\lib\lld\libCANView4.a(stm32f4xx_it.o)
                                 0x7f (size before relaxing)
 .comment       0x0000015c       0x7f C:\PROGRA~2\VT3_8920\VT3\RESOUR~1\targets\CANVIEW4\lib\lld\libCANView4.a(usbh_conf.o)
 .comment       0x0000015c       0x7f C:\PROGRA~2\VT3_8920\VT3\RESOUR~1\targets\CANVIEW4\lib\lld\libCANView4.a(system_stm32f4xx.o)
 .comment       0x0000015c       0x7f C:\PROGRA~2\VT3_8920\VT3\RESOUR~1\targets\CANVIEW4\lib\lld\libCANView4.a(stm32f4xx_hal.o)
 .comment       0x0000015c       0x7f C:\PROGRA~2\VT3_8920\VT3\RESOUR~1\targets\CANVIEW4\lib\lld\libCANView4.a(stm32f4xx_hal_cortex.o)
 .comment       0x0000015c       0x7f C:\PROGRA~2\VT3_8920\VT3\RESOUR~1\targets\CANVIEW4\lib\lld\libCANView4.a(stm32f4xx_hal_dcmi.o)
 .comment       0x0000015c       0x7f C:\PROGRA~2\VT3_8920\VT3\RESOUR~1\targets\CANVIEW4\lib\lld\libCANView4.a(stm32f4xx_hal_dma.o)
 .comment       0x0000015c       0x7f C:\PROGRA~2\VT3_8920\VT3\RESOUR~1\targets\CANVIEW4\lib\lld\libCANView4.a(stm32f4xx_hal_dma_ex.o)
 .comment       0x0000015c       0x7f C:\PROGRA~2\VT3_8920\VT3\RESOUR~1\targets\CANVIEW4\lib\lld\libCANView4.a(stm32f4xx_hal_gpio.o)
 .comment       0x0000015c       0x7f C:\PROGRA~2\VT3_8920\VT3\RESOUR~1\targets\CANVIEW4\lib\lld\libCANView4.a(stm32f4xx_hal_hcd.o)
 .comment       0x0000015c       0x7f C:\PROGRA~2\VT3_8920\VT3\RESOUR~1\targets\CANVIEW4\lib\lld\libCANView4.a(stm32f4xx_hal_rcc.o)
 .comment       0x0000015c       0x7f C:\PROGRA~2\VT3_8920\VT3\RESOUR~1\targets\CANVIEW4\lib\lld\libCANView4.a(stm32f4xx_hal_tim.o)
 .comment       0x0000015c       0x7f C:\PROGRA~2\VT3_8920\VT3\RESOUR~1\targets\CANVIEW4\lib\lld\libCANView4.a(stm32f4xx_hal_tim_ex.o)
 .comment       0x0000015c       0x7f C:\PROGRA~2\VT3_8920\VT3\RESOUR~1\targets\CANVIEW4\lib\lld\libCANView4.a(stm32f4xx_hal_uart.o)
 .comment       0x0000015c       0x7f C:\PROGRA~2\VT3_8920\VT3\RESOUR~1\targets\CANVIEW4\lib\lld\libCANView4.a(stm32f4xx_ll_usb.o)
 .comment       0x0000015c       0x7f C:\PROGRA~2\VT3_8920\VT3\RESOUR~1\targets\CANVIEW4\lib\lld\libCANView4.a(CRC16.o)
 .comment       0x0000015c       0x7f C:\PROGRA~2\VT3_8920\VT3\RESOUR~1\targets\CANVIEW4\lib\lld\libCANView4.a(Camera.o)
 .comment       0x0000015c       0x7f C:\PROGRA~2\VT3_8920\VT3\RESOUR~1\targets\CANVIEW4\lib\lld\libCANView4.a(CANView4_Event_Log.o)
 .comment       0x0000015c       0x7f C:\PROGRA~2\VT3_8920\VT3\RESOUR~1\targets\CANVIEW4\lib\lld\libCANView4.a(CANView4_HW_lib.o)
 .comment       0x0000015c       0x7f C:\PROGRA~2\VT3_8920\VT3\RESOUR~1\targets\CANVIEW4\lib\lld\libCANView4.a(CANView4_Mem_EEPROM.o)
 .comment       0x0000015c       0x7f C:\PROGRA~2\VT3_8920\VT3\RESOUR~1\targets\CANVIEW4\lib\lld\libCANView4.a(CANView4_Mem_EXT_FLASH.o)
 .comment       0x0000015c       0x7f C:\PROGRA~2\VT3_8920\VT3\RESOUR~1\targets\CANVIEW4\lib\lld\libCANView4.a(CANView4_Node.o)
 .comment       0x0000015c       0x7f C:\PROGRA~2\VT3_8920\VT3\RESOUR~1\targets\CANVIEW4\lib\lld\libCANView4.a(CANView4_STM_periphs_lib.o)
 .comment       0x0000015c       0x7f C:\PROGRA~2\VT3_8920\VT3\RESOUR~1\targets\CANVIEW4\lib\lld\libCANView4.a(CANView4_Task_Manager.o)
 .comment       0x0000015c       0x7f C:\PROGRA~2\VT3_8920\VT3\RESOUR~1\targets\CANVIEW4\lib\lld\libCANView4.a(KWP2000_Light.o)
 .comment       0x0000015c       0x7f C:\PROGRA~2\VT3_8920\VT3\RESOUR~1\targets\CANVIEW4\lib\lld\libCANView4.a(Virtual_TIMs.o)
 .comment       0x0000015c       0x7f C:\PROGRA~2\VT3_8920\VT3\RESOUR~1\targets\CANVIEW4\lib\lld\libCANView4.a(Display_Utilities.o)
 .comment       0x0000015c       0x7f C:\PROGRA~2\VT3_8920\VT3\RESOUR~1\targets\CANVIEW4\lib\lld\libCANView4.a(Display_lib.o)
 .comment       0x0000015c       0x7f C:\PROGRA~2\VT3_8920\VT3\RESOUR~1\targets\CANVIEW4\lib\lld\libCANView4.a(eeprom.o)
 .comment       0x0000015c       0x7f C:\PROGRA~2\VT3_8920\VT3\RESOUR~1\targets\CANVIEW4\lib\lld\libCANView4.a(Spansion_128Mb.o)
 .comment       0x0000015c       0x7f C:\PROGRA~2\VT3_8920\VT3\RESOUR~1\targets\CANVIEW4\lib\lld\libCANView4.a(CAN.o)
 .comment       0x0000015c       0x7f C:\PROGRA~2\VT3_8920\VT3\RESOUR~1\targets\CANVIEW4\lib\lld\libCANView4.a(Generic_IO.o)
 .comment       0x0000015c       0x7f C:\PROGRA~2\VT3_8920\VT3\RESOUR~1\targets\CANVIEW4\lib\lld\libCANView4.a(RS232.o)
 .comment       0x0000015c       0x7f C:\PROGRA~2\VT3_8920\VT3\RESOUR~1\targets\CANVIEW4\lib\lld\libCANView4.a(MD5.o)
 .comment       0x0000015c       0x7f C:\PROGRA~2\VT3_8920\VT3\RESOUR~1\targets\CANVIEW4\lib\lld\libCANView4.a(RTC.o)
 .comment       0x0000015c       0x7f C:\PROGRA~2\VT3_8920\VT3\RESOUR~1\targets\CANVIEW4\lib\lld\libCANView4.a(CANView4_Mem_RTC.o)
 .comment       0x0000015c       0x7f C:\PROGRA~2\VT3_8920\VT3\RESOUR~1\targets\CANVIEW4\lib\lld\libCANView4.a(TVP5150.o)
 .comment       0x0000015c       0x7f C:\PROGRA~2\VT3_8920\VT3\RESOUR~1\targets\CANVIEW4\lib\lld\libCANView4.a(USB_Utilities.o)
 .comment       0x0000015c       0x7f C:\PROGRA~2\VT3_8920\VT3\RESOUR~1\targets\CANVIEW4\lib\lld\libCANView4.a(Utilities.o)
 .comment       0x0000015c       0x7f C:\PROGRA~2\VT3_8920\VT3\RESOUR~1\targets\CANVIEW4\lib\lld\libCANView4.a(ff.o)
 .comment       0x0000015c       0x7f C:\PROGRA~2\VT3_8920\VT3\RESOUR~1\targets\CANVIEW4\lib\lld\libCANView4.a(cmsis_os.o)
 .comment       0x0000015c       0x7f C:\PROGRA~2\VT3_8920\VT3\RESOUR~1\targets\CANVIEW4\lib\lld\libCANView4.a(heap_4.o)
 .comment       0x0000015c       0x7f C:\PROGRA~2\VT3_8920\VT3\RESOUR~1\targets\CANVIEW4\lib\lld\libCANView4.a(port.o)
 .comment       0x0000015c       0x7f C:\PROGRA~2\VT3_8920\VT3\RESOUR~1\targets\CANVIEW4\lib\lld\libCANView4.a(queue.o)
 .comment       0x0000015c       0x7f C:\PROGRA~2\VT3_8920\VT3\RESOUR~1\targets\CANVIEW4\lib\lld\libCANView4.a(tasks.o)
 .comment       0x0000015c       0x7f C:\PROGRA~2\VT3_8920\VT3\RESOUR~1\targets\CANVIEW4\lib\lld\libCANView4.a(usbh_core.o)
 .comment       0x0000015c       0x7f C:\PROGRA~2\VT3_8920\VT3\RESOUR~1\targets\CANVIEW4\lib\lld\libCANView4.a(usbh_ctlreq.o)
 .comment       0x0000015c       0x7f C:\PROGRA~2\VT3_8920\VT3\RESOUR~1\targets\CANVIEW4\lib\lld\libCANView4.a(usbh_ioreq.o)
 .comment       0x0000015c       0x7f C:\PROGRA~2\VT3_8920\VT3\RESOUR~1\targets\CANVIEW4\lib\lld\libCANView4.a(usbh_pipes.o)
 .comment       0x0000015c       0x7f C:\PROGRA~2\VT3_8920\VT3\RESOUR~1\targets\CANVIEW4\lib\lld\libCANView4.a(fatfs.o)
 .comment       0x0000015c       0x7f C:\PROGRA~2\VT3_8920\VT3\RESOUR~1\targets\CANVIEW4\lib\lld\libCANView4.a(stm32f4xx_hal_msp.o)
 .comment       0x0000015c       0x7f C:\PROGRA~2\VT3_8920\VT3\RESOUR~1\targets\CANVIEW4\lib\lld\libCANView4.a(usb_host.o)
 .comment       0x0000015c       0x7f C:\PROGRA~2\VT3_8920\VT3\RESOUR~1\targets\CANVIEW4\lib\lld\libCANView4.a(stm32f4xx_hal_adc.o)
 .comment       0x0000015c       0x7f C:\PROGRA~2\VT3_8920\VT3\RESOUR~1\targets\CANVIEW4\lib\lld\libCANView4.a(stm32f4xx_hal_adc_ex.o)
 .comment       0x0000015c       0x7f C:\PROGRA~2\VT3_8920\VT3\RESOUR~1\targets\CANVIEW4\lib\lld\libCANView4.a(stm32f4xx_hal_can.o)
 .comment       0x0000015c       0x7f C:\PROGRA~2\VT3_8920\VT3\RESOUR~1\targets\CANVIEW4\lib\lld\libCANView4.a(stm32f4xx_hal_dma2d.o)
 .comment       0x0000015c       0x7f C:\PROGRA~2\VT3_8920\VT3\RESOUR~1\targets\CANVIEW4\lib\lld\libCANView4.a(stm32f4xx_hal_flash.o)
 .comment       0x0000015c       0x7f C:\PROGRA~2\VT3_8920\VT3\RESOUR~1\targets\CANVIEW4\lib\lld\libCANView4.a(stm32f4xx_hal_flash_ex.o)
 .comment       0x0000015c       0x7f C:\PROGRA~2\VT3_8920\VT3\RESOUR~1\targets\CANVIEW4\lib\lld\libCANView4.a(stm32f4xx_hal_i2c.o)
 .comment       0x0000015c       0x7f C:\PROGRA~2\VT3_8920\VT3\RESOUR~1\targets\CANVIEW4\lib\lld\libCANView4.a(stm32f4xx_hal_ltdc.o)
 .comment       0x0000015c       0x7f C:\PROGRA~2\VT3_8920\VT3\RESOUR~1\targets\CANVIEW4\lib\lld\libCANView4.a(stm32f4xx_hal_pwr.o)
 .comment       0x0000015c       0x7f C:\PROGRA~2\VT3_8920\VT3\RESOUR~1\targets\CANVIEW4\lib\lld\libCANView4.a(stm32f4xx_hal_pwr_ex.o)
 .comment       0x0000015c       0x7f C:\PROGRA~2\VT3_8920\VT3\RESOUR~1\targets\CANVIEW4\lib\lld\libCANView4.a(stm32f4xx_hal_rcc_ex.o)
 .comment       0x0000015c       0x7f C:\PROGRA~2\VT3_8920\VT3\RESOUR~1\targets\CANVIEW4\lib\lld\libCANView4.a(stm32f4xx_hal_rtc.o)
 .comment       0x0000015c       0x7f C:\PROGRA~2\VT3_8920\VT3\RESOUR~1\targets\CANVIEW4\lib\lld\libCANView4.a(stm32f4xx_hal_rtc_ex.o)
 .comment       0x0000015c       0x7f C:\PROGRA~2\VT3_8920\VT3\RESOUR~1\targets\CANVIEW4\lib\lld\libCANView4.a(stm32f4xx_hal_sdram.o)
 .comment       0x0000015c       0x7f C:\PROGRA~2\VT3_8920\VT3\RESOUR~1\targets\CANVIEW4\lib\lld\libCANView4.a(stm32f4xx_hal_spi.o)
 .comment       0x0000015c       0x7f C:\PROGRA~2\VT3_8920\VT3\RESOUR~1\targets\CANVIEW4\lib\lld\libCANView4.a(stm32f4xx_ll_fmc.o)
 .comment       0x0000015c       0x7f C:\PROGRA~2\VT3_8920\VT3\RESOUR~1\targets\CANVIEW4\lib\lld\libCANView4.a(CRC32.o)
 .comment       0x0000015c       0x7f C:\PROGRA~2\VT3_8920\VT3\RESOUR~1\targets\CANVIEW4\lib\lld\libCANView4.a(ccsbcs.o)
 .comment       0x0000015c       0x7f C:\PROGRA~2\VT3_8920\VT3\RESOUR~1\targets\CANVIEW4\lib\lld\libCANView4.a(diskio.o)
 .comment       0x0000015c       0x7f C:\PROGRA~2\VT3_8920\VT3\RESOUR~1\targets\CANVIEW4\lib\lld\libCANView4.a(ff_gen_drv.o)
 .comment       0x0000015c       0x7f C:\PROGRA~2\VT3_8920\VT3\RESOUR~1\targets\CANVIEW4\lib\lld\libCANView4.a(usbh_diskio.o)
 .comment       0x0000015c       0x7f C:\PROGRA~2\VT3_8920\VT3\RESOUR~1\targets\CANVIEW4\lib\lld\libCANView4.a(list.o)
 .comment       0x0000015c       0x7f C:\PROGRA~2\VT3_8920\VT3\RESOUR~1\targets\CANVIEW4\lib\lld\libCANView4.a(usbh_msc.o)
 .comment       0x0000015c       0x7f C:\PROGRA~2\VT3_8920\VT3\RESOUR~1\targets\CANVIEW4\lib\lld\libCANView4.a(usbh_msc_bot.o)
 .comment       0x0000015c       0x7f C:\PROGRA~2\VT3_8920\VT3\RESOUR~1\targets\CANVIEW4\lib\lld\libCANView4.a(usbh_msc_scsi.o)

.debug_info     0x00000000    0x7db37
 .debug_info    0x00000000      0x31a C:\PROGRA~2\VT3_8920\VT3\RESOUR~1\targets\CANVIEW4\lib\vt3_runtime\libvt3_runtime.a(VT3_Main.o)
 .debug_info    0x0000031a      0xa34 C:\PROGRA~2\VT3_8920\VT3\RESOUR~1\targets\CANVIEW4\lib\vt3_runtime\libvt3_runtime.a(VT3_Runtime.o)
 .debug_info    0x00000d4e       0xf6 C:\PROGRA~2\VT3_8920\VT3\RESOUR~1\targets\CANVIEW4\lib\vt3_runtime\libvt3_runtime.a(VT3_Cycle100.o)
 .debug_info    0x00000e44      0x129 C:\PROGRA~2\VT3_8920\VT3\RESOUR~1\targets\CANVIEW4\lib\vt3_runtime\libvt3_runtime.a(VT3_Cycle20.o)
 .debug_info    0x00000f6d     0x7bf7 C:\PROGRA~2\VT3_8920\VT3\RESOUR~1\targets\CANVIEW4\lib\vt3_common\libvt3_common.a(IEC_Lib.o)
 .debug_info    0x00008b64     0x2bc1 C:\PROGRA~2\VT3_8920\VT3\RESOUR~1\targets\CANVIEW4\lib\vt3_common\libvt3_common.a(VT3_CAN_debug.o)
 .debug_info    0x0000b725     0x5f5a C:\PROGRA~2\VT3_8920\VT3\RESOUR~1\targets\CANVIEW4\lib\vt3_common\libvt3_common.a(VT3_Draw.o)
 .debug_info    0x0001167f      0x9b0 C:\PROGRA~2\VT3_8920\VT3\RESOUR~1\targets\CANVIEW4\lib\vt3_common\libvt3_common.a(VT3_Runtime_Common.o)
 .debug_info    0x0001202f     0x1fde C:\PROGRA~2\VT3_8920\VT3\RESOUR~1\targets\CANVIEW4\lib\vt3_common\libvt3_common.a(VT3_elog.o)
 .debug_info    0x0001400d       0x22 C:\PROGRA~2\VT3_8920\VT3\RESOUR~1\targets\CANVIEW4\lib\lld\libCANView4.a(startup_stm32f429xx.o)
 .debug_info    0x0001402f     0x172e C:\PROGRA~2\VT3_8920\VT3\RESOUR~1\targets\CANVIEW4\lib\lld\libCANView4.a(stm32f4xx_it.o)
 .debug_info    0x0001575d     0x201f C:\PROGRA~2\VT3_8920\VT3\RESOUR~1\targets\CANVIEW4\lib\lld\libCANView4.a(usbh_conf.o)
 .debug_info    0x0001777c      0xd06 C:\PROGRA~2\VT3_8920\VT3\RESOUR~1\targets\CANVIEW4\lib\lld\libCANView4.a(system_stm32f4xx.o)
 .debug_info    0x00018482     0x1137 C:\PROGRA~2\VT3_8920\VT3\RESOUR~1\targets\CANVIEW4\lib\lld\libCANView4.a(stm32f4xx_hal.o)
 .debug_info    0x000195b9     0x155a C:\PROGRA~2\VT3_8920\VT3\RESOUR~1\targets\CANVIEW4\lib\lld\libCANView4.a(stm32f4xx_hal_cortex.o)
 .debug_info    0x0001ab13     0x1110 C:\PROGRA~2\VT3_8920\VT3\RESOUR~1\targets\CANVIEW4\lib\lld\libCANView4.a(stm32f4xx_hal_dcmi.o)
 .debug_info    0x0001bc23      0xf27 C:\PROGRA~2\VT3_8920\VT3\RESOUR~1\targets\CANVIEW4\lib\lld\libCANView4.a(stm32f4xx_hal_dma.o)
 .debug_info    0x0001cb4a      0xce2 C:\PROGRA~2\VT3_8920\VT3\RESOUR~1\targets\CANVIEW4\lib\lld\libCANView4.a(stm32f4xx_hal_dma_ex.o)
 .debug_info    0x0001d82c      0xf57 C:\PROGRA~2\VT3_8920\VT3\RESOUR~1\targets\CANVIEW4\lib\lld\libCANView4.a(stm32f4xx_hal_gpio.o)
 .debug_info    0x0001e783     0x14ec C:\PROGRA~2\VT3_8920\VT3\RESOUR~1\targets\CANVIEW4\lib\lld\libCANView4.a(stm32f4xx_hal_hcd.o)
 .debug_info    0x0001fc6f     0x1366 C:\PROGRA~2\VT3_8920\VT3\RESOUR~1\targets\CANVIEW4\lib\lld\libCANView4.a(stm32f4xx_hal_rcc.o)
 .debug_info    0x00020fd5     0x291b C:\PROGRA~2\VT3_8920\VT3\RESOUR~1\targets\CANVIEW4\lib\lld\libCANView4.a(stm32f4xx_hal_tim.o)
 .debug_info    0x000238f0     0x177d C:\PROGRA~2\VT3_8920\VT3\RESOUR~1\targets\CANVIEW4\lib\lld\libCANView4.a(stm32f4xx_hal_tim_ex.o)
 .debug_info    0x0002506d     0x16d3 C:\PROGRA~2\VT3_8920\VT3\RESOUR~1\targets\CANVIEW4\lib\lld\libCANView4.a(stm32f4xx_hal_uart.o)
 .debug_info    0x00026740     0x1c2d C:\PROGRA~2\VT3_8920\VT3\RESOUR~1\targets\CANVIEW4\lib\lld\libCANView4.a(stm32f4xx_ll_usb.o)
 .debug_info    0x0002836d      0x9e2 C:\PROGRA~2\VT3_8920\VT3\RESOUR~1\targets\CANVIEW4\lib\lld\libCANView4.a(CRC16.o)
 .debug_info    0x00028d4f     0x166d C:\PROGRA~2\VT3_8920\VT3\RESOUR~1\targets\CANVIEW4\lib\lld\libCANView4.a(Camera.o)
 .debug_info    0x0002a3bc     0x1c05 C:\PROGRA~2\VT3_8920\VT3\RESOUR~1\targets\CANVIEW4\lib\lld\libCANView4.a(CANView4_Event_Log.o)
 .debug_info    0x0002bfc1     0x42e7 C:\PROGRA~2\VT3_8920\VT3\RESOUR~1\targets\CANVIEW4\lib\lld\libCANView4.a(CANView4_HW_lib.o)
 .debug_info    0x000302a8      0x9bd C:\PROGRA~2\VT3_8920\VT3\RESOUR~1\targets\CANVIEW4\lib\lld\libCANView4.a(CANView4_Mem_EEPROM.o)
 .debug_info    0x00030c65      0xa89 C:\PROGRA~2\VT3_8920\VT3\RESOUR~1\targets\CANVIEW4\lib\lld\libCANView4.a(CANView4_Mem_EXT_FLASH.o)
 .debug_info    0x000316ee      0xcc6 C:\PROGRA~2\VT3_8920\VT3\RESOUR~1\targets\CANVIEW4\lib\lld\libCANView4.a(CANView4_Node.o)
 .debug_info    0x000323b4     0x3a47 C:\PROGRA~2\VT3_8920\VT3\RESOUR~1\targets\CANVIEW4\lib\lld\libCANView4.a(CANView4_STM_periphs_lib.o)
 .debug_info    0x00035dfb      0xd02 C:\PROGRA~2\VT3_8920\VT3\RESOUR~1\targets\CANVIEW4\lib\lld\libCANView4.a(CANView4_Task_Manager.o)
 .debug_info    0x00036afd     0x1089 C:\PROGRA~2\VT3_8920\VT3\RESOUR~1\targets\CANVIEW4\lib\lld\libCANView4.a(KWP2000_Light.o)
 .debug_info    0x00037b86      0xa81 C:\PROGRA~2\VT3_8920\VT3\RESOUR~1\targets\CANVIEW4\lib\lld\libCANView4.a(Virtual_TIMs.o)
 .debug_info    0x00038607      0x9dd C:\PROGRA~2\VT3_8920\VT3\RESOUR~1\targets\CANVIEW4\lib\lld\libCANView4.a(Display_Utilities.o)
 .debug_info    0x00038fe4     0x5389 C:\PROGRA~2\VT3_8920\VT3\RESOUR~1\targets\CANVIEW4\lib\lld\libCANView4.a(Display_lib.o)
 .debug_info    0x0003e36d      0xfef C:\PROGRA~2\VT3_8920\VT3\RESOUR~1\targets\CANVIEW4\lib\lld\libCANView4.a(eeprom.o)
 .debug_info    0x0003f35c     0x1b46 C:\PROGRA~2\VT3_8920\VT3\RESOUR~1\targets\CANVIEW4\lib\lld\libCANView4.a(Spansion_128Mb.o)
 .debug_info    0x00040ea2     0x1d23 C:\PROGRA~2\VT3_8920\VT3\RESOUR~1\targets\CANVIEW4\lib\lld\libCANView4.a(CAN.o)
 .debug_info    0x00042bc5      0xa1c C:\PROGRA~2\VT3_8920\VT3\RESOUR~1\targets\CANVIEW4\lib\lld\libCANView4.a(Generic_IO.o)
 .debug_info    0x000435e1     0x111f C:\PROGRA~2\VT3_8920\VT3\RESOUR~1\targets\CANVIEW4\lib\lld\libCANView4.a(RS232.o)
 .debug_info    0x00044700      0xc75 C:\PROGRA~2\VT3_8920\VT3\RESOUR~1\targets\CANVIEW4\lib\lld\libCANView4.a(MD5.o)
 .debug_info    0x00045375      0xe75 C:\PROGRA~2\VT3_8920\VT3\RESOUR~1\targets\CANVIEW4\lib\lld\libCANView4.a(RTC.o)
 .debug_info    0x000461ea      0xb90 C:\PROGRA~2\VT3_8920\VT3\RESOUR~1\targets\CANVIEW4\lib\lld\libCANView4.a(CANView4_Mem_RTC.o)
 .debug_info    0x00046d7a     0x1170 C:\PROGRA~2\VT3_8920\VT3\RESOUR~1\targets\CANVIEW4\lib\lld\libCANView4.a(TVP5150.o)
 .debug_info    0x00047eea     0x174d C:\PROGRA~2\VT3_8920\VT3\RESOUR~1\targets\CANVIEW4\lib\lld\libCANView4.a(USB_Utilities.o)
 .debug_info    0x00049637      0x957 C:\PROGRA~2\VT3_8920\VT3\RESOUR~1\targets\CANVIEW4\lib\lld\libCANView4.a(Utilities.o)
 .debug_info    0x00049f8e     0x349b C:\PROGRA~2\VT3_8920\VT3\RESOUR~1\targets\CANVIEW4\lib\lld\libCANView4.a(ff.o)
 .debug_info    0x0004d429     0x1a34 C:\PROGRA~2\VT3_8920\VT3\RESOUR~1\targets\CANVIEW4\lib\lld\libCANView4.a(cmsis_os.o)
 .debug_info    0x0004ee5d      0xbf6 C:\PROGRA~2\VT3_8920\VT3\RESOUR~1\targets\CANVIEW4\lib\lld\libCANView4.a(heap_4.o)
 .debug_info    0x0004fa53      0x530 C:\PROGRA~2\VT3_8920\VT3\RESOUR~1\targets\CANVIEW4\lib\lld\libCANView4.a(port.o)
 .debug_info    0x0004ff83     0x1a67 C:\PROGRA~2\VT3_8920\VT3\RESOUR~1\targets\CANVIEW4\lib\lld\libCANView4.a(queue.o)
 .debug_info    0x000519ea     0x23d5 C:\PROGRA~2\VT3_8920\VT3\RESOUR~1\targets\CANVIEW4\lib\lld\libCANView4.a(tasks.o)
 .debug_info    0x00053dbf     0x1868 C:\PROGRA~2\VT3_8920\VT3\RESOUR~1\targets\CANVIEW4\lib\lld\libCANView4.a(usbh_core.o)
 .debug_info    0x00055627     0x16e4 C:\PROGRA~2\VT3_8920\VT3\RESOUR~1\targets\CANVIEW4\lib\lld\libCANView4.a(usbh_ctlreq.o)
 .debug_info    0x00056d0b     0x1444 C:\PROGRA~2\VT3_8920\VT3\RESOUR~1\targets\CANVIEW4\lib\lld\libCANView4.a(usbh_ioreq.o)
 .debug_info    0x0005814f     0x1286 C:\PROGRA~2\VT3_8920\VT3\RESOUR~1\targets\CANVIEW4\lib\lld\libCANView4.a(usbh_pipes.o)
 .debug_info    0x000593d5     0x12d2 C:\PROGRA~2\VT3_8920\VT3\RESOUR~1\targets\CANVIEW4\lib\lld\libCANView4.a(fatfs.o)
 .debug_info    0x0005a6a7     0x34cf C:\PROGRA~2\VT3_8920\VT3\RESOUR~1\targets\CANVIEW4\lib\lld\libCANView4.a(stm32f4xx_hal_msp.o)
 .debug_info    0x0005db76     0x11d9 C:\PROGRA~2\VT3_8920\VT3\RESOUR~1\targets\CANVIEW4\lib\lld\libCANView4.a(usb_host.o)
 .debug_info    0x0005ed4f     0x14b1 C:\PROGRA~2\VT3_8920\VT3\RESOUR~1\targets\CANVIEW4\lib\lld\libCANView4.a(stm32f4xx_hal_adc.o)
 .debug_info    0x00060200     0x12b8 C:\PROGRA~2\VT3_8920\VT3\RESOUR~1\targets\CANVIEW4\lib\lld\libCANView4.a(stm32f4xx_hal_adc_ex.o)
 .debug_info    0x000614b8     0x12a7 C:\PROGRA~2\VT3_8920\VT3\RESOUR~1\targets\CANVIEW4\lib\lld\libCANView4.a(stm32f4xx_hal_can.o)
 .debug_info    0x0006275f     0x120a C:\PROGRA~2\VT3_8920\VT3\RESOUR~1\targets\CANVIEW4\lib\lld\libCANView4.a(stm32f4xx_hal_dma2d.o)
 .debug_info    0x00063969      0xd78 C:\PROGRA~2\VT3_8920\VT3\RESOUR~1\targets\CANVIEW4\lib\lld\libCANView4.a(stm32f4xx_hal_flash.o)
 .debug_info    0x000646e1     0x1100 C:\PROGRA~2\VT3_8920\VT3\RESOUR~1\targets\CANVIEW4\lib\lld\libCANView4.a(stm32f4xx_hal_flash_ex.o)
 .debug_info    0x000657e1     0x206b C:\PROGRA~2\VT3_8920\VT3\RESOUR~1\targets\CANVIEW4\lib\lld\libCANView4.a(stm32f4xx_hal_i2c.o)
 .debug_info    0x0006784c     0x1426 C:\PROGRA~2\VT3_8920\VT3\RESOUR~1\targets\CANVIEW4\lib\lld\libCANView4.a(stm32f4xx_hal_ltdc.o)
 .debug_info    0x00068c72     0x10a2 C:\PROGRA~2\VT3_8920\VT3\RESOUR~1\targets\CANVIEW4\lib\lld\libCANView4.a(stm32f4xx_hal_pwr.o)
 .debug_info    0x00069d14     0x10af C:\PROGRA~2\VT3_8920\VT3\RESOUR~1\targets\CANVIEW4\lib\lld\libCANView4.a(stm32f4xx_hal_pwr_ex.o)
 .debug_info    0x0006adc3     0x109c C:\PROGRA~2\VT3_8920\VT3\RESOUR~1\targets\CANVIEW4\lib\lld\libCANView4.a(stm32f4xx_hal_rcc_ex.o)
 .debug_info    0x0006be5f     0x12f6 C:\PROGRA~2\VT3_8920\VT3\RESOUR~1\targets\CANVIEW4\lib\lld\libCANView4.a(stm32f4xx_hal_rtc.o)
 .debug_info    0x0006d155     0x167b C:\PROGRA~2\VT3_8920\VT3\RESOUR~1\targets\CANVIEW4\lib\lld\libCANView4.a(stm32f4xx_hal_rtc_ex.o)
 .debug_info    0x0006e7d0     0x13de C:\PROGRA~2\VT3_8920\VT3\RESOUR~1\targets\CANVIEW4\lib\lld\libCANView4.a(stm32f4xx_hal_sdram.o)
 .debug_info    0x0006fbae     0x1720 C:\PROGRA~2\VT3_8920\VT3\RESOUR~1\targets\CANVIEW4\lib\lld\libCANView4.a(stm32f4xx_hal_spi.o)
 .debug_info    0x000712ce     0x1687 C:\PROGRA~2\VT3_8920\VT3\RESOUR~1\targets\CANVIEW4\lib\lld\libCANView4.a(stm32f4xx_ll_fmc.o)
 .debug_info    0x00072955      0x9cd C:\PROGRA~2\VT3_8920\VT3\RESOUR~1\targets\CANVIEW4\lib\lld\libCANView4.a(CRC32.o)
 .debug_info    0x00073322     0x1215 C:\PROGRA~2\VT3_8920\VT3\RESOUR~1\targets\CANVIEW4\lib\lld\libCANView4.a(ccsbcs.o)
 .debug_info    0x00074537     0x1465 C:\PROGRA~2\VT3_8920\VT3\RESOUR~1\targets\CANVIEW4\lib\lld\libCANView4.a(diskio.o)
 .debug_info    0x0007599c     0x13fd C:\PROGRA~2\VT3_8920\VT3\RESOUR~1\targets\CANVIEW4\lib\lld\libCANView4.a(ff_gen_drv.o)
 .debug_info    0x00076d99     0x1623 C:\PROGRA~2\VT3_8920\VT3\RESOUR~1\targets\CANVIEW4\lib\lld\libCANView4.a(usbh_diskio.o)
 .debug_info    0x000783bc      0xacc C:\PROGRA~2\VT3_8920\VT3\RESOUR~1\targets\CANVIEW4\lib\lld\libCANView4.a(list.o)
 .debug_info    0x00078e88     0x1ade C:\PROGRA~2\VT3_8920\VT3\RESOUR~1\targets\CANVIEW4\lib\lld\libCANView4.a(usbh_msc.o)
 .debug_info    0x0007a966     0x18d1 C:\PROGRA~2\VT3_8920\VT3\RESOUR~1\targets\CANVIEW4\lib\lld\libCANView4.a(usbh_msc_bot.o)
 .debug_info    0x0007c237     0x1900 C:\PROGRA~2\VT3_8920\VT3\RESOUR~1\targets\CANVIEW4\lib\lld\libCANView4.a(usbh_msc_scsi.o)

.debug_abbrev   0x00000000     0xe92e
 .debug_abbrev  0x00000000      0x165 C:\PROGRA~2\VT3_8920\VT3\RESOUR~1\targets\CANVIEW4\lib\vt3_runtime\libvt3_runtime.a(VT3_Main.o)
 .debug_abbrev  0x00000165      0x249 C:\PROGRA~2\VT3_8920\VT3\RESOUR~1\targets\CANVIEW4\lib\vt3_runtime\libvt3_runtime.a(VT3_Runtime.o)
 .debug_abbrev  0x000003ae       0x87 C:\PROGRA~2\VT3_8920\VT3\RESOUR~1\targets\CANVIEW4\lib\vt3_runtime\libvt3_runtime.a(VT3_Cycle100.o)
 .debug_abbrev  0x00000435       0x9a C:\PROGRA~2\VT3_8920\VT3\RESOUR~1\targets\CANVIEW4\lib\vt3_runtime\libvt3_runtime.a(VT3_Cycle20.o)
 .debug_abbrev  0x000004cf      0x2f9 C:\PROGRA~2\VT3_8920\VT3\RESOUR~1\targets\CANVIEW4\lib\vt3_common\libvt3_common.a(IEC_Lib.o)
 .debug_abbrev  0x000007c8      0x379 C:\PROGRA~2\VT3_8920\VT3\RESOUR~1\targets\CANVIEW4\lib\vt3_common\libvt3_common.a(VT3_CAN_debug.o)
 .debug_abbrev  0x00000b41      0x3b3 C:\PROGRA~2\VT3_8920\VT3\RESOUR~1\targets\CANVIEW4\lib\vt3_common\libvt3_common.a(VT3_Draw.o)
 .debug_abbrev  0x00000ef4      0x26b C:\PROGRA~2\VT3_8920\VT3\RESOUR~1\targets\CANVIEW4\lib\vt3_common\libvt3_common.a(VT3_Runtime_Common.o)
 .debug_abbrev  0x0000115f      0x306 C:\PROGRA~2\VT3_8920\VT3\RESOUR~1\targets\CANVIEW4\lib\vt3_common\libvt3_common.a(VT3_elog.o)
 .debug_abbrev  0x00001465       0x12 C:\PROGRA~2\VT3_8920\VT3\RESOUR~1\targets\CANVIEW4\lib\lld\libCANView4.a(startup_stm32f429xx.o)
 .debug_abbrev  0x00001477      0x24a C:\PROGRA~2\VT3_8920\VT3\RESOUR~1\targets\CANVIEW4\lib\lld\libCANView4.a(stm32f4xx_it.o)
 .debug_abbrev  0x000016c1      0x33b C:\PROGRA~2\VT3_8920\VT3\RESOUR~1\targets\CANVIEW4\lib\lld\libCANView4.a(usbh_conf.o)
 .debug_abbrev  0x000019fc      0x213 C:\PROGRA~2\VT3_8920\VT3\RESOUR~1\targets\CANVIEW4\lib\lld\libCANView4.a(system_stm32f4xx.o)
 .debug_abbrev  0x00001c0f      0x2fe C:\PROGRA~2\VT3_8920\VT3\RESOUR~1\targets\CANVIEW4\lib\lld\libCANView4.a(stm32f4xx_hal.o)
 .debug_abbrev  0x00001f0d      0x39c C:\PROGRA~2\VT3_8920\VT3\RESOUR~1\targets\CANVIEW4\lib\lld\libCANView4.a(stm32f4xx_hal_cortex.o)
 .debug_abbrev  0x000022a9      0x2cd C:\PROGRA~2\VT3_8920\VT3\RESOUR~1\targets\CANVIEW4\lib\lld\libCANView4.a(stm32f4xx_hal_dcmi.o)
 .debug_abbrev  0x00002576      0x2b1 C:\PROGRA~2\VT3_8920\VT3\RESOUR~1\targets\CANVIEW4\lib\lld\libCANView4.a(stm32f4xx_hal_dma.o)
 .debug_abbrev  0x00002827      0x247 C:\PROGRA~2\VT3_8920\VT3\RESOUR~1\targets\CANVIEW4\lib\lld\libCANView4.a(stm32f4xx_hal_dma_ex.o)
 .debug_abbrev  0x00002a6e      0x286 C:\PROGRA~2\VT3_8920\VT3\RESOUR~1\targets\CANVIEW4\lib\lld\libCANView4.a(stm32f4xx_hal_gpio.o)
 .debug_abbrev  0x00002cf4      0x2ed C:\PROGRA~2\VT3_8920\VT3\RESOUR~1\targets\CANVIEW4\lib\lld\libCANView4.a(stm32f4xx_hal_hcd.o)
 .debug_abbrev  0x00002fe1      0x356 C:\PROGRA~2\VT3_8920\VT3\RESOUR~1\targets\CANVIEW4\lib\lld\libCANView4.a(stm32f4xx_hal_rcc.o)
 .debug_abbrev  0x00003337      0x2e7 C:\PROGRA~2\VT3_8920\VT3\RESOUR~1\targets\CANVIEW4\lib\lld\libCANView4.a(stm32f4xx_hal_tim.o)
 .debug_abbrev  0x0000361e      0x2c4 C:\PROGRA~2\VT3_8920\VT3\RESOUR~1\targets\CANVIEW4\lib\lld\libCANView4.a(stm32f4xx_hal_tim_ex.o)
 .debug_abbrev  0x000038e2      0x2ea C:\PROGRA~2\VT3_8920\VT3\RESOUR~1\targets\CANVIEW4\lib\lld\libCANView4.a(stm32f4xx_hal_uart.o)
 .debug_abbrev  0x00003bcc      0x2f3 C:\PROGRA~2\VT3_8920\VT3\RESOUR~1\targets\CANVIEW4\lib\lld\libCANView4.a(stm32f4xx_ll_usb.o)
 .debug_abbrev  0x00003ebf      0x206 C:\PROGRA~2\VT3_8920\VT3\RESOUR~1\targets\CANVIEW4\lib\lld\libCANView4.a(CRC16.o)
 .debug_abbrev  0x000040c5      0x3cf C:\PROGRA~2\VT3_8920\VT3\RESOUR~1\targets\CANVIEW4\lib\lld\libCANView4.a(Camera.o)
 .debug_abbrev  0x00004494      0x34c C:\PROGRA~2\VT3_8920\VT3\RESOUR~1\targets\CANVIEW4\lib\lld\libCANView4.a(CANView4_Event_Log.o)
 .debug_abbrev  0x000047e0      0x417 C:\PROGRA~2\VT3_8920\VT3\RESOUR~1\targets\CANVIEW4\lib\lld\libCANView4.a(CANView4_HW_lib.o)
 .debug_abbrev  0x00004bf7      0x1bf C:\PROGRA~2\VT3_8920\VT3\RESOUR~1\targets\CANVIEW4\lib\lld\libCANView4.a(CANView4_Mem_EEPROM.o)
 .debug_abbrev  0x00004db6      0x230 C:\PROGRA~2\VT3_8920\VT3\RESOUR~1\targets\CANVIEW4\lib\lld\libCANView4.a(CANView4_Mem_EXT_FLASH.o)
 .debug_abbrev  0x00004fe6      0x22f C:\PROGRA~2\VT3_8920\VT3\RESOUR~1\targets\CANVIEW4\lib\lld\libCANView4.a(CANView4_Node.o)
 .debug_abbrev  0x00005215      0x2e6 C:\PROGRA~2\VT3_8920\VT3\RESOUR~1\targets\CANVIEW4\lib\lld\libCANView4.a(CANView4_STM_periphs_lib.o)
 .debug_abbrev  0x000054fb      0x285 C:\PROGRA~2\VT3_8920\VT3\RESOUR~1\targets\CANVIEW4\lib\lld\libCANView4.a(CANView4_Task_Manager.o)
 .debug_abbrev  0x00005780      0x28c C:\PROGRA~2\VT3_8920\VT3\RESOUR~1\targets\CANVIEW4\lib\lld\libCANView4.a(KWP2000_Light.o)
 .debug_abbrev  0x00005a0c      0x23a C:\PROGRA~2\VT3_8920\VT3\RESOUR~1\targets\CANVIEW4\lib\lld\libCANView4.a(Virtual_TIMs.o)
 .debug_abbrev  0x00005c46      0x1e6 C:\PROGRA~2\VT3_8920\VT3\RESOUR~1\targets\CANVIEW4\lib\lld\libCANView4.a(Display_Utilities.o)
 .debug_abbrev  0x00005e2c      0x58f C:\PROGRA~2\VT3_8920\VT3\RESOUR~1\targets\CANVIEW4\lib\lld\libCANView4.a(Display_lib.o)
 .debug_abbrev  0x000063bb      0x278 C:\PROGRA~2\VT3_8920\VT3\RESOUR~1\targets\CANVIEW4\lib\lld\libCANView4.a(eeprom.o)
 .debug_abbrev  0x00006633      0x36c C:\PROGRA~2\VT3_8920\VT3\RESOUR~1\targets\CANVIEW4\lib\lld\libCANView4.a(Spansion_128Mb.o)
 .debug_abbrev  0x0000699f      0x369 C:\PROGRA~2\VT3_8920\VT3\RESOUR~1\targets\CANVIEW4\lib\lld\libCANView4.a(CAN.o)
 .debug_abbrev  0x00006d08      0x1fe C:\PROGRA~2\VT3_8920\VT3\RESOUR~1\targets\CANVIEW4\lib\lld\libCANView4.a(Generic_IO.o)
 .debug_abbrev  0x00006f06      0x272 C:\PROGRA~2\VT3_8920\VT3\RESOUR~1\targets\CANVIEW4\lib\lld\libCANView4.a(RS232.o)
 .debug_abbrev  0x00007178      0x27b C:\PROGRA~2\VT3_8920\VT3\RESOUR~1\targets\CANVIEW4\lib\lld\libCANView4.a(MD5.o)
 .debug_abbrev  0x000073f3      0x213 C:\PROGRA~2\VT3_8920\VT3\RESOUR~1\targets\CANVIEW4\lib\lld\libCANView4.a(RTC.o)
 .debug_abbrev  0x00007606      0x255 C:\PROGRA~2\VT3_8920\VT3\RESOUR~1\targets\CANVIEW4\lib\lld\libCANView4.a(CANView4_Mem_RTC.o)
 .debug_abbrev  0x0000785b      0x22d C:\PROGRA~2\VT3_8920\VT3\RESOUR~1\targets\CANVIEW4\lib\lld\libCANView4.a(TVP5150.o)
 .debug_abbrev  0x00007a88      0x2e5 C:\PROGRA~2\VT3_8920\VT3\RESOUR~1\targets\CANVIEW4\lib\lld\libCANView4.a(USB_Utilities.o)
 .debug_abbrev  0x00007d6d      0x1ea C:\PROGRA~2\VT3_8920\VT3\RESOUR~1\targets\CANVIEW4\lib\lld\libCANView4.a(Utilities.o)
 .debug_abbrev  0x00007f57      0x35b C:\PROGRA~2\VT3_8920\VT3\RESOUR~1\targets\CANVIEW4\lib\lld\libCANView4.a(ff.o)
 .debug_abbrev  0x000082b2      0x3b2 C:\PROGRA~2\VT3_8920\VT3\RESOUR~1\targets\CANVIEW4\lib\lld\libCANView4.a(cmsis_os.o)
 .debug_abbrev  0x00008664      0x2d1 C:\PROGRA~2\VT3_8920\VT3\RESOUR~1\targets\CANVIEW4\lib\lld\libCANView4.a(heap_4.o)
 .debug_abbrev  0x00008935      0x1e8 C:\PROGRA~2\VT3_8920\VT3\RESOUR~1\targets\CANVIEW4\lib\lld\libCANView4.a(port.o)
 .debug_abbrev  0x00008b1d      0x2ff C:\PROGRA~2\VT3_8920\VT3\RESOUR~1\targets\CANVIEW4\lib\lld\libCANView4.a(queue.o)
 .debug_abbrev  0x00008e1c      0x394 C:\PROGRA~2\VT3_8920\VT3\RESOUR~1\targets\CANVIEW4\lib\lld\libCANView4.a(tasks.o)
 .debug_abbrev  0x000091b0      0x39d C:\PROGRA~2\VT3_8920\VT3\RESOUR~1\targets\CANVIEW4\lib\lld\libCANView4.a(usbh_core.o)
 .debug_abbrev  0x0000954d      0x312 C:\PROGRA~2\VT3_8920\VT3\RESOUR~1\targets\CANVIEW4\lib\lld\libCANView4.a(usbh_ctlreq.o)
 .debug_abbrev  0x0000985f      0x270 C:\PROGRA~2\VT3_8920\VT3\RESOUR~1\targets\CANVIEW4\lib\lld\libCANView4.a(usbh_ioreq.o)
 .debug_abbrev  0x00009acf      0x2a8 C:\PROGRA~2\VT3_8920\VT3\RESOUR~1\targets\CANVIEW4\lib\lld\libCANView4.a(usbh_pipes.o)
 .debug_abbrev  0x00009d77      0x250 C:\PROGRA~2\VT3_8920\VT3\RESOUR~1\targets\CANVIEW4\lib\lld\libCANView4.a(fatfs.o)
 .debug_abbrev  0x00009fc7      0x2f7 C:\PROGRA~2\VT3_8920\VT3\RESOUR~1\targets\CANVIEW4\lib\lld\libCANView4.a(stm32f4xx_hal_msp.o)
 .debug_abbrev  0x0000a2be      0x270 C:\PROGRA~2\VT3_8920\VT3\RESOUR~1\targets\CANVIEW4\lib\lld\libCANView4.a(usb_host.o)
 .debug_abbrev  0x0000a52e      0x2d7 C:\PROGRA~2\VT3_8920\VT3\RESOUR~1\targets\CANVIEW4\lib\lld\libCANView4.a(stm32f4xx_hal_adc.o)
 .debug_abbrev  0x0000a805      0x2b3 C:\PROGRA~2\VT3_8920\VT3\RESOUR~1\targets\CANVIEW4\lib\lld\libCANView4.a(stm32f4xx_hal_adc_ex.o)
 .debug_abbrev  0x0000aab8      0x2cf C:\PROGRA~2\VT3_8920\VT3\RESOUR~1\targets\CANVIEW4\lib\lld\libCANView4.a(stm32f4xx_hal_can.o)
 .debug_abbrev  0x0000ad87      0x2a4 C:\PROGRA~2\VT3_8920\VT3\RESOUR~1\targets\CANVIEW4\lib\lld\libCANView4.a(stm32f4xx_hal_dma2d.o)
 .debug_abbrev  0x0000b02b      0x2fd C:\PROGRA~2\VT3_8920\VT3\RESOUR~1\targets\CANVIEW4\lib\lld\libCANView4.a(stm32f4xx_hal_flash.o)
 .debug_abbrev  0x0000b328      0x36e C:\PROGRA~2\VT3_8920\VT3\RESOUR~1\targets\CANVIEW4\lib\lld\libCANView4.a(stm32f4xx_hal_flash_ex.o)
 .debug_abbrev  0x0000b696      0x2db C:\PROGRA~2\VT3_8920\VT3\RESOUR~1\targets\CANVIEW4\lib\lld\libCANView4.a(stm32f4xx_hal_i2c.o)
 .debug_abbrev  0x0000b971      0x2f8 C:\PROGRA~2\VT3_8920\VT3\RESOUR~1\targets\CANVIEW4\lib\lld\libCANView4.a(stm32f4xx_hal_ltdc.o)
 .debug_abbrev  0x0000bc69      0x2d7 C:\PROGRA~2\VT3_8920\VT3\RESOUR~1\targets\CANVIEW4\lib\lld\libCANView4.a(stm32f4xx_hal_pwr.o)
 .debug_abbrev  0x0000bf40      0x301 C:\PROGRA~2\VT3_8920\VT3\RESOUR~1\targets\CANVIEW4\lib\lld\libCANView4.a(stm32f4xx_hal_pwr_ex.o)
 .debug_abbrev  0x0000c241      0x2a5 C:\PROGRA~2\VT3_8920\VT3\RESOUR~1\targets\CANVIEW4\lib\lld\libCANView4.a(stm32f4xx_hal_rcc_ex.o)
 .debug_abbrev  0x0000c4e6      0x28a C:\PROGRA~2\VT3_8920\VT3\RESOUR~1\targets\CANVIEW4\lib\lld\libCANView4.a(stm32f4xx_hal_rtc.o)
 .debug_abbrev  0x0000c770      0x2b5 C:\PROGRA~2\VT3_8920\VT3\RESOUR~1\targets\CANVIEW4\lib\lld\libCANView4.a(stm32f4xx_hal_rtc_ex.o)
 .debug_abbrev  0x0000ca25      0x29d C:\PROGRA~2\VT3_8920\VT3\RESOUR~1\targets\CANVIEW4\lib\lld\libCANView4.a(stm32f4xx_hal_sdram.o)
 .debug_abbrev  0x0000ccc2      0x2ec C:\PROGRA~2\VT3_8920\VT3\RESOUR~1\targets\CANVIEW4\lib\lld\libCANView4.a(stm32f4xx_hal_spi.o)
 .debug_abbrev  0x0000cfae      0x258 C:\PROGRA~2\VT3_8920\VT3\RESOUR~1\targets\CANVIEW4\lib\lld\libCANView4.a(stm32f4xx_ll_fmc.o)
 .debug_abbrev  0x0000d206      0x206 C:\PROGRA~2\VT3_8920\VT3\RESOUR~1\targets\CANVIEW4\lib\lld\libCANView4.a(CRC32.o)
 .debug_abbrev  0x0000d40c      0x263 C:\PROGRA~2\VT3_8920\VT3\RESOUR~1\targets\CANVIEW4\lib\lld\libCANView4.a(ccsbcs.o)
 .debug_abbrev  0x0000d66f      0x29d C:\PROGRA~2\VT3_8920\VT3\RESOUR~1\targets\CANVIEW4\lib\lld\libCANView4.a(diskio.o)
 .debug_abbrev  0x0000d90c      0x2ca C:\PROGRA~2\VT3_8920\VT3\RESOUR~1\targets\CANVIEW4\lib\lld\libCANView4.a(ff_gen_drv.o)
 .debug_abbrev  0x0000dbd6      0x294 C:\PROGRA~2\VT3_8920\VT3\RESOUR~1\targets\CANVIEW4\lib\lld\libCANView4.a(usbh_diskio.o)
 .debug_abbrev  0x0000de6a      0x1fb C:\PROGRA~2\VT3_8920\VT3\RESOUR~1\targets\CANVIEW4\lib\lld\libCANView4.a(list.o)
 .debug_abbrev  0x0000e065      0x335 C:\PROGRA~2\VT3_8920\VT3\RESOUR~1\targets\CANVIEW4\lib\lld\libCANView4.a(usbh_msc.o)
 .debug_abbrev  0x0000e39a      0x2d7 C:\PROGRA~2\VT3_8920\VT3\RESOUR~1\targets\CANVIEW4\lib\lld\libCANView4.a(usbh_msc_bot.o)
 .debug_abbrev  0x0000e671      0x2bd C:\PROGRA~2\VT3_8920\VT3\RESOUR~1\targets\CANVIEW4\lib\lld\libCANView4.a(usbh_msc_scsi.o)

.debug_aranges  0x00000000     0x48f8
 .debug_aranges
                0x00000000       0x48 C:\PROGRA~2\VT3_8920\VT3\RESOUR~1\targets\CANVIEW4\lib\vt3_runtime\libvt3_runtime.a(VT3_Main.o)
 .debug_aranges
                0x00000048       0x98 C:\PROGRA~2\VT3_8920\VT3\RESOUR~1\targets\CANVIEW4\lib\vt3_runtime\libvt3_runtime.a(VT3_Runtime.o)
 .debug_aranges
                0x000000e0       0x28 C:\PROGRA~2\VT3_8920\VT3\RESOUR~1\targets\CANVIEW4\lib\vt3_runtime\libvt3_runtime.a(VT3_Cycle100.o)
 .debug_aranges
                0x00000108       0x28 C:\PROGRA~2\VT3_8920\VT3\RESOUR~1\targets\CANVIEW4\lib\vt3_runtime\libvt3_runtime.a(VT3_Cycle20.o)
 .debug_aranges
                0x00000130      0xd68 C:\PROGRA~2\VT3_8920\VT3\RESOUR~1\targets\CANVIEW4\lib\vt3_common\libvt3_common.a(IEC_Lib.o)
 .debug_aranges
                0x00000e98      0x2f0 C:\PROGRA~2\VT3_8920\VT3\RESOUR~1\targets\CANVIEW4\lib\vt3_common\libvt3_common.a(VT3_CAN_debug.o)
 .debug_aranges
                0x00001188      0x288 C:\PROGRA~2\VT3_8920\VT3\RESOUR~1\targets\CANVIEW4\lib\vt3_common\libvt3_common.a(VT3_Draw.o)
 .debug_aranges
                0x00001410       0x80 C:\PROGRA~2\VT3_8920\VT3\RESOUR~1\targets\CANVIEW4\lib\vt3_common\libvt3_common.a(VT3_Runtime_Common.o)
 .debug_aranges
                0x00001490      0x1c0 C:\PROGRA~2\VT3_8920\VT3\RESOUR~1\targets\CANVIEW4\lib\vt3_common\libvt3_common.a(VT3_elog.o)
 .debug_aranges
                0x00001650       0x28 C:\PROGRA~2\VT3_8920\VT3\RESOUR~1\targets\CANVIEW4\lib\lld\libCANView4.a(startup_stm32f429xx.o)
 .debug_aranges
                0x00001678       0x68 C:\PROGRA~2\VT3_8920\VT3\RESOUR~1\targets\CANVIEW4\lib\lld\libCANView4.a(stm32f4xx_it.o)
 .debug_aranges
                0x000016e0       0xc0 C:\PROGRA~2\VT3_8920\VT3\RESOUR~1\targets\CANVIEW4\lib\lld\libCANView4.a(usbh_conf.o)
 .debug_aranges
                0x000017a0       0x28 C:\PROGRA~2\VT3_8920\VT3\RESOUR~1\targets\CANVIEW4\lib\lld\libCANView4.a(system_stm32f4xx.o)
 .debug_aranges
                0x000017c8       0xd0 C:\PROGRA~2\VT3_8920\VT3\RESOUR~1\targets\CANVIEW4\lib\lld\libCANView4.a(stm32f4xx_hal.o)
 .debug_aranges
                0x00001898      0x108 C:\PROGRA~2\VT3_8920\VT3\RESOUR~1\targets\CANVIEW4\lib\lld\libCANView4.a(stm32f4xx_hal_cortex.o)
 .debug_aranges
                0x000019a0       0x98 C:\PROGRA~2\VT3_8920\VT3\RESOUR~1\targets\CANVIEW4\lib\lld\libCANView4.a(stm32f4xx_hal_dcmi.o)
 .debug_aranges
                0x00001a38       0x70 C:\PROGRA~2\VT3_8920\VT3\RESOUR~1\targets\CANVIEW4\lib\lld\libCANView4.a(stm32f4xx_hal_dma.o)
 .debug_aranges
                0x00001aa8       0x38 C:\PROGRA~2\VT3_8920\VT3\RESOUR~1\targets\CANVIEW4\lib\lld\libCANView4.a(stm32f4xx_hal_dma_ex.o)
 .debug_aranges
                0x00001ae0       0x58 C:\PROGRA~2\VT3_8920\VT3\RESOUR~1\targets\CANVIEW4\lib\lld\libCANView4.a(stm32f4xx_hal_gpio.o)
 .debug_aranges
                0x00001b38       0xe0 C:\PROGRA~2\VT3_8920\VT3\RESOUR~1\targets\CANVIEW4\lib\lld\libCANView4.a(stm32f4xx_hal_hcd.o)
 .debug_aranges
                0x00001c18       0x88 C:\PROGRA~2\VT3_8920\VT3\RESOUR~1\targets\CANVIEW4\lib\lld\libCANView4.a(stm32f4xx_hal_rcc.o)
 .debug_aranges
                0x00001ca0      0x348 C:\PROGRA~2\VT3_8920\VT3\RESOUR~1\targets\CANVIEW4\lib\lld\libCANView4.a(stm32f4xx_hal_tim.o)
 .debug_aranges
                0x00001fe8      0x140 C:\PROGRA~2\VT3_8920\VT3\RESOUR~1\targets\CANVIEW4\lib\lld\libCANView4.a(stm32f4xx_hal_tim_ex.o)
 .debug_aranges
                0x00002128      0x140 C:\PROGRA~2\VT3_8920\VT3\RESOUR~1\targets\CANVIEW4\lib\lld\libCANView4.a(stm32f4xx_hal_uart.o)
 .debug_aranges
                0x00002268      0x180 C:\PROGRA~2\VT3_8920\VT3\RESOUR~1\targets\CANVIEW4\lib\lld\libCANView4.a(stm32f4xx_ll_usb.o)
 .debug_aranges
                0x000023e8       0x28 C:\PROGRA~2\VT3_8920\VT3\RESOUR~1\targets\CANVIEW4\lib\lld\libCANView4.a(CRC16.o)
 .debug_aranges
                0x00002410       0x60 C:\PROGRA~2\VT3_8920\VT3\RESOUR~1\targets\CANVIEW4\lib\lld\libCANView4.a(Camera.o)
 .debug_aranges
                0x00002470       0x70 C:\PROGRA~2\VT3_8920\VT3\RESOUR~1\targets\CANVIEW4\lib\lld\libCANView4.a(CANView4_Event_Log.o)
 .debug_aranges
                0x000024e0      0x160 C:\PROGRA~2\VT3_8920\VT3\RESOUR~1\targets\CANVIEW4\lib\lld\libCANView4.a(CANView4_HW_lib.o)
 .debug_aranges
                0x00002640       0x20 C:\PROGRA~2\VT3_8920\VT3\RESOUR~1\targets\CANVIEW4\lib\lld\libCANView4.a(CANView4_Mem_EEPROM.o)
 .debug_aranges
                0x00002660       0x48 C:\PROGRA~2\VT3_8920\VT3\RESOUR~1\targets\CANVIEW4\lib\lld\libCANView4.a(CANView4_Mem_EXT_FLASH.o)
 .debug_aranges
                0x000026a8       0x48 C:\PROGRA~2\VT3_8920\VT3\RESOUR~1\targets\CANVIEW4\lib\lld\libCANView4.a(CANView4_Node.o)
 .debug_aranges
                0x000026f0       0xa8 C:\PROGRA~2\VT3_8920\VT3\RESOUR~1\targets\CANVIEW4\lib\lld\libCANView4.a(CANView4_STM_periphs_lib.o)
 .debug_aranges
                0x00002798       0x58 C:\PROGRA~2\VT3_8920\VT3\RESOUR~1\targets\CANVIEW4\lib\lld\libCANView4.a(CANView4_Task_Manager.o)
 .debug_aranges
                0x000027f0       0x38 C:\PROGRA~2\VT3_8920\VT3\RESOUR~1\targets\CANVIEW4\lib\lld\libCANView4.a(KWP2000_Light.o)
 .debug_aranges
                0x00002828       0x48 C:\PROGRA~2\VT3_8920\VT3\RESOUR~1\targets\CANVIEW4\lib\lld\libCANView4.a(Virtual_TIMs.o)
 .debug_aranges
                0x00002870       0x28 C:\PROGRA~2\VT3_8920\VT3\RESOUR~1\targets\CANVIEW4\lib\lld\libCANView4.a(Display_Utilities.o)
 .debug_aranges
                0x00002898      0x1d0 C:\PROGRA~2\VT3_8920\VT3\RESOUR~1\targets\CANVIEW4\lib\lld\libCANView4.a(Display_lib.o)
 .debug_aranges
                0x00002a68       0x78 C:\PROGRA~2\VT3_8920\VT3\RESOUR~1\targets\CANVIEW4\lib\lld\libCANView4.a(eeprom.o)
 .debug_aranges
                0x00002ae0      0x130 C:\PROGRA~2\VT3_8920\VT3\RESOUR~1\targets\CANVIEW4\lib\lld\libCANView4.a(Spansion_128Mb.o)
 .debug_aranges
                0x00002c10       0xe8 C:\PROGRA~2\VT3_8920\VT3\RESOUR~1\targets\CANVIEW4\lib\lld\libCANView4.a(CAN.o)
 .debug_aranges
                0x00002cf8       0x28 C:\PROGRA~2\VT3_8920\VT3\RESOUR~1\targets\CANVIEW4\lib\lld\libCANView4.a(Generic_IO.o)
 .debug_aranges
                0x00002d20       0x38 C:\PROGRA~2\VT3_8920\VT3\RESOUR~1\targets\CANVIEW4\lib\lld\libCANView4.a(RS232.o)
 .debug_aranges
                0x00002d58       0x58 C:\PROGRA~2\VT3_8920\VT3\RESOUR~1\targets\CANVIEW4\lib\lld\libCANView4.a(MD5.o)
 .debug_aranges
                0x00002db0       0x30 C:\PROGRA~2\VT3_8920\VT3\RESOUR~1\targets\CANVIEW4\lib\lld\libCANView4.a(RTC.o)
 .debug_aranges
                0x00002de0       0x48 C:\PROGRA~2\VT3_8920\VT3\RESOUR~1\targets\CANVIEW4\lib\lld\libCANView4.a(CANView4_Mem_RTC.o)
 .debug_aranges
                0x00002e28       0x98 C:\PROGRA~2\VT3_8920\VT3\RESOUR~1\targets\CANVIEW4\lib\lld\libCANView4.a(TVP5150.o)
 .debug_aranges
                0x00002ec0       0x50 C:\PROGRA~2\VT3_8920\VT3\RESOUR~1\targets\CANVIEW4\lib\lld\libCANView4.a(USB_Utilities.o)
 .debug_aranges
                0x00002f10       0x28 C:\PROGRA~2\VT3_8920\VT3\RESOUR~1\targets\CANVIEW4\lib\lld\libCANView4.a(Utilities.o)
 .debug_aranges
                0x00002f38      0x210 C:\PROGRA~2\VT3_8920\VT3\RESOUR~1\targets\CANVIEW4\lib\lld\libCANView4.a(ff.o)
 .debug_aranges
                0x00003148      0x1b0 C:\PROGRA~2\VT3_8920\VT3\RESOUR~1\targets\CANVIEW4\lib\lld\libCANView4.a(cmsis_os.o)
 .debug_aranges
                0x000032f8       0x50 C:\PROGRA~2\VT3_8920\VT3\RESOUR~1\targets\CANVIEW4\lib\lld\libCANView4.a(heap_4.o)
 .debug_aranges
                0x00003348       0x80 C:\PROGRA~2\VT3_8920\VT3\RESOUR~1\targets\CANVIEW4\lib\lld\libCANView4.a(port.o)
 .debug_aranges
                0x000033c8       0xf8 C:\PROGRA~2\VT3_8920\VT3\RESOUR~1\targets\CANVIEW4\lib\lld\libCANView4.a(queue.o)
 .debug_aranges
                0x000034c0      0x1c0 C:\PROGRA~2\VT3_8920\VT3\RESOUR~1\targets\CANVIEW4\lib\lld\libCANView4.a(tasks.o)
 .debug_aranges
                0x00003680       0xb8 C:\PROGRA~2\VT3_8920\VT3\RESOUR~1\targets\CANVIEW4\lib\lld\libCANView4.a(usbh_core.o)
 .debug_aranges
                0x00003738       0x98 C:\PROGRA~2\VT3_8920\VT3\RESOUR~1\targets\CANVIEW4\lib\lld\libCANView4.a(usbh_ctlreq.o)
 .debug_aranges
                0x000037d0       0x60 C:\PROGRA~2\VT3_8920\VT3\RESOUR~1\targets\CANVIEW4\lib\lld\libCANView4.a(usbh_ioreq.o)
 .debug_aranges
                0x00003830       0x40 C:\PROGRA~2\VT3_8920\VT3\RESOUR~1\targets\CANVIEW4\lib\lld\libCANView4.a(usbh_pipes.o)
 .debug_aranges
                0x00003870       0x28 C:\PROGRA~2\VT3_8920\VT3\RESOUR~1\targets\CANVIEW4\lib\lld\libCANView4.a(fatfs.o)
 .debug_aranges
                0x00003898       0xf0 C:\PROGRA~2\VT3_8920\VT3\RESOUR~1\targets\CANVIEW4\lib\lld\libCANView4.a(stm32f4xx_hal_msp.o)
 .debug_aranges
                0x00003988       0x30 C:\PROGRA~2\VT3_8920\VT3\RESOUR~1\targets\CANVIEW4\lib\lld\libCANView4.a(usb_host.o)
 .debug_aranges
                0x000039b8       0xe8 C:\PROGRA~2\VT3_8920\VT3\RESOUR~1\targets\CANVIEW4\lib\lld\libCANView4.a(stm32f4xx_hal_adc.o)
 .debug_aranges
                0x00003aa0       0x90 C:\PROGRA~2\VT3_8920\VT3\RESOUR~1\targets\CANVIEW4\lib\lld\libCANView4.a(stm32f4xx_hal_adc_ex.o)
 .debug_aranges
                0x00003b30       0xa0 C:\PROGRA~2\VT3_8920\VT3\RESOUR~1\targets\CANVIEW4\lib\lld\libCANView4.a(stm32f4xx_hal_can.o)
 .debug_aranges
                0x00003bd0       0xb0 C:\PROGRA~2\VT3_8920\VT3\RESOUR~1\targets\CANVIEW4\lib\lld\libCANView4.a(stm32f4xx_hal_dma2d.o)
 .debug_aranges
                0x00003c80       0xa0 C:\PROGRA~2\VT3_8920\VT3\RESOUR~1\targets\CANVIEW4\lib\lld\libCANView4.a(stm32f4xx_hal_flash.o)
 .debug_aranges
                0x00003d20       0xd8 C:\PROGRA~2\VT3_8920\VT3\RESOUR~1\targets\CANVIEW4\lib\lld\libCANView4.a(stm32f4xx_hal_flash_ex.o)
 .debug_aranges
                0x00003df8      0x1d8 C:\PROGRA~2\VT3_8920\VT3\RESOUR~1\targets\CANVIEW4\lib\lld\libCANView4.a(stm32f4xx_hal_i2c.o)
 .debug_aranges
                0x00003fd0       0xd8 C:\PROGRA~2\VT3_8920\VT3\RESOUR~1\targets\CANVIEW4\lib\lld\libCANView4.a(stm32f4xx_hal_ltdc.o)
 .debug_aranges
                0x000040a8       0xa0 C:\PROGRA~2\VT3_8920\VT3\RESOUR~1\targets\CANVIEW4\lib\lld\libCANView4.a(stm32f4xx_hal_pwr.o)
 .debug_aranges
                0x00004148       0x60 C:\PROGRA~2\VT3_8920\VT3\RESOUR~1\targets\CANVIEW4\lib\lld\libCANView4.a(stm32f4xx_hal_pwr_ex.o)
 .debug_aranges
                0x000041a8       0x30 C:\PROGRA~2\VT3_8920\VT3\RESOUR~1\targets\CANVIEW4\lib\lld\libCANView4.a(stm32f4xx_hal_rcc_ex.o)
 .debug_aranges
                0x000041d8       0xa8 C:\PROGRA~2\VT3_8920\VT3\RESOUR~1\targets\CANVIEW4\lib\lld\libCANView4.a(stm32f4xx_hal_rtc.o)
 .debug_aranges
                0x00004280      0x130 C:\PROGRA~2\VT3_8920\VT3\RESOUR~1\targets\CANVIEW4\lib\lld\libCANView4.a(stm32f4xx_hal_rtc_ex.o)
 .debug_aranges
                0x000043b0       0xc0 C:\PROGRA~2\VT3_8920\VT3\RESOUR~1\targets\CANVIEW4\lib\lld\libCANView4.a(stm32f4xx_hal_sdram.o)
 .debug_aranges
                0x00004470      0x138 C:\PROGRA~2\VT3_8920\VT3\RESOUR~1\targets\CANVIEW4\lib\lld\libCANView4.a(stm32f4xx_hal_spi.o)
 .debug_aranges
                0x000045a8       0xf0 C:\PROGRA~2\VT3_8920\VT3\RESOUR~1\targets\CANVIEW4\lib\lld\libCANView4.a(stm32f4xx_ll_fmc.o)
 .debug_aranges
                0x00004698       0x28 C:\PROGRA~2\VT3_8920\VT3\RESOUR~1\targets\CANVIEW4\lib\lld\libCANView4.a(CRC32.o)
 .debug_aranges
                0x000046c0       0x28 C:\PROGRA~2\VT3_8920\VT3\RESOUR~1\targets\CANVIEW4\lib\lld\libCANView4.a(ccsbcs.o)
 .debug_aranges
                0x000046e8       0x48 C:\PROGRA~2\VT3_8920\VT3\RESOUR~1\targets\CANVIEW4\lib\lld\libCANView4.a(diskio.o)
 .debug_aranges
                0x00004730       0x40 C:\PROGRA~2\VT3_8920\VT3\RESOUR~1\targets\CANVIEW4\lib\lld\libCANView4.a(ff_gen_drv.o)
 .debug_aranges
                0x00004770       0x40 C:\PROGRA~2\VT3_8920\VT3\RESOUR~1\targets\CANVIEW4\lib\lld\libCANView4.a(usbh_diskio.o)
 .debug_aranges
                0x000047b0       0x40 C:\PROGRA~2\VT3_8920\VT3\RESOUR~1\targets\CANVIEW4\lib\lld\libCANView4.a(list.o)
 .debug_aranges
                0x000047f0       0x78 C:\PROGRA~2\VT3_8920\VT3\RESOUR~1\targets\CANVIEW4\lib\lld\libCANView4.a(usbh_msc.o)
 .debug_aranges
                0x00004868       0x48 C:\PROGRA~2\VT3_8920\VT3\RESOUR~1\targets\CANVIEW4\lib\lld\libCANView4.a(usbh_msc_bot.o)
 .debug_aranges
                0x000048b0       0x48 C:\PROGRA~2\VT3_8920\VT3\RESOUR~1\targets\CANVIEW4\lib\lld\libCANView4.a(usbh_msc_scsi.o)

.debug_ranges   0x00000000     0x49d0
 .debug_ranges  0x00000000       0x38 C:\PROGRA~2\VT3_8920\VT3\RESOUR~1\targets\CANVIEW4\lib\vt3_runtime\libvt3_runtime.a(VT3_Main.o)
 .debug_ranges  0x00000038       0x88 C:\PROGRA~2\VT3_8920\VT3\RESOUR~1\targets\CANVIEW4\lib\vt3_runtime\libvt3_runtime.a(VT3_Runtime.o)
 .debug_ranges  0x000000c0       0x18 C:\PROGRA~2\VT3_8920\VT3\RESOUR~1\targets\CANVIEW4\lib\vt3_runtime\libvt3_runtime.a(VT3_Cycle100.o)
 .debug_ranges  0x000000d8       0x18 C:\PROGRA~2\VT3_8920\VT3\RESOUR~1\targets\CANVIEW4\lib\vt3_runtime\libvt3_runtime.a(VT3_Cycle20.o)
 .debug_ranges  0x000000f0      0xd58 C:\PROGRA~2\VT3_8920\VT3\RESOUR~1\targets\CANVIEW4\lib\vt3_common\libvt3_common.a(IEC_Lib.o)
 .debug_ranges  0x00000e48      0x2e0 C:\PROGRA~2\VT3_8920\VT3\RESOUR~1\targets\CANVIEW4\lib\vt3_common\libvt3_common.a(VT3_CAN_debug.o)
 .debug_ranges  0x00001128      0x290 C:\PROGRA~2\VT3_8920\VT3\RESOUR~1\targets\CANVIEW4\lib\vt3_common\libvt3_common.a(VT3_Draw.o)
 .debug_ranges  0x000013b8       0x70 C:\PROGRA~2\VT3_8920\VT3\RESOUR~1\targets\CANVIEW4\lib\vt3_common\libvt3_common.a(VT3_Runtime_Common.o)
 .debug_ranges  0x00001428      0x1b0 C:\PROGRA~2\VT3_8920\VT3\RESOUR~1\targets\CANVIEW4\lib\vt3_common\libvt3_common.a(VT3_elog.o)
 .debug_ranges  0x000015d8       0x20 C:\PROGRA~2\VT3_8920\VT3\RESOUR~1\targets\CANVIEW4\lib\lld\libCANView4.a(startup_stm32f429xx.o)
 .debug_ranges  0x000015f8       0x58 C:\PROGRA~2\VT3_8920\VT3\RESOUR~1\targets\CANVIEW4\lib\lld\libCANView4.a(stm32f4xx_it.o)
 .debug_ranges  0x00001650       0xb0 C:\PROGRA~2\VT3_8920\VT3\RESOUR~1\targets\CANVIEW4\lib\lld\libCANView4.a(usbh_conf.o)
 .debug_ranges  0x00001700       0x18 C:\PROGRA~2\VT3_8920\VT3\RESOUR~1\targets\CANVIEW4\lib\lld\libCANView4.a(system_stm32f4xx.o)
 .debug_ranges  0x00001718       0xc0 C:\PROGRA~2\VT3_8920\VT3\RESOUR~1\targets\CANVIEW4\lib\lld\libCANView4.a(stm32f4xx_hal.o)
 .debug_ranges  0x000017d8       0xf8 C:\PROGRA~2\VT3_8920\VT3\RESOUR~1\targets\CANVIEW4\lib\lld\libCANView4.a(stm32f4xx_hal_cortex.o)
 .debug_ranges  0x000018d0       0x88 C:\PROGRA~2\VT3_8920\VT3\RESOUR~1\targets\CANVIEW4\lib\lld\libCANView4.a(stm32f4xx_hal_dcmi.o)
 .debug_ranges  0x00001958       0x60 C:\PROGRA~2\VT3_8920\VT3\RESOUR~1\targets\CANVIEW4\lib\lld\libCANView4.a(stm32f4xx_hal_dma.o)
 .debug_ranges  0x000019b8       0x28 C:\PROGRA~2\VT3_8920\VT3\RESOUR~1\targets\CANVIEW4\lib\lld\libCANView4.a(stm32f4xx_hal_dma_ex.o)
 .debug_ranges  0x000019e0       0x48 C:\PROGRA~2\VT3_8920\VT3\RESOUR~1\targets\CANVIEW4\lib\lld\libCANView4.a(stm32f4xx_hal_gpio.o)
 .debug_ranges  0x00001a28       0xd0 C:\PROGRA~2\VT3_8920\VT3\RESOUR~1\targets\CANVIEW4\lib\lld\libCANView4.a(stm32f4xx_hal_hcd.o)
 .debug_ranges  0x00001af8       0x78 C:\PROGRA~2\VT3_8920\VT3\RESOUR~1\targets\CANVIEW4\lib\lld\libCANView4.a(stm32f4xx_hal_rcc.o)
 .debug_ranges  0x00001b70      0x338 C:\PROGRA~2\VT3_8920\VT3\RESOUR~1\targets\CANVIEW4\lib\lld\libCANView4.a(stm32f4xx_hal_tim.o)
 .debug_ranges  0x00001ea8      0x130 C:\PROGRA~2\VT3_8920\VT3\RESOUR~1\targets\CANVIEW4\lib\lld\libCANView4.a(stm32f4xx_hal_tim_ex.o)
 .debug_ranges  0x00001fd8      0x130 C:\PROGRA~2\VT3_8920\VT3\RESOUR~1\targets\CANVIEW4\lib\lld\libCANView4.a(stm32f4xx_hal_uart.o)
 .debug_ranges  0x00002108      0x170 C:\PROGRA~2\VT3_8920\VT3\RESOUR~1\targets\CANVIEW4\lib\lld\libCANView4.a(stm32f4xx_ll_usb.o)
 .debug_ranges  0x00002278       0x18 C:\PROGRA~2\VT3_8920\VT3\RESOUR~1\targets\CANVIEW4\lib\lld\libCANView4.a(CRC16.o)
 .debug_ranges  0x00002290       0x50 C:\PROGRA~2\VT3_8920\VT3\RESOUR~1\targets\CANVIEW4\lib\lld\libCANView4.a(Camera.o)
 .debug_ranges  0x000022e0       0x60 C:\PROGRA~2\VT3_8920\VT3\RESOUR~1\targets\CANVIEW4\lib\lld\libCANView4.a(CANView4_Event_Log.o)
 .debug_ranges  0x00002340      0x150 C:\PROGRA~2\VT3_8920\VT3\RESOUR~1\targets\CANVIEW4\lib\lld\libCANView4.a(CANView4_HW_lib.o)
 .debug_ranges  0x00002490       0x10 C:\PROGRA~2\VT3_8920\VT3\RESOUR~1\targets\CANVIEW4\lib\lld\libCANView4.a(CANView4_Mem_EEPROM.o)
 .debug_ranges  0x000024a0       0x38 C:\PROGRA~2\VT3_8920\VT3\RESOUR~1\targets\CANVIEW4\lib\lld\libCANView4.a(CANView4_Mem_EXT_FLASH.o)
 .debug_ranges  0x000024d8       0x38 C:\PROGRA~2\VT3_8920\VT3\RESOUR~1\targets\CANVIEW4\lib\lld\libCANView4.a(CANView4_Node.o)
 .debug_ranges  0x00002510       0x98 C:\PROGRA~2\VT3_8920\VT3\RESOUR~1\targets\CANVIEW4\lib\lld\libCANView4.a(CANView4_STM_periphs_lib.o)
 .debug_ranges  0x000025a8       0x48 C:\PROGRA~2\VT3_8920\VT3\RESOUR~1\targets\CANVIEW4\lib\lld\libCANView4.a(CANView4_Task_Manager.o)
 .debug_ranges  0x000025f0       0x28 C:\PROGRA~2\VT3_8920\VT3\RESOUR~1\targets\CANVIEW4\lib\lld\libCANView4.a(KWP2000_Light.o)
 .debug_ranges  0x00002618       0x38 C:\PROGRA~2\VT3_8920\VT3\RESOUR~1\targets\CANVIEW4\lib\lld\libCANView4.a(Virtual_TIMs.o)
 .debug_ranges  0x00002650       0x18 C:\PROGRA~2\VT3_8920\VT3\RESOUR~1\targets\CANVIEW4\lib\lld\libCANView4.a(Display_Utilities.o)
 .debug_ranges  0x00002668      0x7b8 C:\PROGRA~2\VT3_8920\VT3\RESOUR~1\targets\CANVIEW4\lib\lld\libCANView4.a(Display_lib.o)
 .debug_ranges  0x00002e20       0x68 C:\PROGRA~2\VT3_8920\VT3\RESOUR~1\targets\CANVIEW4\lib\lld\libCANView4.a(eeprom.o)
 .debug_ranges  0x00002e88      0x138 C:\PROGRA~2\VT3_8920\VT3\RESOUR~1\targets\CANVIEW4\lib\lld\libCANView4.a(Spansion_128Mb.o)
 .debug_ranges  0x00002fc0       0xf0 C:\PROGRA~2\VT3_8920\VT3\RESOUR~1\targets\CANVIEW4\lib\lld\libCANView4.a(CAN.o)
 .debug_ranges  0x000030b0       0x18 C:\PROGRA~2\VT3_8920\VT3\RESOUR~1\targets\CANVIEW4\lib\lld\libCANView4.a(Generic_IO.o)
 .debug_ranges  0x000030c8       0x28 C:\PROGRA~2\VT3_8920\VT3\RESOUR~1\targets\CANVIEW4\lib\lld\libCANView4.a(RS232.o)
 .debug_ranges  0x000030f0       0x48 C:\PROGRA~2\VT3_8920\VT3\RESOUR~1\targets\CANVIEW4\lib\lld\libCANView4.a(MD5.o)
 .debug_ranges  0x00003138       0x20 C:\PROGRA~2\VT3_8920\VT3\RESOUR~1\targets\CANVIEW4\lib\lld\libCANView4.a(RTC.o)
 .debug_ranges  0x00003158       0x38 C:\PROGRA~2\VT3_8920\VT3\RESOUR~1\targets\CANVIEW4\lib\lld\libCANView4.a(CANView4_Mem_RTC.o)
 .debug_ranges  0x00003190       0x88 C:\PROGRA~2\VT3_8920\VT3\RESOUR~1\targets\CANVIEW4\lib\lld\libCANView4.a(TVP5150.o)
 .debug_ranges  0x00003218       0x40 C:\PROGRA~2\VT3_8920\VT3\RESOUR~1\targets\CANVIEW4\lib\lld\libCANView4.a(USB_Utilities.o)
 .debug_ranges  0x00003258       0x18 C:\PROGRA~2\VT3_8920\VT3\RESOUR~1\targets\CANVIEW4\lib\lld\libCANView4.a(Utilities.o)
 .debug_ranges  0x00003270      0x200 C:\PROGRA~2\VT3_8920\VT3\RESOUR~1\targets\CANVIEW4\lib\lld\libCANView4.a(ff.o)
 .debug_ranges  0x00003470      0x1a0 C:\PROGRA~2\VT3_8920\VT3\RESOUR~1\targets\CANVIEW4\lib\lld\libCANView4.a(cmsis_os.o)
 .debug_ranges  0x00003610       0x40 C:\PROGRA~2\VT3_8920\VT3\RESOUR~1\targets\CANVIEW4\lib\lld\libCANView4.a(heap_4.o)
 .debug_ranges  0x00003650       0x70 C:\PROGRA~2\VT3_8920\VT3\RESOUR~1\targets\CANVIEW4\lib\lld\libCANView4.a(port.o)
 .debug_ranges  0x000036c0       0xe8 C:\PROGRA~2\VT3_8920\VT3\RESOUR~1\targets\CANVIEW4\lib\lld\libCANView4.a(queue.o)
 .debug_ranges  0x000037a8      0x1b0 C:\PROGRA~2\VT3_8920\VT3\RESOUR~1\targets\CANVIEW4\lib\lld\libCANView4.a(tasks.o)
 .debug_ranges  0x00003958       0xa8 C:\PROGRA~2\VT3_8920\VT3\RESOUR~1\targets\CANVIEW4\lib\lld\libCANView4.a(usbh_core.o)
 .debug_ranges  0x00003a00       0x88 C:\PROGRA~2\VT3_8920\VT3\RESOUR~1\targets\CANVIEW4\lib\lld\libCANView4.a(usbh_ctlreq.o)
 .debug_ranges  0x00003a88       0x50 C:\PROGRA~2\VT3_8920\VT3\RESOUR~1\targets\CANVIEW4\lib\lld\libCANView4.a(usbh_ioreq.o)
 .debug_ranges  0x00003ad8       0x30 C:\PROGRA~2\VT3_8920\VT3\RESOUR~1\targets\CANVIEW4\lib\lld\libCANView4.a(usbh_pipes.o)
 .debug_ranges  0x00003b08       0x18 C:\PROGRA~2\VT3_8920\VT3\RESOUR~1\targets\CANVIEW4\lib\lld\libCANView4.a(fatfs.o)
 .debug_ranges  0x00003b20       0xe0 C:\PROGRA~2\VT3_8920\VT3\RESOUR~1\targets\CANVIEW4\lib\lld\libCANView4.a(stm32f4xx_hal_msp.o)
 .debug_ranges  0x00003c00       0x20 C:\PROGRA~2\VT3_8920\VT3\RESOUR~1\targets\CANVIEW4\lib\lld\libCANView4.a(usb_host.o)
 .debug_ranges  0x00003c20       0xd8 C:\PROGRA~2\VT3_8920\VT3\RESOUR~1\targets\CANVIEW4\lib\lld\libCANView4.a(stm32f4xx_hal_adc.o)
 .debug_ranges  0x00003cf8       0x80 C:\PROGRA~2\VT3_8920\VT3\RESOUR~1\targets\CANVIEW4\lib\lld\libCANView4.a(stm32f4xx_hal_adc_ex.o)
 .debug_ranges  0x00003d78       0x90 C:\PROGRA~2\VT3_8920\VT3\RESOUR~1\targets\CANVIEW4\lib\lld\libCANView4.a(stm32f4xx_hal_can.o)
 .debug_ranges  0x00003e08       0xa0 C:\PROGRA~2\VT3_8920\VT3\RESOUR~1\targets\CANVIEW4\lib\lld\libCANView4.a(stm32f4xx_hal_dma2d.o)
 .debug_ranges  0x00003ea8       0x90 C:\PROGRA~2\VT3_8920\VT3\RESOUR~1\targets\CANVIEW4\lib\lld\libCANView4.a(stm32f4xx_hal_flash.o)
 .debug_ranges  0x00003f38       0xc8 C:\PROGRA~2\VT3_8920\VT3\RESOUR~1\targets\CANVIEW4\lib\lld\libCANView4.a(stm32f4xx_hal_flash_ex.o)
 .debug_ranges  0x00004000      0x1c8 C:\PROGRA~2\VT3_8920\VT3\RESOUR~1\targets\CANVIEW4\lib\lld\libCANView4.a(stm32f4xx_hal_i2c.o)
 .debug_ranges  0x000041c8       0xc8 C:\PROGRA~2\VT3_8920\VT3\RESOUR~1\targets\CANVIEW4\lib\lld\libCANView4.a(stm32f4xx_hal_ltdc.o)
 .debug_ranges  0x00004290       0x90 C:\PROGRA~2\VT3_8920\VT3\RESOUR~1\targets\CANVIEW4\lib\lld\libCANView4.a(stm32f4xx_hal_pwr.o)
 .debug_ranges  0x00004320       0x50 C:\PROGRA~2\VT3_8920\VT3\RESOUR~1\targets\CANVIEW4\lib\lld\libCANView4.a(stm32f4xx_hal_pwr_ex.o)
 .debug_ranges  0x00004370       0x20 C:\PROGRA~2\VT3_8920\VT3\RESOUR~1\targets\CANVIEW4\lib\lld\libCANView4.a(stm32f4xx_hal_rcc_ex.o)
 .debug_ranges  0x00004390       0x98 C:\PROGRA~2\VT3_8920\VT3\RESOUR~1\targets\CANVIEW4\lib\lld\libCANView4.a(stm32f4xx_hal_rtc.o)
 .debug_ranges  0x00004428      0x120 C:\PROGRA~2\VT3_8920\VT3\RESOUR~1\targets\CANVIEW4\lib\lld\libCANView4.a(stm32f4xx_hal_rtc_ex.o)
 .debug_ranges  0x00004548       0xb0 C:\PROGRA~2\VT3_8920\VT3\RESOUR~1\targets\CANVIEW4\lib\lld\libCANView4.a(stm32f4xx_hal_sdram.o)
 .debug_ranges  0x000045f8      0x128 C:\PROGRA~2\VT3_8920\VT3\RESOUR~1\targets\CANVIEW4\lib\lld\libCANView4.a(stm32f4xx_hal_spi.o)
 .debug_ranges  0x00004720       0xe0 C:\PROGRA~2\VT3_8920\VT3\RESOUR~1\targets\CANVIEW4\lib\lld\libCANView4.a(stm32f4xx_ll_fmc.o)
 .debug_ranges  0x00004800       0x18 C:\PROGRA~2\VT3_8920\VT3\RESOUR~1\targets\CANVIEW4\lib\lld\libCANView4.a(CRC32.o)
 .debug_ranges  0x00004818       0x18 C:\PROGRA~2\VT3_8920\VT3\RESOUR~1\targets\CANVIEW4\lib\lld\libCANView4.a(ccsbcs.o)
 .debug_ranges  0x00004830       0x38 C:\PROGRA~2\VT3_8920\VT3\RESOUR~1\targets\CANVIEW4\lib\lld\libCANView4.a(diskio.o)
 .debug_ranges  0x00004868       0x30 C:\PROGRA~2\VT3_8920\VT3\RESOUR~1\targets\CANVIEW4\lib\lld\libCANView4.a(ff_gen_drv.o)
 .debug_ranges  0x00004898       0x30 C:\PROGRA~2\VT3_8920\VT3\RESOUR~1\targets\CANVIEW4\lib\lld\libCANView4.a(usbh_diskio.o)
 .debug_ranges  0x000048c8       0x30 C:\PROGRA~2\VT3_8920\VT3\RESOUR~1\targets\CANVIEW4\lib\lld\libCANView4.a(list.o)
 .debug_ranges  0x000048f8       0x68 C:\PROGRA~2\VT3_8920\VT3\RESOUR~1\targets\CANVIEW4\lib\lld\libCANView4.a(usbh_msc.o)
 .debug_ranges  0x00004960       0x38 C:\PROGRA~2\VT3_8920\VT3\RESOUR~1\targets\CANVIEW4\lib\lld\libCANView4.a(usbh_msc_bot.o)
 .debug_ranges  0x00004998       0x38 C:\PROGRA~2\VT3_8920\VT3\RESOUR~1\targets\CANVIEW4\lib\lld\libCANView4.a(usbh_msc_scsi.o)

.debug_line     0x00000000    0x29e42
 .debug_line    0x00000000      0x1e9 C:\PROGRA~2\VT3_8920\VT3\RESOUR~1\targets\CANVIEW4\lib\vt3_runtime\libvt3_runtime.a(VT3_Main.o)
 .debug_line    0x000001e9      0x309 C:\PROGRA~2\VT3_8920\VT3\RESOUR~1\targets\CANVIEW4\lib\vt3_runtime\libvt3_runtime.a(VT3_Runtime.o)
 .debug_line    0x000004f2      0x106 C:\PROGRA~2\VT3_8920\VT3\RESOUR~1\targets\CANVIEW4\lib\vt3_runtime\libvt3_runtime.a(VT3_Cycle100.o)
 .debug_line    0x000005f8      0x100 C:\PROGRA~2\VT3_8920\VT3\RESOUR~1\targets\CANVIEW4\lib\vt3_runtime\libvt3_runtime.a(VT3_Cycle20.o)
 .debug_line    0x000006f8     0x516e C:\PROGRA~2\VT3_8920\VT3\RESOUR~1\targets\CANVIEW4\lib\vt3_common\libvt3_common.a(IEC_Lib.o)
 .debug_line    0x00005866      0xe71 C:\PROGRA~2\VT3_8920\VT3\RESOUR~1\targets\CANVIEW4\lib\vt3_common\libvt3_common.a(VT3_CAN_debug.o)
 .debug_line    0x000066d7     0x214d C:\PROGRA~2\VT3_8920\VT3\RESOUR~1\targets\CANVIEW4\lib\vt3_common\libvt3_common.a(VT3_Draw.o)
 .debug_line    0x00008824      0x2d0 C:\PROGRA~2\VT3_8920\VT3\RESOUR~1\targets\CANVIEW4\lib\vt3_common\libvt3_common.a(VT3_Runtime_Common.o)
 .debug_line    0x00008af4      0xb0e C:\PROGRA~2\VT3_8920\VT3\RESOUR~1\targets\CANVIEW4\lib\vt3_common\libvt3_common.a(VT3_elog.o)
 .debug_line    0x00009602       0xb4 C:\PROGRA~2\VT3_8920\VT3\RESOUR~1\targets\CANVIEW4\lib\lld\libCANView4.a(startup_stm32f429xx.o)
 .debug_line    0x000096b6      0x448 C:\PROGRA~2\VT3_8920\VT3\RESOUR~1\targets\CANVIEW4\lib\lld\libCANView4.a(stm32f4xx_it.o)
 .debug_line    0x00009afe      0x66f C:\PROGRA~2\VT3_8920\VT3\RESOUR~1\targets\CANVIEW4\lib\lld\libCANView4.a(usbh_conf.o)
 .debug_line    0x0000a16d      0x31d C:\PROGRA~2\VT3_8920\VT3\RESOUR~1\targets\CANVIEW4\lib\lld\libCANView4.a(system_stm32f4xx.o)
 .debug_line    0x0000a48a      0x51b C:\PROGRA~2\VT3_8920\VT3\RESOUR~1\targets\CANVIEW4\lib\lld\libCANView4.a(stm32f4xx_hal.o)
 .debug_line    0x0000a9a5      0x615 C:\PROGRA~2\VT3_8920\VT3\RESOUR~1\targets\CANVIEW4\lib\lld\libCANView4.a(stm32f4xx_hal_cortex.o)
 .debug_line    0x0000afba      0x5cb C:\PROGRA~2\VT3_8920\VT3\RESOUR~1\targets\CANVIEW4\lib\lld\libCANView4.a(stm32f4xx_hal_dcmi.o)
 .debug_line    0x0000b585      0x525 C:\PROGRA~2\VT3_8920\VT3\RESOUR~1\targets\CANVIEW4\lib\lld\libCANView4.a(stm32f4xx_hal_dma.o)
 .debug_line    0x0000baaa      0x3ce C:\PROGRA~2\VT3_8920\VT3\RESOUR~1\targets\CANVIEW4\lib\lld\libCANView4.a(stm32f4xx_hal_dma_ex.o)
 .debug_line    0x0000be78      0x543 C:\PROGRA~2\VT3_8920\VT3\RESOUR~1\targets\CANVIEW4\lib\lld\libCANView4.a(stm32f4xx_hal_gpio.o)
 .debug_line    0x0000c3bb      0x773 C:\PROGRA~2\VT3_8920\VT3\RESOUR~1\targets\CANVIEW4\lib\lld\libCANView4.a(stm32f4xx_hal_hcd.o)
 .debug_line    0x0000cb2e      0x6af C:\PROGRA~2\VT3_8920\VT3\RESOUR~1\targets\CANVIEW4\lib\lld\libCANView4.a(stm32f4xx_hal_rcc.o)
 .debug_line    0x0000d1dd     0x149e C:\PROGRA~2\VT3_8920\VT3\RESOUR~1\targets\CANVIEW4\lib\lld\libCANView4.a(stm32f4xx_hal_tim.o)
 .debug_line    0x0000e67b      0x932 C:\PROGRA~2\VT3_8920\VT3\RESOUR~1\targets\CANVIEW4\lib\lld\libCANView4.a(stm32f4xx_hal_tim_ex.o)
 .debug_line    0x0000efad      0x9d0 C:\PROGRA~2\VT3_8920\VT3\RESOUR~1\targets\CANVIEW4\lib\lld\libCANView4.a(stm32f4xx_hal_uart.o)
 .debug_line    0x0000f97d      0x968 C:\PROGRA~2\VT3_8920\VT3\RESOUR~1\targets\CANVIEW4\lib\lld\libCANView4.a(stm32f4xx_ll_usb.o)
 .debug_line    0x000102e5      0x2f8 C:\PROGRA~2\VT3_8920\VT3\RESOUR~1\targets\CANVIEW4\lib\lld\libCANView4.a(CRC16.o)
 .debug_line    0x000105dd      0x644 C:\PROGRA~2\VT3_8920\VT3\RESOUR~1\targets\CANVIEW4\lib\lld\libCANView4.a(Camera.o)
 .debug_line    0x00010c21      0x808 C:\PROGRA~2\VT3_8920\VT3\RESOUR~1\targets\CANVIEW4\lib\lld\libCANView4.a(CANView4_Event_Log.o)
 .debug_line    0x00011429      0xb61 C:\PROGRA~2\VT3_8920\VT3\RESOUR~1\targets\CANVIEW4\lib\lld\libCANView4.a(CANView4_HW_lib.o)
 .debug_line    0x00011f8a      0x31e C:\PROGRA~2\VT3_8920\VT3\RESOUR~1\targets\CANVIEW4\lib\lld\libCANView4.a(CANView4_Mem_EEPROM.o)
 .debug_line    0x000122a8      0x366 C:\PROGRA~2\VT3_8920\VT3\RESOUR~1\targets\CANVIEW4\lib\lld\libCANView4.a(CANView4_Mem_EXT_FLASH.o)
 .debug_line    0x0001260e      0x36f C:\PROGRA~2\VT3_8920\VT3\RESOUR~1\targets\CANVIEW4\lib\lld\libCANView4.a(CANView4_Node.o)
 .debug_line    0x0001297d      0x775 C:\PROGRA~2\VT3_8920\VT3\RESOUR~1\targets\CANVIEW4\lib\lld\libCANView4.a(CANView4_STM_periphs_lib.o)
 .debug_line    0x000130f2      0x422 C:\PROGRA~2\VT3_8920\VT3\RESOUR~1\targets\CANVIEW4\lib\lld\libCANView4.a(CANView4_Task_Manager.o)
 .debug_line    0x00013514      0x3d4 C:\PROGRA~2\VT3_8920\VT3\RESOUR~1\targets\CANVIEW4\lib\lld\libCANView4.a(KWP2000_Light.o)
 .debug_line    0x000138e8      0x369 C:\PROGRA~2\VT3_8920\VT3\RESOUR~1\targets\CANVIEW4\lib\lld\libCANView4.a(Virtual_TIMs.o)
 .debug_line    0x00013c51      0x323 C:\PROGRA~2\VT3_8920\VT3\RESOUR~1\targets\CANVIEW4\lib\lld\libCANView4.a(Display_Utilities.o)
 .debug_line    0x00013f74     0x147a C:\PROGRA~2\VT3_8920\VT3\RESOUR~1\targets\CANVIEW4\lib\lld\libCANView4.a(Display_lib.o)
 .debug_line    0x000153ee      0x5b5 C:\PROGRA~2\VT3_8920\VT3\RESOUR~1\targets\CANVIEW4\lib\lld\libCANView4.a(eeprom.o)
 .debug_line    0x000159a3      0x7db C:\PROGRA~2\VT3_8920\VT3\RESOUR~1\targets\CANVIEW4\lib\lld\libCANView4.a(Spansion_128Mb.o)
 .debug_line    0x0001617e      0x8ab C:\PROGRA~2\VT3_8920\VT3\RESOUR~1\targets\CANVIEW4\lib\lld\libCANView4.a(CAN.o)
 .debug_line    0x00016a29      0x33e C:\PROGRA~2\VT3_8920\VT3\RESOUR~1\targets\CANVIEW4\lib\lld\libCANView4.a(Generic_IO.o)
 .debug_line    0x00016d67      0x398 C:\PROGRA~2\VT3_8920\VT3\RESOUR~1\targets\CANVIEW4\lib\lld\libCANView4.a(RS232.o)
 .debug_line    0x000170ff      0x449 C:\PROGRA~2\VT3_8920\VT3\RESOUR~1\targets\CANVIEW4\lib\lld\libCANView4.a(MD5.o)
 .debug_line    0x00017548      0x3a2 C:\PROGRA~2\VT3_8920\VT3\RESOUR~1\targets\CANVIEW4\lib\lld\libCANView4.a(RTC.o)
 .debug_line    0x000178ea      0x3bf C:\PROGRA~2\VT3_8920\VT3\RESOUR~1\targets\CANVIEW4\lib\lld\libCANView4.a(CANView4_Mem_RTC.o)
 .debug_line    0x00017ca9      0x4e9 C:\PROGRA~2\VT3_8920\VT3\RESOUR~1\targets\CANVIEW4\lib\lld\libCANView4.a(TVP5150.o)
 .debug_line    0x00018192      0x5c8 C:\PROGRA~2\VT3_8920\VT3\RESOUR~1\targets\CANVIEW4\lib\lld\libCANView4.a(USB_Utilities.o)
 .debug_line    0x0001875a      0x2c1 C:\PROGRA~2\VT3_8920\VT3\RESOUR~1\targets\CANVIEW4\lib\lld\libCANView4.a(Utilities.o)
 .debug_line    0x00018a1b     0x1975 C:\PROGRA~2\VT3_8920\VT3\RESOUR~1\targets\CANVIEW4\lib\lld\libCANView4.a(ff.o)
 .debug_line    0x0001a390      0x940 C:\PROGRA~2\VT3_8920\VT3\RESOUR~1\targets\CANVIEW4\lib\lld\libCANView4.a(cmsis_os.o)
 .debug_line    0x0001acd0      0x4a9 C:\PROGRA~2\VT3_8920\VT3\RESOUR~1\targets\CANVIEW4\lib\lld\libCANView4.a(heap_4.o)
 .debug_line    0x0001b179      0x411 C:\PROGRA~2\VT3_8920\VT3\RESOUR~1\targets\CANVIEW4\lib\lld\libCANView4.a(port.o)
 .debug_line    0x0001b58a      0xb3c C:\PROGRA~2\VT3_8920\VT3\RESOUR~1\targets\CANVIEW4\lib\lld\libCANView4.a(queue.o)
 .debug_line    0x0001c0c6      0xedc C:\PROGRA~2\VT3_8920\VT3\RESOUR~1\targets\CANVIEW4\lib\lld\libCANView4.a(tasks.o)
 .debug_line    0x0001cfa2      0x73a C:\PROGRA~2\VT3_8920\VT3\RESOUR~1\targets\CANVIEW4\lib\lld\libCANView4.a(usbh_core.o)
 .debug_line    0x0001d6dc      0x6b9 C:\PROGRA~2\VT3_8920\VT3\RESOUR~1\targets\CANVIEW4\lib\lld\libCANView4.a(usbh_ctlreq.o)
 .debug_line    0x0001dd95      0x4f7 C:\PROGRA~2\VT3_8920\VT3\RESOUR~1\targets\CANVIEW4\lib\lld\libCANView4.a(usbh_ioreq.o)
 .debug_line    0x0001e28c      0x4af C:\PROGRA~2\VT3_8920\VT3\RESOUR~1\targets\CANVIEW4\lib\lld\libCANView4.a(usbh_pipes.o)
 .debug_line    0x0001e73b      0x52b C:\PROGRA~2\VT3_8920\VT3\RESOUR~1\targets\CANVIEW4\lib\lld\libCANView4.a(fatfs.o)
 .debug_line    0x0001ec66      0x7c2 C:\PROGRA~2\VT3_8920\VT3\RESOUR~1\targets\CANVIEW4\lib\lld\libCANView4.a(stm32f4xx_hal_msp.o)
 .debug_line    0x0001f428      0x4b7 C:\PROGRA~2\VT3_8920\VT3\RESOUR~1\targets\CANVIEW4\lib\lld\libCANView4.a(usb_host.o)
 .debug_line    0x0001f8df      0x70a C:\PROGRA~2\VT3_8920\VT3\RESOUR~1\targets\CANVIEW4\lib\lld\libCANView4.a(stm32f4xx_hal_adc.o)
 .debug_line    0x0001ffe9      0x5fa C:\PROGRA~2\VT3_8920\VT3\RESOUR~1\targets\CANVIEW4\lib\lld\libCANView4.a(stm32f4xx_hal_adc_ex.o)
 .debug_line    0x000205e3      0x72b C:\PROGRA~2\VT3_8920\VT3\RESOUR~1\targets\CANVIEW4\lib\lld\libCANView4.a(stm32f4xx_hal_can.o)
 .debug_line    0x00020d0e      0x69c C:\PROGRA~2\VT3_8920\VT3\RESOUR~1\targets\CANVIEW4\lib\lld\libCANView4.a(stm32f4xx_hal_dma2d.o)
 .debug_line    0x000213aa      0x519 C:\PROGRA~2\VT3_8920\VT3\RESOUR~1\targets\CANVIEW4\lib\lld\libCANView4.a(stm32f4xx_hal_flash.o)
 .debug_line    0x000218c3      0x65b C:\PROGRA~2\VT3_8920\VT3\RESOUR~1\targets\CANVIEW4\lib\lld\libCANView4.a(stm32f4xx_hal_flash_ex.o)
 .debug_line    0x00021f1e     0x101d C:\PROGRA~2\VT3_8920\VT3\RESOUR~1\targets\CANVIEW4\lib\lld\libCANView4.a(stm32f4xx_hal_i2c.o)
 .debug_line    0x00022f3b      0x888 C:\PROGRA~2\VT3_8920\VT3\RESOUR~1\targets\CANVIEW4\lib\lld\libCANView4.a(stm32f4xx_hal_ltdc.o)
 .debug_line    0x000237c3      0x4da C:\PROGRA~2\VT3_8920\VT3\RESOUR~1\targets\CANVIEW4\lib\lld\libCANView4.a(stm32f4xx_hal_pwr.o)
 .debug_line    0x00023c9d      0x4ab C:\PROGRA~2\VT3_8920\VT3\RESOUR~1\targets\CANVIEW4\lib\lld\libCANView4.a(stm32f4xx_hal_pwr_ex.o)
 .debug_line    0x00024148      0x527 C:\PROGRA~2\VT3_8920\VT3\RESOUR~1\targets\CANVIEW4\lib\lld\libCANView4.a(stm32f4xx_hal_rcc_ex.o)
 .debug_line    0x0002466f      0x6b6 C:\PROGRA~2\VT3_8920\VT3\RESOUR~1\targets\CANVIEW4\lib\lld\libCANView4.a(stm32f4xx_hal_rtc.o)
 .debug_line    0x00024d25      0xa28 C:\PROGRA~2\VT3_8920\VT3\RESOUR~1\targets\CANVIEW4\lib\lld\libCANView4.a(stm32f4xx_hal_rtc_ex.o)
 .debug_line    0x0002574d      0x68f C:\PROGRA~2\VT3_8920\VT3\RESOUR~1\targets\CANVIEW4\lib\lld\libCANView4.a(stm32f4xx_hal_sdram.o)
 .debug_line    0x00025ddc      0xb2e C:\PROGRA~2\VT3_8920\VT3\RESOUR~1\targets\CANVIEW4\lib\lld\libCANView4.a(stm32f4xx_hal_spi.o)
 .debug_line    0x0002690a      0x6c7 C:\PROGRA~2\VT3_8920\VT3\RESOUR~1\targets\CANVIEW4\lib\lld\libCANView4.a(stm32f4xx_ll_fmc.o)
 .debug_line    0x00026fd1      0x2e5 C:\PROGRA~2\VT3_8920\VT3\RESOUR~1\targets\CANVIEW4\lib\lld\libCANView4.a(CRC32.o)
 .debug_line    0x000272b6      0x52c C:\PROGRA~2\VT3_8920\VT3\RESOUR~1\targets\CANVIEW4\lib\lld\libCANView4.a(ccsbcs.o)
 .debug_line    0x000277e2      0x514 C:\PROGRA~2\VT3_8920\VT3\RESOUR~1\targets\CANVIEW4\lib\lld\libCANView4.a(diskio.o)
 .debug_line    0x00027cf6      0x513 C:\PROGRA~2\VT3_8920\VT3\RESOUR~1\targets\CANVIEW4\lib\lld\libCANView4.a(ff_gen_drv.o)
 .debug_line    0x00028209      0x589 C:\PROGRA~2\VT3_8920\VT3\RESOUR~1\targets\CANVIEW4\lib\lld\libCANView4.a(usbh_diskio.o)
 .debug_line    0x00028792      0x40c C:\PROGRA~2\VT3_8920\VT3\RESOUR~1\targets\CANVIEW4\lib\lld\libCANView4.a(list.o)
 .debug_line    0x00028b9e      0x6e7 C:\PROGRA~2\VT3_8920\VT3\RESOUR~1\targets\CANVIEW4\lib\lld\libCANView4.a(usbh_msc.o)
 .debug_line    0x00029285      0x5fa C:\PROGRA~2\VT3_8920\VT3\RESOUR~1\targets\CANVIEW4\lib\lld\libCANView4.a(usbh_msc_bot.o)
 .debug_line    0x0002987f      0x5c3 C:\PROGRA~2\VT3_8920\VT3\RESOUR~1\targets\CANVIEW4\lib\lld\libCANView4.a(usbh_msc_scsi.o)

.debug_str      0x00000000    0x15f1c
 .debug_str     0x00000000      0x421 C:\PROGRA~2\VT3_8920\VT3\RESOUR~1\targets\CANVIEW4\lib\vt3_runtime\libvt3_runtime.a(VT3_Main.o)
                                0x49d (size before relaxing)
 .debug_str     0x00000421      0x518 C:\PROGRA~2\VT3_8920\VT3\RESOUR~1\targets\CANVIEW4\lib\vt3_runtime\libvt3_runtime.a(VT3_Runtime.o)
                                0x860 (size before relaxing)
 .debug_str     0x00000939       0xda C:\PROGRA~2\VT3_8920\VT3\RESOUR~1\targets\CANVIEW4\lib\vt3_runtime\libvt3_runtime.a(VT3_Cycle100.o)
                                0x2de (size before relaxing)
 .debug_str     0x00000a13       0xfe C:\PROGRA~2\VT3_8920\VT3\RESOUR~1\targets\CANVIEW4\lib\vt3_runtime\libvt3_runtime.a(VT3_Cycle20.o)
                                0x302 (size before relaxing)
 .debug_str     0x00000b11     0x1842 C:\PROGRA~2\VT3_8920\VT3\RESOUR~1\targets\CANVIEW4\lib\vt3_common\libvt3_common.a(IEC_Lib.o)
                               0x1ce0 (size before relaxing)
 .debug_str     0x00002353     0x107a C:\PROGRA~2\VT3_8920\VT3\RESOUR~1\targets\CANVIEW4\lib\vt3_common\libvt3_common.a(VT3_CAN_debug.o)
                               0x14a8 (size before relaxing)
 .debug_str     0x000033cd     0x2649 C:\PROGRA~2\VT3_8920\VT3\RESOUR~1\targets\CANVIEW4\lib\vt3_common\libvt3_common.a(VT3_Draw.o)
                               0x2cd2 (size before relaxing)
 .debug_str     0x00005a16      0x384 C:\PROGRA~2\VT3_8920\VT3\RESOUR~1\targets\CANVIEW4\lib\vt3_common\libvt3_common.a(VT3_Runtime_Common.o)
                                0x785 (size before relaxing)
 .debug_str     0x00005d9a      0xa4a C:\PROGRA~2\VT3_8920\VT3\RESOUR~1\targets\CANVIEW4\lib\vt3_common\libvt3_common.a(VT3_elog.o)
                               0x1211 (size before relaxing)
 .debug_str     0x000067e4       0xfe C:\PROGRA~2\VT3_8920\VT3\RESOUR~1\targets\CANVIEW4\lib\lld\libCANView4.a(startup_stm32f429xx.o)
 .debug_str     0x000068e2     0x1029 C:\PROGRA~2\VT3_8920\VT3\RESOUR~1\targets\CANVIEW4\lib\lld\libCANView4.a(stm32f4xx_it.o)
                               0x12cb (size before relaxing)
 .debug_str     0x0000790b     0x10d7 C:\PROGRA~2\VT3_8920\VT3\RESOUR~1\targets\CANVIEW4\lib\lld\libCANView4.a(usbh_conf.o)
                               0x1bcd (size before relaxing)
 .debug_str     0x000089e2       0xdf C:\PROGRA~2\VT3_8920\VT3\RESOUR~1\targets\CANVIEW4\lib\lld\libCANView4.a(system_stm32f4xx.o)
                                0x820 (size before relaxing)
 .debug_str     0x00008ac1      0x2c9 C:\PROGRA~2\VT3_8920\VT3\RESOUR~1\targets\CANVIEW4\lib\lld\libCANView4.a(stm32f4xx_hal.o)
                                0xf68 (size before relaxing)
 .debug_str     0x00008d8a      0x374 C:\PROGRA~2\VT3_8920\VT3\RESOUR~1\targets\CANVIEW4\lib\lld\libCANView4.a(stm32f4xx_hal_cortex.o)
                               0x10c3 (size before relaxing)
 .debug_str     0x000090fe      0x1a7 C:\PROGRA~2\VT3_8920\VT3\RESOUR~1\targets\CANVIEW4\lib\lld\libCANView4.a(stm32f4xx_hal_dcmi.o)
                                0xc9e (size before relaxing)
 .debug_str     0x000092a5      0x1a7 C:\PROGRA~2\VT3_8920\VT3\RESOUR~1\targets\CANVIEW4\lib\lld\libCANView4.a(stm32f4xx_hal_dma.o)
                                0xad2 (size before relaxing)
 .debug_str     0x0000944c       0xc0 C:\PROGRA~2\VT3_8920\VT3\RESOUR~1\targets\CANVIEW4\lib\lld\libCANView4.a(stm32f4xx_hal_dma_ex.o)
                                0xa0d (size before relaxing)
 .debug_str     0x0000950c      0x159 C:\PROGRA~2\VT3_8920\VT3\RESOUR~1\targets\CANVIEW4\lib\lld\libCANView4.a(stm32f4xx_hal_gpio.o)
                                0x97f (size before relaxing)
 .debug_str     0x00009665      0x2c3 C:\PROGRA~2\VT3_8920\VT3\RESOUR~1\targets\CANVIEW4\lib\lld\libCANView4.a(stm32f4xx_hal_hcd.o)
                                0xe0c (size before relaxing)
 .debug_str     0x00009928      0x2bb C:\PROGRA~2\VT3_8920\VT3\RESOUR~1\targets\CANVIEW4\lib\lld\libCANView4.a(stm32f4xx_hal_rcc.o)
                                0xb23 (size before relaxing)
 .debug_str     0x00009be3      0xcad C:\PROGRA~2\VT3_8920\VT3\RESOUR~1\targets\CANVIEW4\lib\lld\libCANView4.a(stm32f4xx_hal_tim.o)
                               0x17ce (size before relaxing)
 .debug_str     0x0000a890      0x541 C:\PROGRA~2\VT3_8920\VT3\RESOUR~1\targets\CANVIEW4\lib\lld\libCANView4.a(stm32f4xx_hal_tim_ex.o)
                               0x10de (size before relaxing)
 .debug_str     0x0000add1      0x358 C:\PROGRA~2\VT3_8920\VT3\RESOUR~1\targets\CANVIEW4\lib\lld\libCANView4.a(stm32f4xx_hal_uart.o)
                                0xe6f (size before relaxing)
 .debug_str     0x0000b129      0x575 C:\PROGRA~2\VT3_8920\VT3\RESOUR~1\targets\CANVIEW4\lib\lld\libCANView4.a(stm32f4xx_ll_usb.o)
                               0x1012 (size before relaxing)
 .debug_str     0x0000b69e       0x51 C:\PROGRA~2\VT3_8920\VT3\RESOUR~1\targets\CANVIEW4\lib\lld\libCANView4.a(CRC16.o)
                                0x68e (size before relaxing)
 .debug_str     0x0000b6ef      0x414 C:\PROGRA~2\VT3_8920\VT3\RESOUR~1\targets\CANVIEW4\lib\lld\libCANView4.a(Camera.o)
                                0xecc (size before relaxing)
 .debug_str     0x0000bb03      0x42b C:\PROGRA~2\VT3_8920\VT3\RESOUR~1\targets\CANVIEW4\lib\lld\libCANView4.a(CANView4_Event_Log.o)
                               0x1346 (size before relaxing)
 .debug_str     0x0000bf2e     0x147f C:\PROGRA~2\VT3_8920\VT3\RESOUR~1\targets\CANVIEW4\lib\lld\libCANView4.a(CANView4_HW_lib.o)
                               0x312e (size before relaxing)
 .debug_str     0x0000d3ad       0xce C:\PROGRA~2\VT3_8920\VT3\RESOUR~1\targets\CANVIEW4\lib\lld\libCANView4.a(CANView4_Mem_EEPROM.o)
                                0x739 (size before relaxing)
 .debug_str     0x0000d47b      0x131 C:\PROGRA~2\VT3_8920\VT3\RESOUR~1\targets\CANVIEW4\lib\lld\libCANView4.a(CANView4_Mem_EXT_FLASH.o)
                                0x7fd (size before relaxing)
 .debug_str     0x0000d5ac       0x7d C:\PROGRA~2\VT3_8920\VT3\RESOUR~1\targets\CANVIEW4\lib\lld\libCANView4.a(CANView4_Node.o)
                                0x863 (size before relaxing)
 .debug_str     0x0000d629      0x32d C:\PROGRA~2\VT3_8920\VT3\RESOUR~1\targets\CANVIEW4\lib\lld\libCANView4.a(CANView4_STM_periphs_lib.o)
                               0x2cfb (size before relaxing)
 .debug_str     0x0000d956      0x222 C:\PROGRA~2\VT3_8920\VT3\RESOUR~1\targets\CANVIEW4\lib\lld\libCANView4.a(CANView4_Task_Manager.o)
                                0x993 (size before relaxing)
 .debug_str     0x0000db78      0x2d7 C:\PROGRA~2\VT3_8920\VT3\RESOUR~1\targets\CANVIEW4\lib\lld\libCANView4.a(KWP2000_Light.o)
                                0xb6c (size before relaxing)
 .debug_str     0x0000de4f       0xf3 C:\PROGRA~2\VT3_8920\VT3\RESOUR~1\targets\CANVIEW4\lib\lld\libCANView4.a(Virtual_TIMs.o)
                                0x736 (size before relaxing)
 .debug_str     0x0000df42       0x77 C:\PROGRA~2\VT3_8920\VT3\RESOUR~1\targets\CANVIEW4\lib\lld\libCANView4.a(Display_Utilities.o)
                                0x6f1 (size before relaxing)
 .debug_str     0x0000dfb9      0xa41 C:\PROGRA~2\VT3_8920\VT3\RESOUR~1\targets\CANVIEW4\lib\lld\libCANView4.a(Display_lib.o)
                               0x16d6 (size before relaxing)
 .debug_str     0x0000e9fa      0x3b9 C:\PROGRA~2\VT3_8920\VT3\RESOUR~1\targets\CANVIEW4\lib\lld\libCANView4.a(eeprom.o)
                                0xb0c (size before relaxing)
 .debug_str     0x0000edb3      0x654 C:\PROGRA~2\VT3_8920\VT3\RESOUR~1\targets\CANVIEW4\lib\lld\libCANView4.a(Spansion_128Mb.o)
                               0x1223 (size before relaxing)
 .debug_str     0x0000f407      0x531 C:\PROGRA~2\VT3_8920\VT3\RESOUR~1\targets\CANVIEW4\lib\lld\libCANView4.a(CAN.o)
                               0x1509 (size before relaxing)
 .debug_str     0x0000f938       0x44 C:\PROGRA~2\VT3_8920\VT3\RESOUR~1\targets\CANVIEW4\lib\lld\libCANView4.a(Generic_IO.o)
                                0x6de (size before relaxing)
 .debug_str     0x0000f97c       0xa0 C:\PROGRA~2\VT3_8920\VT3\RESOUR~1\targets\CANVIEW4\lib\lld\libCANView4.a(RS232.o)
                               0x10d1 (size before relaxing)
 .debug_str     0x0000fa1c       0xd7 C:\PROGRA~2\VT3_8920\VT3\RESOUR~1\targets\CANVIEW4\lib\lld\libCANView4.a(MD5.o)
                                0x6dd (size before relaxing)
 .debug_str     0x0000faf3       0xac C:\PROGRA~2\VT3_8920\VT3\RESOUR~1\targets\CANVIEW4\lib\lld\libCANView4.a(RTC.o)
                                0x9f8 (size before relaxing)
 .debug_str     0x0000fb9f      0x10b C:\PROGRA~2\VT3_8920\VT3\RESOUR~1\targets\CANVIEW4\lib\lld\libCANView4.a(CANView4_Mem_RTC.o)
                                0x7e3 (size before relaxing)
 .debug_str     0x0000fcaa      0x147 C:\PROGRA~2\VT3_8920\VT3\RESOUR~1\targets\CANVIEW4\lib\lld\libCANView4.a(TVP5150.o)
                                0xcb2 (size before relaxing)
 .debug_str     0x0000fdf1      0x1de C:\PROGRA~2\VT3_8920\VT3\RESOUR~1\targets\CANVIEW4\lib\lld\libCANView4.a(USB_Utilities.o)
                               0x11e1 (size before relaxing)
 .debug_str     0x0000ffcf       0x32 C:\PROGRA~2\VT3_8920\VT3\RESOUR~1\targets\CANVIEW4\lib\lld\libCANView4.a(Utilities.o)
                                0x658 (size before relaxing)
 .debug_str     0x00010001      0x3c0 C:\PROGRA~2\VT3_8920\VT3\RESOUR~1\targets\CANVIEW4\lib\lld\libCANView4.a(ff.o)
                               0x1480 (size before relaxing)
 .debug_str     0x000103c1      0x73d C:\PROGRA~2\VT3_8920\VT3\RESOUR~1\targets\CANVIEW4\lib\lld\libCANView4.a(cmsis_os.o)
                                0xf24 (size before relaxing)
 .debug_str     0x00010afe      0x21b C:\PROGRA~2\VT3_8920\VT3\RESOUR~1\targets\CANVIEW4\lib\lld\libCANView4.a(heap_4.o)
                                0x83e (size before relaxing)
 .debug_str     0x00010d19      0x238 C:\PROGRA~2\VT3_8920\VT3\RESOUR~1\targets\CANVIEW4\lib\lld\libCANView4.a(port.o)
                                0x4f5 (size before relaxing)
 .debug_str     0x00010f51      0x57b C:\PROGRA~2\VT3_8920\VT3\RESOUR~1\targets\CANVIEW4\lib\lld\libCANView4.a(queue.o)
                                0xc7d (size before relaxing)
 .debug_str     0x000114cc      0xa8d C:\PROGRA~2\VT3_8920\VT3\RESOUR~1\targets\CANVIEW4\lib\lld\libCANView4.a(tasks.o)
                               0x1353 (size before relaxing)
 .debug_str     0x00011f59      0x25d C:\PROGRA~2\VT3_8920\VT3\RESOUR~1\targets\CANVIEW4\lib\lld\libCANView4.a(usbh_core.o)
                               0x134c (size before relaxing)
 .debug_str     0x000121b6      0x21d C:\PROGRA~2\VT3_8920\VT3\RESOUR~1\targets\CANVIEW4\lib\lld\libCANView4.a(usbh_ctlreq.o)
                               0x1148 (size before relaxing)
 .debug_str     0x000123d3       0xfb C:\PROGRA~2\VT3_8920\VT3\RESOUR~1\targets\CANVIEW4\lib\lld\libCANView4.a(usbh_ioreq.o)
                                0xf67 (size before relaxing)
 .debug_str     0x000124ce       0x98 C:\PROGRA~2\VT3_8920\VT3\RESOUR~1\targets\CANVIEW4\lib\lld\libCANView4.a(usbh_pipes.o)
                                0xeec (size before relaxing)
 .debug_str     0x00012566       0x2f C:\PROGRA~2\VT3_8920\VT3\RESOUR~1\targets\CANVIEW4\lib\lld\libCANView4.a(fatfs.o)
                                0xf08 (size before relaxing)
 .debug_str     0x00012595      0x246 C:\PROGRA~2\VT3_8920\VT3\RESOUR~1\targets\CANVIEW4\lib\lld\libCANView4.a(stm32f4xx_hal_msp.o)
                               0x2736 (size before relaxing)
 .debug_str     0x000127db       0x59 C:\PROGRA~2\VT3_8920\VT3\RESOUR~1\targets\CANVIEW4\lib\lld\libCANView4.a(usb_host.o)
                                0xef9 (size before relaxing)
 .debug_str     0x00012834      0x26e C:\PROGRA~2\VT3_8920\VT3\RESOUR~1\targets\CANVIEW4\lib\lld\libCANView4.a(stm32f4xx_hal_adc.o)
                                0xef6 (size before relaxing)
 .debug_str     0x00012aa2      0x308 C:\PROGRA~2\VT3_8920\VT3\RESOUR~1\targets\CANVIEW4\lib\lld\libCANView4.a(stm32f4xx_hal_adc_ex.o)
                                0xf1c (size before relaxing)
 .debug_str     0x00012daa      0x183 C:\PROGRA~2\VT3_8920\VT3\RESOUR~1\targets\CANVIEW4\lib\lld\libCANView4.a(stm32f4xx_hal_can.o)
                                0xb89 (size before relaxing)
 .debug_str     0x00012f2d      0x1d7 C:\PROGRA~2\VT3_8920\VT3\RESOUR~1\targets\CANVIEW4\lib\lld\libCANView4.a(stm32f4xx_hal_dma2d.o)
                                0xaf7 (size before relaxing)
 .debug_str     0x00013104      0x28f C:\PROGRA~2\VT3_8920\VT3\RESOUR~1\targets\CANVIEW4\lib\lld\libCANView4.a(stm32f4xx_hal_flash.o)
                                0x99f (size before relaxing)
 .debug_str     0x00013393      0x33a C:\PROGRA~2\VT3_8920\VT3\RESOUR~1\targets\CANVIEW4\lib\lld\libCANView4.a(stm32f4xx_hal_flash_ex.o)
                                0xb50 (size before relaxing)
 .debug_str     0x000136cd      0x560 C:\PROGRA~2\VT3_8920\VT3\RESOUR~1\targets\CANVIEW4\lib\lld\libCANView4.a(stm32f4xx_hal_i2c.o)
                               0x10aa (size before relaxing)
 .debug_str     0x00013c2d      0x1cc C:\PROGRA~2\VT3_8920\VT3\RESOUR~1\targets\CANVIEW4\lib\lld\libCANView4.a(stm32f4xx_hal_ltdc.o)
                                0xc56 (size before relaxing)
 .debug_str     0x00013df9      0x21e C:\PROGRA~2\VT3_8920\VT3\RESOUR~1\targets\CANVIEW4\lib\lld\libCANView4.a(stm32f4xx_hal_pwr.o)
                                0x9fc (size before relaxing)
 .debug_str     0x00014017      0x14a C:\PROGRA~2\VT3_8920\VT3\RESOUR~1\targets\CANVIEW4\lib\lld\libCANView4.a(stm32f4xx_hal_pwr_ex.o)
                                0x97e (size before relaxing)
 .debug_str     0x00014161       0x8e C:\PROGRA~2\VT3_8920\VT3\RESOUR~1\targets\CANVIEW4\lib\lld\libCANView4.a(stm32f4xx_hal_rcc_ex.o)
                                0x932 (size before relaxing)
 .debug_str     0x000141ef      0x216 C:\PROGRA~2\VT3_8920\VT3\RESOUR~1\targets\CANVIEW4\lib\lld\libCANView4.a(stm32f4xx_hal_rtc.o)
                                0xb6f (size before relaxing)
 .debug_str     0x00014405      0x575 C:\PROGRA~2\VT3_8920\VT3\RESOUR~1\targets\CANVIEW4\lib\lld\libCANView4.a(stm32f4xx_hal_rtc_ex.o)
                                0xed7 (size before relaxing)
 .debug_str     0x0001497a      0x265 C:\PROGRA~2\VT3_8920\VT3\RESOUR~1\targets\CANVIEW4\lib\lld\libCANView4.a(stm32f4xx_hal_sdram.o)
                                0xe19 (size before relaxing)
 .debug_str     0x00014bdf      0x33f C:\PROGRA~2\VT3_8920\VT3\RESOUR~1\targets\CANVIEW4\lib\lld\libCANView4.a(stm32f4xx_hal_spi.o)
                                0xe7e (size before relaxing)
 .debug_str     0x00014f1e      0x5a7 C:\PROGRA~2\VT3_8920\VT3\RESOUR~1\targets\CANVIEW4\lib\lld\libCANView4.a(stm32f4xx_ll_fmc.o)
                                0xe2d (size before relaxing)
 .debug_str     0x000154c5       0x44 C:\PROGRA~2\VT3_8920\VT3\RESOUR~1\targets\CANVIEW4\lib\lld\libCANView4.a(CRC32.o)
                                0x68e (size before relaxing)
 .debug_str     0x00015509       0x66 C:\PROGRA~2\VT3_8920\VT3\RESOUR~1\targets\CANVIEW4\lib\lld\libCANView4.a(ccsbcs.o)
                                0xe8d (size before relaxing)
 .debug_str     0x0001556f       0x58 C:\PROGRA~2\VT3_8920\VT3\RESOUR~1\targets\CANVIEW4\lib\lld\libCANView4.a(diskio.o)
                                0xf36 (size before relaxing)
 .debug_str     0x000155c7       0xa8 C:\PROGRA~2\VT3_8920\VT3\RESOUR~1\targets\CANVIEW4\lib\lld\libCANView4.a(ff_gen_drv.o)
                                0xf8c (size before relaxing)
 .debug_str     0x0001566f      0x23c C:\PROGRA~2\VT3_8920\VT3\RESOUR~1\targets\CANVIEW4\lib\lld\libCANView4.a(usbh_diskio.o)
                               0x114b (size before relaxing)
 .debug_str     0x000158ab       0xba C:\PROGRA~2\VT3_8920\VT3\RESOUR~1\targets\CANVIEW4\lib\lld\libCANView4.a(list.o)
                                0x774 (size before relaxing)
 .debug_str     0x00015965      0x3a4 C:\PROGRA~2\VT3_8920\VT3\RESOUR~1\targets\CANVIEW4\lib\lld\libCANView4.a(usbh_msc.o)
                               0x1485 (size before relaxing)
 .debug_str     0x00015d09      0x12c C:\PROGRA~2\VT3_8920\VT3\RESOUR~1\targets\CANVIEW4\lib\lld\libCANView4.a(usbh_msc_bot.o)
                               0x14ac (size before relaxing)
 .debug_str     0x00015e35       0xe7 C:\PROGRA~2\VT3_8920\VT3\RESOUR~1\targets\CANVIEW4\lib\lld\libCANView4.a(usbh_msc_scsi.o)
                               0x1383 (size before relaxing)

.debug_frame    0x00000000    0x15d80
 .debug_frame   0x00000000       0xdc C:\PROGRA~2\VT3_8920\VT3\RESOUR~1\targets\CANVIEW4\lib\vt3_runtime\libvt3_runtime.a(VT3_Main.o)
 .debug_frame   0x000000dc      0x24c C:\PROGRA~2\VT3_8920\VT3\RESOUR~1\targets\CANVIEW4\lib\vt3_runtime\libvt3_runtime.a(VT3_Runtime.o)
 .debug_frame   0x00000328       0x50 C:\PROGRA~2\VT3_8920\VT3\RESOUR~1\targets\CANVIEW4\lib\vt3_runtime\libvt3_runtime.a(VT3_Cycle100.o)
 .debug_frame   0x00000378       0x50 C:\PROGRA~2\VT3_8920\VT3\RESOUR~1\targets\CANVIEW4\lib\vt3_runtime\libvt3_runtime.a(VT3_Cycle20.o)
 .debug_frame   0x000003c8     0x44bc C:\PROGRA~2\VT3_8920\VT3\RESOUR~1\targets\CANVIEW4\lib\vt3_common\libvt3_common.a(IEC_Lib.o)
 .debug_frame   0x00004884      0xd70 C:\PROGRA~2\VT3_8920\VT3\RESOUR~1\targets\CANVIEW4\lib\vt3_common\libvt3_common.a(VT3_CAN_debug.o)
 .debug_frame   0x000055f4      0xc4c C:\PROGRA~2\VT3_8920\VT3\RESOUR~1\targets\CANVIEW4\lib\vt3_common\libvt3_common.a(VT3_Draw.o)
 .debug_frame   0x00006240      0x200 C:\PROGRA~2\VT3_8920\VT3\RESOUR~1\targets\CANVIEW4\lib\vt3_common\libvt3_common.a(VT3_Runtime_Common.o)
 .debug_frame   0x00006440      0x7e4 C:\PROGRA~2\VT3_8920\VT3\RESOUR~1\targets\CANVIEW4\lib\vt3_common\libvt3_common.a(VT3_elog.o)
 .debug_frame   0x00006c24      0x130 C:\PROGRA~2\VT3_8920\VT3\RESOUR~1\targets\CANVIEW4\lib\lld\libCANView4.a(stm32f4xx_it.o)
 .debug_frame   0x00006d54      0x314 C:\PROGRA~2\VT3_8920\VT3\RESOUR~1\targets\CANVIEW4\lib\lld\libCANView4.a(usbh_conf.o)
 .debug_frame   0x00007068       0x58 C:\PROGRA~2\VT3_8920\VT3\RESOUR~1\targets\CANVIEW4\lib\lld\libCANView4.a(system_stm32f4xx.o)
 .debug_frame   0x000070c0      0x310 C:\PROGRA~2\VT3_8920\VT3\RESOUR~1\targets\CANVIEW4\lib\lld\libCANView4.a(stm32f4xx_hal.o)
 .debug_frame   0x000073d0      0x450 C:\PROGRA~2\VT3_8920\VT3\RESOUR~1\targets\CANVIEW4\lib\lld\libCANView4.a(stm32f4xx_hal_cortex.o)
 .debug_frame   0x00007820      0x278 C:\PROGRA~2\VT3_8920\VT3\RESOUR~1\targets\CANVIEW4\lib\lld\libCANView4.a(stm32f4xx_hal_dcmi.o)
 .debug_frame   0x00007a98      0x1b0 C:\PROGRA~2\VT3_8920\VT3\RESOUR~1\targets\CANVIEW4\lib\lld\libCANView4.a(stm32f4xx_hal_dma.o)
 .debug_frame   0x00007c48       0xa8 C:\PROGRA~2\VT3_8920\VT3\RESOUR~1\targets\CANVIEW4\lib\lld\libCANView4.a(stm32f4xx_hal_dma_ex.o)
 .debug_frame   0x00007cf0      0x14c C:\PROGRA~2\VT3_8920\VT3\RESOUR~1\targets\CANVIEW4\lib\lld\libCANView4.a(stm32f4xx_hal_gpio.o)
 .debug_frame   0x00007e3c      0x3d4 C:\PROGRA~2\VT3_8920\VT3\RESOUR~1\targets\CANVIEW4\lib\lld\libCANView4.a(stm32f4xx_hal_hcd.o)
 .debug_frame   0x00008210      0x204 C:\PROGRA~2\VT3_8920\VT3\RESOUR~1\targets\CANVIEW4\lib\lld\libCANView4.a(stm32f4xx_hal_rcc.o)
 .debug_frame   0x00008414      0xf14 C:\PROGRA~2\VT3_8920\VT3\RESOUR~1\targets\CANVIEW4\lib\lld\libCANView4.a(stm32f4xx_hal_tim.o)
 .debug_frame   0x00009328      0x574 C:\PROGRA~2\VT3_8920\VT3\RESOUR~1\targets\CANVIEW4\lib\lld\libCANView4.a(stm32f4xx_hal_tim_ex.o)
 .debug_frame   0x0000989c      0x590 C:\PROGRA~2\VT3_8920\VT3\RESOUR~1\targets\CANVIEW4\lib\lld\libCANView4.a(stm32f4xx_hal_uart.o)
 .debug_frame   0x00009e2c      0x718 C:\PROGRA~2\VT3_8920\VT3\RESOUR~1\targets\CANVIEW4\lib\lld\libCANView4.a(stm32f4xx_ll_usb.o)
 .debug_frame   0x0000a544       0x60 C:\PROGRA~2\VT3_8920\VT3\RESOUR~1\targets\CANVIEW4\lib\lld\libCANView4.a(CRC16.o)
 .debug_frame   0x0000a5a4      0x13c C:\PROGRA~2\VT3_8920\VT3\RESOUR~1\targets\CANVIEW4\lib\lld\libCANView4.a(Camera.o)
 .debug_frame   0x0000a6e0      0x1b0 C:\PROGRA~2\VT3_8920\VT3\RESOUR~1\targets\CANVIEW4\lib\lld\libCANView4.a(CANView4_Event_Log.o)
 .debug_frame   0x0000a890      0x558 C:\PROGRA~2\VT3_8920\VT3\RESOUR~1\targets\CANVIEW4\lib\lld\libCANView4.a(CANView4_HW_lib.o)
 .debug_frame   0x0000ade8       0x34 C:\PROGRA~2\VT3_8920\VT3\RESOUR~1\targets\CANVIEW4\lib\lld\libCANView4.a(CANView4_Mem_EEPROM.o)
 .debug_frame   0x0000ae1c       0xd4 C:\PROGRA~2\VT3_8920\VT3\RESOUR~1\targets\CANVIEW4\lib\lld\libCANView4.a(CANView4_Mem_EXT_FLASH.o)
 .debug_frame   0x0000aef0       0xf0 C:\PROGRA~2\VT3_8920\VT3\RESOUR~1\targets\CANVIEW4\lib\lld\libCANView4.a(CANView4_Node.o)
 .debug_frame   0x0000afe0      0x26c C:\PROGRA~2\VT3_8920\VT3\RESOUR~1\targets\CANVIEW4\lib\lld\libCANView4.a(CANView4_STM_periphs_lib.o)
 .debug_frame   0x0000b24c      0x114 C:\PROGRA~2\VT3_8920\VT3\RESOUR~1\targets\CANVIEW4\lib\lld\libCANView4.a(CANView4_Task_Manager.o)
 .debug_frame   0x0000b360       0xac C:\PROGRA~2\VT3_8920\VT3\RESOUR~1\targets\CANVIEW4\lib\lld\libCANView4.a(KWP2000_Light.o)
 .debug_frame   0x0000b40c       0xf4 C:\PROGRA~2\VT3_8920\VT3\RESOUR~1\targets\CANVIEW4\lib\lld\libCANView4.a(Virtual_TIMs.o)
 .debug_frame   0x0000b500       0x50 C:\PROGRA~2\VT3_8920\VT3\RESOUR~1\targets\CANVIEW4\lib\lld\libCANView4.a(Display_Utilities.o)
 .debug_frame   0x0000b550      0x818 C:\PROGRA~2\VT3_8920\VT3\RESOUR~1\targets\CANVIEW4\lib\lld\libCANView4.a(Display_lib.o)
 .debug_frame   0x0000bd68      0x1c8 C:\PROGRA~2\VT3_8920\VT3\RESOUR~1\targets\CANVIEW4\lib\lld\libCANView4.a(eeprom.o)
 .debug_frame   0x0000bf30      0x4fc C:\PROGRA~2\VT3_8920\VT3\RESOUR~1\targets\CANVIEW4\lib\lld\libCANView4.a(Spansion_128Mb.o)
 .debug_frame   0x0000c42c      0x3d4 C:\PROGRA~2\VT3_8920\VT3\RESOUR~1\targets\CANVIEW4\lib\lld\libCANView4.a(CAN.o)
 .debug_frame   0x0000c800       0x4c C:\PROGRA~2\VT3_8920\VT3\RESOUR~1\targets\CANVIEW4\lib\lld\libCANView4.a(Generic_IO.o)
 .debug_frame   0x0000c84c       0xa4 C:\PROGRA~2\VT3_8920\VT3\RESOUR~1\targets\CANVIEW4\lib\lld\libCANView4.a(RS232.o)
 .debug_frame   0x0000c8f0      0x13c C:\PROGRA~2\VT3_8920\VT3\RESOUR~1\targets\CANVIEW4\lib\lld\libCANView4.a(MD5.o)
 .debug_frame   0x0000ca2c       0x7c C:\PROGRA~2\VT3_8920\VT3\RESOUR~1\targets\CANVIEW4\lib\lld\libCANView4.a(RTC.o)
 .debug_frame   0x0000caa8       0xf8 C:\PROGRA~2\VT3_8920\VT3\RESOUR~1\targets\CANVIEW4\lib\lld\libCANView4.a(CANView4_Mem_RTC.o)
 .debug_frame   0x0000cba0      0x240 C:\PROGRA~2\VT3_8920\VT3\RESOUR~1\targets\CANVIEW4\lib\lld\libCANView4.a(TVP5150.o)
 .debug_frame   0x0000cde0      0x104 C:\PROGRA~2\VT3_8920\VT3\RESOUR~1\targets\CANVIEW4\lib\lld\libCANView4.a(USB_Utilities.o)
 .debug_frame   0x0000cee4       0x60 C:\PROGRA~2\VT3_8920\VT3\RESOUR~1\targets\CANVIEW4\lib\lld\libCANView4.a(Utilities.o)
 .debug_frame   0x0000cf44      0x994 C:\PROGRA~2\VT3_8920\VT3\RESOUR~1\targets\CANVIEW4\lib\lld\libCANView4.a(ff.o)
 .debug_frame   0x0000d8d8      0x744 C:\PROGRA~2\VT3_8920\VT3\RESOUR~1\targets\CANVIEW4\lib\lld\libCANView4.a(cmsis_os.o)
 .debug_frame   0x0000e01c      0x108 C:\PROGRA~2\VT3_8920\VT3\RESOUR~1\targets\CANVIEW4\lib\lld\libCANView4.a(heap_4.o)
 .debug_frame   0x0000e124      0x19c C:\PROGRA~2\VT3_8920\VT3\RESOUR~1\targets\CANVIEW4\lib\lld\libCANView4.a(port.o)
 .debug_frame   0x0000e2c0      0x428 C:\PROGRA~2\VT3_8920\VT3\RESOUR~1\targets\CANVIEW4\lib\lld\libCANView4.a(queue.o)
 .debug_frame   0x0000e6e8      0x7a4 C:\PROGRA~2\VT3_8920\VT3\RESOUR~1\targets\CANVIEW4\lib\lld\libCANView4.a(tasks.o)
 .debug_frame   0x0000ee8c      0x304 C:\PROGRA~2\VT3_8920\VT3\RESOUR~1\targets\CANVIEW4\lib\lld\libCANView4.a(usbh_core.o)
 .debug_frame   0x0000f190      0x268 C:\PROGRA~2\VT3_8920\VT3\RESOUR~1\targets\CANVIEW4\lib\lld\libCANView4.a(usbh_ctlreq.o)
 .debug_frame   0x0000f3f8      0x154 C:\PROGRA~2\VT3_8920\VT3\RESOUR~1\targets\CANVIEW4\lib\lld\libCANView4.a(usbh_ioreq.o)
 .debug_frame   0x0000f54c       0xcc C:\PROGRA~2\VT3_8920\VT3\RESOUR~1\targets\CANVIEW4\lib\lld\libCANView4.a(usbh_pipes.o)
 .debug_frame   0x0000f618       0x4c C:\PROGRA~2\VT3_8920\VT3\RESOUR~1\targets\CANVIEW4\lib\lld\libCANView4.a(fatfs.o)
 .debug_frame   0x0000f664      0x3dc C:\PROGRA~2\VT3_8920\VT3\RESOUR~1\targets\CANVIEW4\lib\lld\libCANView4.a(stm32f4xx_hal_msp.o)
 .debug_frame   0x0000fa40       0x70 C:\PROGRA~2\VT3_8920\VT3\RESOUR~1\targets\CANVIEW4\lib\lld\libCANView4.a(usb_host.o)
 .debug_frame   0x0000fab0      0x3fc C:\PROGRA~2\VT3_8920\VT3\RESOUR~1\targets\CANVIEW4\lib\lld\libCANView4.a(stm32f4xx_hal_adc.o)
 .debug_frame   0x0000feac      0x250 C:\PROGRA~2\VT3_8920\VT3\RESOUR~1\targets\CANVIEW4\lib\lld\libCANView4.a(stm32f4xx_hal_adc_ex.o)
 .debug_frame   0x000100fc      0x2a8 C:\PROGRA~2\VT3_8920\VT3\RESOUR~1\targets\CANVIEW4\lib\lld\libCANView4.a(stm32f4xx_hal_can.o)
 .debug_frame   0x000103a4      0x2e8 C:\PROGRA~2\VT3_8920\VT3\RESOUR~1\targets\CANVIEW4\lib\lld\libCANView4.a(stm32f4xx_hal_dma2d.o)
 .debug_frame   0x0001068c      0x26c C:\PROGRA~2\VT3_8920\VT3\RESOUR~1\targets\CANVIEW4\lib\lld\libCANView4.a(stm32f4xx_hal_flash.o)
 .debug_frame   0x000108f8      0x378 C:\PROGRA~2\VT3_8920\VT3\RESOUR~1\targets\CANVIEW4\lib\lld\libCANView4.a(stm32f4xx_hal_flash_ex.o)
 .debug_frame   0x00010c70      0x850 C:\PROGRA~2\VT3_8920\VT3\RESOUR~1\targets\CANVIEW4\lib\lld\libCANView4.a(stm32f4xx_hal_i2c.o)
 .debug_frame   0x000114c0      0x3b0 C:\PROGRA~2\VT3_8920\VT3\RESOUR~1\targets\CANVIEW4\lib\lld\libCANView4.a(stm32f4xx_hal_ltdc.o)
 .debug_frame   0x00011870      0x274 C:\PROGRA~2\VT3_8920\VT3\RESOUR~1\targets\CANVIEW4\lib\lld\libCANView4.a(stm32f4xx_hal_pwr.o)
 .debug_frame   0x00011ae4      0x158 C:\PROGRA~2\VT3_8920\VT3\RESOUR~1\targets\CANVIEW4\lib\lld\libCANView4.a(stm32f4xx_hal_pwr_ex.o)
 .debug_frame   0x00011c3c       0x80 C:\PROGRA~2\VT3_8920\VT3\RESOUR~1\targets\CANVIEW4\lib\lld\libCANView4.a(stm32f4xx_hal_rcc_ex.o)
 .debug_frame   0x00011cbc      0x2b8 C:\PROGRA~2\VT3_8920\VT3\RESOUR~1\targets\CANVIEW4\lib\lld\libCANView4.a(stm32f4xx_hal_rtc.o)
 .debug_frame   0x00011f74      0x544 C:\PROGRA~2\VT3_8920\VT3\RESOUR~1\targets\CANVIEW4\lib\lld\libCANView4.a(stm32f4xx_hal_rtc_ex.o)
 .debug_frame   0x000124b8      0x32c C:\PROGRA~2\VT3_8920\VT3\RESOUR~1\targets\CANVIEW4\lib\lld\libCANView4.a(stm32f4xx_hal_sdram.o)
 .debug_frame   0x000127e4      0x558 C:\PROGRA~2\VT3_8920\VT3\RESOUR~1\targets\CANVIEW4\lib\lld\libCANView4.a(stm32f4xx_hal_spi.o)
 .debug_frame   0x00012d3c      0x440 C:\PROGRA~2\VT3_8920\VT3\RESOUR~1\targets\CANVIEW4\lib\lld\libCANView4.a(stm32f4xx_ll_fmc.o)
 .debug_frame   0x0001317c       0x5c C:\PROGRA~2\VT3_8920\VT3\RESOUR~1\targets\CANVIEW4\lib\lld\libCANView4.a(CRC32.o)
 .debug_frame   0x000131d8       0x60 C:\PROGRA~2\VT3_8920\VT3\RESOUR~1\targets\CANVIEW4\lib\lld\libCANView4.a(ccsbcs.o)
 .debug_frame   0x00013238       0xec C:\PROGRA~2\VT3_8920\VT3\RESOUR~1\targets\CANVIEW4\lib\lld\libCANView4.a(diskio.o)
 .debug_frame   0x00013324       0xc8 C:\PROGRA~2\VT3_8920\VT3\RESOUR~1\targets\CANVIEW4\lib\lld\libCANView4.a(ff_gen_drv.o)
 .debug_frame   0x000133ec       0xd0 C:\PROGRA~2\VT3_8920\VT3\RESOUR~1\targets\CANVIEW4\lib\lld\libCANView4.a(usbh_diskio.o)
 .debug_frame   0x000134bc       0xd8 C:\PROGRA~2\VT3_8920\VT3\RESOUR~1\targets\CANVIEW4\lib\lld\libCANView4.a(list.o)
 .debug_frame   0x00013594      0x1e4 C:\PROGRA~2\VT3_8920\VT3\RESOUR~1\targets\CANVIEW4\lib\lld\libCANView4.a(usbh_msc.o)
 .debug_frame   0x00013778       0xf0 C:\PROGRA~2\VT3_8920\VT3\RESOUR~1\targets\CANVIEW4\lib\lld\libCANView4.a(usbh_msc_bot.o)
 .debug_frame   0x00013868       0xe8 C:\PROGRA~2\VT3_8920\VT3\RESOUR~1\targets\CANVIEW4\lib\lld\libCANView4.a(usbh_msc_scsi.o)
 .debug_frame   0x00013950       0x3c c:/program files (x86)/gnu tools arm embedded/5.2 2015q4/bin/../lib/gcc/arm-none-eabi/5.2.1/../../../../arm-none-eabi/lib/armv7e-m/fpu\libm.a(lib_a-s_cos.o)
 .debug_frame   0x0001398c       0x3c c:/program files (x86)/gnu tools arm embedded/5.2 2015q4/bin/../lib/gcc/arm-none-eabi/5.2.1/../../../../arm-none-eabi/lib/armv7e-m/fpu\libm.a(lib_a-s_sin.o)
 .debug_frame   0x000139c8       0x38 c:/program files (x86)/gnu tools arm embedded/5.2 2015q4/bin/../lib/gcc/arm-none-eabi/5.2.1/../../../../arm-none-eabi/lib/armv7e-m/fpu\libm.a(lib_a-sf_tan.o)
 .debug_frame   0x00013a00       0x5c c:/program files (x86)/gnu tools arm embedded/5.2 2015q4/bin/../lib/gcc/arm-none-eabi/5.2.1/../../../../arm-none-eabi/lib/armv7e-m/fpu\libm.a(lib_a-w_acos.o)
 .debug_frame   0x00013a5c       0x5c c:/program files (x86)/gnu tools arm embedded/5.2 2015q4/bin/../lib/gcc/arm-none-eabi/5.2.1/../../../../arm-none-eabi/lib/armv7e-m/fpu\libm.a(lib_a-w_asin.o)
 .debug_frame   0x00013ab8       0x60 c:/program files (x86)/gnu tools arm embedded/5.2 2015q4/bin/../lib/gcc/arm-none-eabi/5.2.1/../../../../arm-none-eabi/lib/armv7e-m/fpu\libm.a(lib_a-w_pow.o)
 .debug_frame   0x00013b18       0x54 c:/program files (x86)/gnu tools arm embedded/5.2 2015q4/bin/../lib/gcc/arm-none-eabi/5.2.1/../../../../arm-none-eabi/lib/armv7e-m/fpu\libm.a(lib_a-wf_exp.o)
 .debug_frame   0x00013b6c       0x50 c:/program files (x86)/gnu tools arm embedded/5.2 2015q4/bin/../lib/gcc/arm-none-eabi/5.2.1/../../../../arm-none-eabi/lib/armv7e-m/fpu\libm.a(lib_a-wf_log.o)
 .debug_frame   0x00013bbc       0x50 c:/program files (x86)/gnu tools arm embedded/5.2 2015q4/bin/../lib/gcc/arm-none-eabi/5.2.1/../../../../arm-none-eabi/lib/armv7e-m/fpu\libm.a(lib_a-wf_log10.o)
 .debug_frame   0x00013c0c       0x50 c:/program files (x86)/gnu tools arm embedded/5.2 2015q4/bin/../lib/gcc/arm-none-eabi/5.2.1/../../../../arm-none-eabi/lib/armv7e-m/fpu\libm.a(lib_a-wf_pow.o)
 .debug_frame   0x00013c5c       0x50 c:/program files (x86)/gnu tools arm embedded/5.2 2015q4/bin/../lib/gcc/arm-none-eabi/5.2.1/../../../../arm-none-eabi/lib/armv7e-m/fpu\libm.a(lib_a-wf_sqrt.o)
 .debug_frame   0x00013cac       0x38 c:/program files (x86)/gnu tools arm embedded/5.2 2015q4/bin/../lib/gcc/arm-none-eabi/5.2.1/../../../../arm-none-eabi/lib/armv7e-m/fpu\libm.a(lib_a-e_acos.o)
 .debug_frame   0x00013ce4       0x58 c:/program files (x86)/gnu tools arm embedded/5.2 2015q4/bin/../lib/gcc/arm-none-eabi/5.2.1/../../../../arm-none-eabi/lib/armv7e-m/fpu\libm.a(lib_a-e_asin.o)
 .debug_frame   0x00013d3c       0x64 c:/program files (x86)/gnu tools arm embedded/5.2 2015q4/bin/../lib/gcc/arm-none-eabi/5.2.1/../../../../arm-none-eabi/lib/armv7e-m/fpu\libm.a(lib_a-e_pow.o)
 .debug_frame   0x00013da0       0x48 c:/program files (x86)/gnu tools arm embedded/5.2 2015q4/bin/../lib/gcc/arm-none-eabi/5.2.1/../../../../arm-none-eabi/lib/armv7e-m/fpu\libm.a(lib_a-e_rem_pio2.o)
 .debug_frame   0x00013de8       0x30 c:/program files (x86)/gnu tools arm embedded/5.2 2015q4/bin/../lib/gcc/arm-none-eabi/5.2.1/../../../../arm-none-eabi/lib/armv7e-m/fpu\libm.a(lib_a-e_sqrt.o)
 .debug_frame   0x00013e18       0x20 c:/program files (x86)/gnu tools arm embedded/5.2 2015q4/bin/../lib/gcc/arm-none-eabi/5.2.1/../../../../arm-none-eabi/lib/armv7e-m/fpu\libm.a(lib_a-ef_exp.o)
 .debug_frame   0x00013e38       0x4c c:/program files (x86)/gnu tools arm embedded/5.2 2015q4/bin/../lib/gcc/arm-none-eabi/5.2.1/../../../../arm-none-eabi/lib/armv7e-m/fpu\libm.a(lib_a-ef_log.o)
 .debug_frame   0x00013e84       0x64 c:/program files (x86)/gnu tools arm embedded/5.2 2015q4/bin/../lib/gcc/arm-none-eabi/5.2.1/../../../../arm-none-eabi/lib/armv7e-m/fpu\libm.a(lib_a-ef_log10.o)
 .debug_frame   0x00013ee8       0x80 c:/program files (x86)/gnu tools arm embedded/5.2 2015q4/bin/../lib/gcc/arm-none-eabi/5.2.1/../../../../arm-none-eabi/lib/armv7e-m/fpu\libm.a(lib_a-ef_pow.o)
 .debug_frame   0x00013f68       0x3c c:/program files (x86)/gnu tools arm embedded/5.2 2015q4/bin/../lib/gcc/arm-none-eabi/5.2.1/../../../../arm-none-eabi/lib/armv7e-m/fpu\libm.a(lib_a-ef_rem_pio2.o)
 .debug_frame   0x00013fa4       0x3c c:/program files (x86)/gnu tools arm embedded/5.2 2015q4/bin/../lib/gcc/arm-none-eabi/5.2.1/../../../../arm-none-eabi/lib/armv7e-m/fpu\libm.a(lib_a-ef_sqrt.o)
 .debug_frame   0x00013fe0       0x68 c:/program files (x86)/gnu tools arm embedded/5.2 2015q4/bin/../lib/gcc/arm-none-eabi/5.2.1/../../../../arm-none-eabi/lib/armv7e-m/fpu\libm.a(lib_a-k_cos.o)
 .debug_frame   0x00014048       0x50 c:/program files (x86)/gnu tools arm embedded/5.2 2015q4/bin/../lib/gcc/arm-none-eabi/5.2.1/../../../../arm-none-eabi/lib/armv7e-m/fpu\libm.a(lib_a-k_rem_pio2.o)
 .debug_frame   0x00014098       0x68 c:/program files (x86)/gnu tools arm embedded/5.2 2015q4/bin/../lib/gcc/arm-none-eabi/5.2.1/../../../../arm-none-eabi/lib/armv7e-m/fpu\libm.a(lib_a-k_sin.o)
 .debug_frame   0x00014100       0x5c c:/program files (x86)/gnu tools arm embedded/5.2 2015q4/bin/../lib/gcc/arm-none-eabi/5.2.1/../../../../arm-none-eabi/lib/armv7e-m/fpu\libm.a(lib_a-kf_rem_pio2.o)
 .debug_frame   0x0001415c       0x50 c:/program files (x86)/gnu tools arm embedded/5.2 2015q4/bin/../lib/gcc/arm-none-eabi/5.2.1/../../../../arm-none-eabi/lib/armv7e-m/fpu\libm.a(lib_a-kf_tan.o)
 .debug_frame   0x000141ac       0x20 c:/program files (x86)/gnu tools arm embedded/5.2 2015q4/bin/../lib/gcc/arm-none-eabi/5.2.1/../../../../arm-none-eabi/lib/armv7e-m/fpu\libm.a(lib_a-s_fabs.o)
 .debug_frame   0x000141cc       0x20 c:/program files (x86)/gnu tools arm embedded/5.2 2015q4/bin/../lib/gcc/arm-none-eabi/5.2.1/../../../../arm-none-eabi/lib/armv7e-m/fpu\libm.a(lib_a-s_finite.o)
 .debug_frame   0x000141ec       0x30 c:/program files (x86)/gnu tools arm embedded/5.2 2015q4/bin/../lib/gcc/arm-none-eabi/5.2.1/../../../../arm-none-eabi/lib/armv7e-m/fpu\libm.a(lib_a-s_floor.o)
 .debug_frame   0x0001421c       0x34 c:/program files (x86)/gnu tools arm embedded/5.2 2015q4/bin/../lib/gcc/arm-none-eabi/5.2.1/../../../../arm-none-eabi/lib/armv7e-m/fpu\libm.a(lib_a-s_fpclassify.o)
 .debug_frame   0x00014250       0x20 c:/program files (x86)/gnu tools arm embedded/5.2 2015q4/bin/../lib/gcc/arm-none-eabi/5.2.1/../../../../arm-none-eabi/lib/armv7e-m/fpu\libm.a(lib_a-s_matherr.o)
 .debug_frame   0x00014270       0x20 c:/program files (x86)/gnu tools arm embedded/5.2 2015q4/bin/../lib/gcc/arm-none-eabi/5.2.1/../../../../arm-none-eabi/lib/armv7e-m/fpu\libm.a(lib_a-s_nan.o)
 .debug_frame   0x00014290       0x3c c:/program files (x86)/gnu tools arm embedded/5.2 2015q4/bin/../lib/gcc/arm-none-eabi/5.2.1/../../../../arm-none-eabi/lib/armv7e-m/fpu\libm.a(lib_a-s_rint.o)
 .debug_frame   0x000142cc       0x2c c:/program files (x86)/gnu tools arm embedded/5.2 2015q4/bin/../lib/gcc/arm-none-eabi/5.2.1/../../../../arm-none-eabi/lib/armv7e-m/fpu\libm.a(lib_a-s_scalbn.o)
 .debug_frame   0x000142f8       0x20 c:/program files (x86)/gnu tools arm embedded/5.2 2015q4/bin/../lib/gcc/arm-none-eabi/5.2.1/../../../../arm-none-eabi/lib/armv7e-m/fpu\libm.a(lib_a-sf_fabs.o)
 .debug_frame   0x00014318       0x20 c:/program files (x86)/gnu tools arm embedded/5.2 2015q4/bin/../lib/gcc/arm-none-eabi/5.2.1/../../../../arm-none-eabi/lib/armv7e-m/fpu\libm.a(lib_a-sf_finite.o)
 .debug_frame   0x00014338       0x20 c:/program files (x86)/gnu tools arm embedded/5.2 2015q4/bin/../lib/gcc/arm-none-eabi/5.2.1/../../../../arm-none-eabi/lib/armv7e-m/fpu\libm.a(lib_a-sf_floor.o)
 .debug_frame   0x00014358       0x20 c:/program files (x86)/gnu tools arm embedded/5.2 2015q4/bin/../lib/gcc/arm-none-eabi/5.2.1/../../../../arm-none-eabi/lib/armv7e-m/fpu\libm.a(lib_a-sf_fpclassify.o)
 .debug_frame   0x00014378       0x20 c:/program files (x86)/gnu tools arm embedded/5.2 2015q4/bin/../lib/gcc/arm-none-eabi/5.2.1/../../../../arm-none-eabi/lib/armv7e-m/fpu\libm.a(lib_a-sf_nan.o)
 .debug_frame   0x00014398       0x44 c:/program files (x86)/gnu tools arm embedded/5.2 2015q4/bin/../lib/gcc/arm-none-eabi/5.2.1/../../../../arm-none-eabi/lib/armv7e-m/fpu\libm.a(lib_a-sf_scalbn.o)
 .debug_frame   0x000143dc       0x20 c:/program files (x86)/gnu tools arm embedded/5.2 2015q4/bin/../lib/gcc/arm-none-eabi/5.2.1/../../../../arm-none-eabi/lib/armv7e-m/fpu\libm.a(lib_a-s_copysign.o)
 .debug_frame   0x000143fc       0x20 c:/program files (x86)/gnu tools arm embedded/5.2 2015q4/bin/../lib/gcc/arm-none-eabi/5.2.1/../../../../arm-none-eabi/lib/armv7e-m/fpu\libm.a(lib_a-sf_copysign.o)
 .debug_frame   0x0001441c       0x20 c:/program files (x86)/gnu tools arm embedded/5.2 2015q4/bin/../lib/gcc/arm-none-eabi/5.2.1/../../../../arm-none-eabi/lib/armv7e-m/fpu\libc.a(lib_a-atof.o)
 .debug_frame   0x0001443c       0x30 c:/program files (x86)/gnu tools arm embedded/5.2 2015q4/bin/../lib/gcc/arm-none-eabi/5.2.1/../../../../arm-none-eabi/lib/armv7e-m/fpu\libc.a(lib_a-atoi.o)
 .debug_frame   0x0001446c       0x30 c:/program files (x86)/gnu tools arm embedded/5.2 2015q4/bin/../lib/gcc/arm-none-eabi/5.2.1/../../../../arm-none-eabi/lib/armv7e-m/fpu\libc.a(lib_a-atol.o)
 .debug_frame   0x0001449c       0x38 c:/program files (x86)/gnu tools arm embedded/5.2 2015q4/bin/../lib/gcc/arm-none-eabi/5.2.1/../../../../arm-none-eabi/lib/armv7e-m/fpu\libc.a(lib_a-bsearch.o)
 .debug_frame   0x000144d4       0x20 c:/program files (x86)/gnu tools arm embedded/5.2 2015q4/bin/../lib/gcc/arm-none-eabi/5.2.1/../../../../arm-none-eabi/lib/armv7e-m/fpu\libc.a(lib_a-errno.o)
 .debug_frame   0x000144f4       0x28 c:/program files (x86)/gnu tools arm embedded/5.2 2015q4/bin/../lib/gcc/arm-none-eabi/5.2.1/../../../../arm-none-eabi/lib/armv7e-m/fpu\libc.a(lib_a-exit.o)
 .debug_frame   0x0001451c       0x44 c:/program files (x86)/gnu tools arm embedded/5.2 2015q4/bin/../lib/gcc/arm-none-eabi/5.2.1/../../../../arm-none-eabi/lib/armv7e-m/fpu\libc.a(lib_a-fclose.o)
 .debug_frame   0x00014560       0x6c c:/program files (x86)/gnu tools arm embedded/5.2 2015q4/bin/../lib/gcc/arm-none-eabi/5.2.1/../../../../arm-none-eabi/lib/armv7e-m/fpu\libc.a(lib_a-fflush.o)
 .debug_frame   0x000145cc      0x124 c:/program files (x86)/gnu tools arm embedded/5.2 2015q4/bin/../lib/gcc/arm-none-eabi/5.2.1/../../../../arm-none-eabi/lib/armv7e-m/fpu\libc.a(lib_a-findfp.o)
 .debug_frame   0x000146f0       0x54 c:/program files (x86)/gnu tools arm embedded/5.2 2015q4/bin/../lib/gcc/arm-none-eabi/5.2.1/../../../../arm-none-eabi/lib/armv7e-m/fpu\libc.a(lib_a-fopen.o)
 .debug_frame   0x00014744       0x6c c:/program files (x86)/gnu tools arm embedded/5.2 2015q4/bin/../lib/gcc/arm-none-eabi/5.2.1/../../../../arm-none-eabi/lib/armv7e-m/fpu\libc.a(lib_a-fread.o)
 .debug_frame   0x000147b0       0x74 c:/program files (x86)/gnu tools arm embedded/5.2 2015q4/bin/../lib/gcc/arm-none-eabi/5.2.1/../../../../arm-none-eabi/lib/armv7e-m/fpu\libc.a(lib_a-freer.o)
 .debug_frame   0x00014824       0x3c c:/program files (x86)/gnu tools arm embedded/5.2 2015q4/bin/../lib/gcc/arm-none-eabi/5.2.1/../../../../arm-none-eabi/lib/armv7e-m/fpu\libc.a(lib_a-fseek.o)
 .debug_frame   0x00014860       0x68 c:/program files (x86)/gnu tools arm embedded/5.2 2015q4/bin/../lib/gcc/arm-none-eabi/5.2.1/../../../../arm-none-eabi/lib/armv7e-m/fpu\libc.a(lib_a-fseeko.o)
 .debug_frame   0x000148c8       0x2c c:/program files (x86)/gnu tools arm embedded/5.2 2015q4/bin/../lib/gcc/arm-none-eabi/5.2.1/../../../../arm-none-eabi/lib/armv7e-m/fpu\libc.a(lib_a-fstatr.o)
 .debug_frame   0x000148f4       0x54 c:/program files (x86)/gnu tools arm embedded/5.2 2015q4/bin/../lib/gcc/arm-none-eabi/5.2.1/../../../../arm-none-eabi/lib/armv7e-m/fpu\libc.a(lib_a-fwalk.o)
 .debug_frame   0x00014948       0x2c c:/program files (x86)/gnu tools arm embedded/5.2 2015q4/bin/../lib/gcc/arm-none-eabi/5.2.1/../../../../arm-none-eabi/lib/armv7e-m/fpu\libc.a(lib_a-init.o)
 .debug_frame   0x00014974       0x20 c:/program files (x86)/gnu tools arm embedded/5.2 2015q4/bin/../lib/gcc/arm-none-eabi/5.2.1/../../../../arm-none-eabi/lib/armv7e-m/fpu\libc.a(lib_a-isalnum.o)
 .debug_frame   0x00014994       0x20 c:/program files (x86)/gnu tools arm embedded/5.2 2015q4/bin/../lib/gcc/arm-none-eabi/5.2.1/../../../../arm-none-eabi/lib/armv7e-m/fpu\libc.a(lib_a-isalpha.o)
 .debug_frame   0x000149b4       0x20 c:/program files (x86)/gnu tools arm embedded/5.2 2015q4/bin/../lib/gcc/arm-none-eabi/5.2.1/../../../../arm-none-eabi/lib/armv7e-m/fpu\libc.a(lib_a-islower.o)
 .debug_frame   0x000149d4       0x20 c:/program files (x86)/gnu tools arm embedded/5.2 2015q4/bin/../lib/gcc/arm-none-eabi/5.2.1/../../../../arm-none-eabi/lib/armv7e-m/fpu\libc.a(lib_a-isspace.o)
 .debug_frame   0x000149f4       0x20 c:/program files (x86)/gnu tools arm embedded/5.2 2015q4/bin/../lib/gcc/arm-none-eabi/5.2.1/../../../../arm-none-eabi/lib/armv7e-m/fpu\libc.a(lib_a-isupper.o)
 .debug_frame   0x00014a14       0x20 c:/program files (x86)/gnu tools arm embedded/5.2 2015q4/bin/../lib/gcc/arm-none-eabi/5.2.1/../../../../arm-none-eabi/lib/armv7e-m/fpu\libc.a(lib_a-isxdigit.o)
 .debug_frame   0x00014a34       0x48 c:/program files (x86)/gnu tools arm embedded/5.2 2015q4/bin/../lib/gcc/arm-none-eabi/5.2.1/../../../../arm-none-eabi/lib/armv7e-m/fpu\libc.a(lib_a-makebuf.o)
 .debug_frame   0x00014a7c       0x30 c:/program files (x86)/gnu tools arm embedded/5.2 2015q4/bin/../lib/gcc/arm-none-eabi/5.2.1/../../../../arm-none-eabi/lib/armv7e-m/fpu\libc.a(lib_a-malloc.o)
 .debug_frame   0x00014aac       0x58 c:/program files (x86)/gnu tools arm embedded/5.2 2015q4/bin/../lib/gcc/arm-none-eabi/5.2.1/../../../../arm-none-eabi/lib/armv7e-m/fpu\libc.a(lib_a-mallocr.o)
 .debug_frame   0x00014b04       0x38 c:/program files (x86)/gnu tools arm embedded/5.2 2015q4/bin/../lib/gcc/arm-none-eabi/5.2.1/../../../../arm-none-eabi/lib/armv7e-m/fpu\libc.a(lib_a-memcmp.o)
 .debug_frame   0x00014b3c       0x34 c:/program files (x86)/gnu tools arm embedded/5.2 2015q4/bin/../lib/gcc/arm-none-eabi/5.2.1/../../../../arm-none-eabi/lib/armv7e-m/fpu\libc.a(lib_a-memset.o)
 .debug_frame   0x00014b70       0x30 c:/program files (x86)/gnu tools arm embedded/5.2 2015q4/bin/../lib/gcc/arm-none-eabi/5.2.1/../../../../arm-none-eabi/lib/armv7e-m/fpu\libc.a(lib_a-mlock.o)
 .debug_frame   0x00014ba0       0x2c c:/program files (x86)/gnu tools arm embedded/5.2 2015q4/bin/../lib/gcc/arm-none-eabi/5.2.1/../../../../arm-none-eabi/lib/armv7e-m/fpu\libc.a(lib_a-openr.o)
 .debug_frame   0x00014bcc       0x74 c:/program files (x86)/gnu tools arm embedded/5.2 2015q4/bin/../lib/gcc/arm-none-eabi/5.2.1/../../../../arm-none-eabi/lib/armv7e-m/fpu\libc.a(lib_a-printf.o)
 .debug_frame   0x00014c40       0x3c c:/program files (x86)/gnu tools arm embedded/5.2 2015q4/bin/../lib/gcc/arm-none-eabi/5.2.1/../../../../arm-none-eabi/lib/armv7e-m/fpu\libc.a(lib_a-rand.o)
 .debug_frame   0x00014c7c       0x58 c:/program files (x86)/gnu tools arm embedded/5.2 2015q4/bin/../lib/gcc/arm-none-eabi/5.2.1/../../../../arm-none-eabi/lib/armv7e-m/fpu\libc.a(lib_a-reent.o)
 .debug_frame   0x00014cd4       0x40 c:/program files (x86)/gnu tools arm embedded/5.2 2015q4/bin/../lib/gcc/arm-none-eabi/5.2.1/../../../../arm-none-eabi/lib/armv7e-m/fpu\libc.a(lib_a-refill.o)
 .debug_frame   0x00014d14       0x2c c:/program files (x86)/gnu tools arm embedded/5.2 2015q4/bin/../lib/gcc/arm-none-eabi/5.2.1/../../../../arm-none-eabi/lib/armv7e-m/fpu\libc.a(lib_a-sbrkr.o)
 .debug_frame   0x00014d40       0x84 c:/program files (x86)/gnu tools arm embedded/5.2 2015q4/bin/../lib/gcc/arm-none-eabi/5.2.1/../../../../arm-none-eabi/lib/armv7e-m/fpu\libc.a(lib_a-sprintf.o)
 .debug_frame   0x00014dc4       0x88 c:/program files (x86)/gnu tools arm embedded/5.2 2015q4/bin/../lib/gcc/arm-none-eabi/5.2.1/../../../../arm-none-eabi/lib/armv7e-m/fpu\libc.a(lib_a-stdio.o)
 .debug_frame   0x00014e4c       0x28 c:/program files (x86)/gnu tools arm embedded/5.2 2015q4/bin/../lib/gcc/arm-none-eabi/5.2.1/../../../../arm-none-eabi/lib/armv7e-m/fpu\libc.a(lib_a-strcat.o)
 .debug_frame   0x00014e74       0x4c c:/program files (x86)/gnu tools arm embedded/5.2 2015q4/bin/../lib/gcc/arm-none-eabi/5.2.1/../../../../arm-none-eabi/lib/armv7e-m/fpu\libc.a(lib_a-strchr.o)
 .debug_frame   0x00014ec0       0x68 c:/program files (x86)/gnu tools arm embedded/5.2 2015q4/bin/../lib/gcc/arm-none-eabi/5.2.1/../../../../arm-none-eabi/lib/armv7e-m/fpu\libc.a(lib_a-strcmp.o)
 .debug_frame   0x00014f28       0x20 c:/program files (x86)/gnu tools arm embedded/5.2 2015q4/bin/../lib/gcc/arm-none-eabi/5.2.1/../../../../arm-none-eabi/lib/armv7e-m/fpu\libc.a(lib_a-strcpy.o)
 .debug_frame   0x00014f48       0x2c c:/program files (x86)/gnu tools arm embedded/5.2 2015q4/bin/../lib/gcc/arm-none-eabi/5.2.1/../../../../arm-none-eabi/lib/armv7e-m/fpu\libc.a(lib_a-strlcat.o)
 .debug_frame   0x00014f74       0x34 c:/program files (x86)/gnu tools arm embedded/5.2 2015q4/bin/../lib/gcc/arm-none-eabi/5.2.1/../../../../arm-none-eabi/lib/armv7e-m/fpu\libc.a(lib_a-strncpy.o)
 .debug_frame   0x00014fa8       0xa4 c:/program files (x86)/gnu tools arm embedded/5.2 2015q4/bin/../lib/gcc/arm-none-eabi/5.2.1/../../../../arm-none-eabi/lib/armv7e-m/fpu\libc.a(lib_a-strtod.o)
 .debug_frame   0x0001504c       0x54 c:/program files (x86)/gnu tools arm embedded/5.2 2015q4/bin/../lib/gcc/arm-none-eabi/5.2.1/../../../../arm-none-eabi/lib/armv7e-m/fpu\libc.a(lib_a-strtol.o)
 .debug_frame   0x000150a0       0x40 c:/program files (x86)/gnu tools arm embedded/5.2 2015q4/bin/../lib/gcc/arm-none-eabi/5.2.1/../../../../arm-none-eabi/lib/armv7e-m/fpu\libc.a(lib_a-svfprintf.o)
 .debug_frame   0x000150e0       0x88 c:/program files (x86)/gnu tools arm embedded/5.2 2015q4/bin/../lib/gcc/arm-none-eabi/5.2.1/../../../../arm-none-eabi/lib/armv7e-m/fpu\libc.a(lib_a-vfprintf.o)
 .debug_frame   0x00015168       0x2c c:/program files (x86)/gnu tools arm embedded/5.2 2015q4/bin/../lib/gcc/arm-none-eabi/5.2.1/../../../../arm-none-eabi/lib/armv7e-m/fpu\libc.a(lib_a-writer.o)
 .debug_frame   0x00015194       0x2c c:/program files (x86)/gnu tools arm embedded/5.2 2015q4/bin/../lib/gcc/arm-none-eabi/5.2.1/../../../../arm-none-eabi/lib/armv7e-m/fpu\libc.a(lib_a-wsetup.o)
 .debug_frame   0x000151c0       0x50 c:/program files (x86)/gnu tools arm embedded/5.2 2015q4/bin/../lib/gcc/arm-none-eabi/5.2.1/../../../../arm-none-eabi/lib/armv7e-m/fpu\libc.a(lib_a-__call_atexit.o)
 .debug_frame   0x00015210       0x20 c:/program files (x86)/gnu tools arm embedded/5.2 2015q4/bin/../lib/gcc/arm-none-eabi/5.2.1/../../../../arm-none-eabi/lib/armv7e-m/fpu\libc.a(lib_a-atexit.o)
 .debug_frame   0x00015230       0x2c c:/program files (x86)/gnu tools arm embedded/5.2 2015q4/bin/../lib/gcc/arm-none-eabi/5.2.1/../../../../arm-none-eabi/lib/armv7e-m/fpu\libc.a(lib_a-closer.o)
 .debug_frame   0x0001525c       0x88 c:/program files (x86)/gnu tools arm embedded/5.2 2015q4/bin/../lib/gcc/arm-none-eabi/5.2.1/../../../../arm-none-eabi/lib/armv7e-m/fpu\libc.a(lib_a-dtoa.o)
 .debug_frame   0x000152e4       0x34 c:/program files (x86)/gnu tools arm embedded/5.2 2015q4/bin/../lib/gcc/arm-none-eabi/5.2.1/../../../../arm-none-eabi/lib/armv7e-m/fpu\libc.a(lib_a-fini.o)
 .debug_frame   0x00015318       0x38 c:/program files (x86)/gnu tools arm embedded/5.2 2015q4/bin/../lib/gcc/arm-none-eabi/5.2.1/../../../../arm-none-eabi/lib/armv7e-m/fpu\libc.a(lib_a-flags.o)
 .debug_frame   0x00015350       0x84 c:/program files (x86)/gnu tools arm embedded/5.2 2015q4/bin/../lib/gcc/arm-none-eabi/5.2.1/../../../../arm-none-eabi/lib/armv7e-m/fpu\libc.a(lib_a-gdtoa-gethex.o)
 .debug_frame   0x000153d4       0x70 c:/program files (x86)/gnu tools arm embedded/5.2 2015q4/bin/../lib/gcc/arm-none-eabi/5.2.1/../../../../arm-none-eabi/lib/armv7e-m/fpu\libc.a(lib_a-gdtoa-hexnan.o)
 .debug_frame   0x00015444       0x2c c:/program files (x86)/gnu tools arm embedded/5.2 2015q4/bin/../lib/gcc/arm-none-eabi/5.2.1/../../../../arm-none-eabi/lib/armv7e-m/fpu\libc.a(lib_a-isattyr.o)
 .debug_frame   0x00015470       0x9c c:/program files (x86)/gnu tools arm embedded/5.2 2015q4/bin/../lib/gcc/arm-none-eabi/5.2.1/../../../../arm-none-eabi/lib/armv7e-m/fpu\libc.a(lib_a-locale.o)
 .debug_frame   0x0001550c       0x2c c:/program files (x86)/gnu tools arm embedded/5.2 2015q4/bin/../lib/gcc/arm-none-eabi/5.2.1/../../../../arm-none-eabi/lib/armv7e-m/fpu\libc.a(lib_a-lseekr.o)
 .debug_frame   0x00015538      0x264 c:/program files (x86)/gnu tools arm embedded/5.2 2015q4/bin/../lib/gcc/arm-none-eabi/5.2.1/../../../../arm-none-eabi/lib/armv7e-m/fpu\libc.a(lib_a-mprec.o)
 .debug_frame   0x0001579c       0x2c c:/program files (x86)/gnu tools arm embedded/5.2 2015q4/bin/../lib/gcc/arm-none-eabi/5.2.1/../../../../arm-none-eabi/lib/armv7e-m/fpu\libc.a(lib_a-readr.o)
 .debug_frame   0x000157c8       0x54 c:/program files (x86)/gnu tools arm embedded/5.2 2015q4/bin/../lib/gcc/arm-none-eabi/5.2.1/../../../../arm-none-eabi/lib/armv7e-m/fpu\libc.a(lib_a-strncmp.o)
 .debug_frame   0x0001581c       0x78 c:/program files (x86)/gnu tools arm embedded/5.2 2015q4/bin/../lib/gcc/arm-none-eabi/5.2.1/../../../../arm-none-eabi/lib/armv7e-m/fpu\libc.a(lib_a-svfiprintf.o)
 .debug_frame   0x00015894       0xc8 c:/program files (x86)/gnu tools arm embedded/5.2 2015q4/bin/../lib/gcc/arm-none-eabi/5.2.1/../../../../arm-none-eabi/lib/armv7e-m/fpu\libc.a(lib_a-vfiprintf.o)
 .debug_frame   0x0001595c       0x34 c:/program files (x86)/gnu tools arm embedded/5.2 2015q4/bin/../lib/gcc/arm-none-eabi/5.2.1/../../../../arm-none-eabi/lib/armv7e-m/fpu\libc.a(lib_a-__atexit.o)
 .debug_frame   0x00015990       0x28 c:/program files (x86)/gnu tools arm embedded/5.2 2015q4/bin/../lib/gcc/arm-none-eabi/5.2.1/../../../../arm-none-eabi/lib/armv7e-m/fpu\libc.a(lib_a-callocr.o)
 .debug_frame   0x000159b8       0x88 c:/program files (x86)/gnu tools arm embedded/5.2 2015q4/bin/../lib/gcc/arm-none-eabi/5.2.1/../../../../arm-none-eabi/lib/armv7e-m/fpu\libc.a(lib_a-fputwc.o)
 .debug_frame   0x00015a40       0x68 c:/program files (x86)/gnu tools arm embedded/5.2 2015q4/bin/../lib/gcc/arm-none-eabi/5.2.1/../../../../arm-none-eabi/lib/armv7e-m/fpu\libc.a(lib_a-fvwrite.o)
 .debug_frame   0x00015aa8       0x30 c:/program files (x86)/gnu tools arm embedded/5.2 2015q4/bin/../lib/gcc/arm-none-eabi/5.2.1/../../../../arm-none-eabi/lib/armv7e-m/fpu\libc.a(lib_a-memmove.o)
 .debug_frame   0x00015ad8       0x60 c:/program files (x86)/gnu tools arm embedded/5.2 2015q4/bin/../lib/gcc/arm-none-eabi/5.2.1/../../../../arm-none-eabi/lib/armv7e-m/fpu\libc.a(lib_a-reallocr.o)
 .debug_frame   0x00015b38       0x40 c:/program files (x86)/gnu tools arm embedded/5.2 2015q4/bin/../lib/gcc/arm-none-eabi/5.2.1/../../../../arm-none-eabi/lib/armv7e-m/fpu\libc.a(lib_a-wbuf.o)
 .debug_frame   0x00015b78       0x60 c:/program files (x86)/gnu tools arm embedded/5.2 2015q4/bin/../lib/gcc/arm-none-eabi/5.2.1/../../../../arm-none-eabi/lib/armv7e-m/fpu\libc.a(lib_a-wcrtomb.o)
 .debug_frame   0x00015bd8       0x48 c:/program files (x86)/gnu tools arm embedded/5.2 2015q4/bin/../lib/gcc/arm-none-eabi/5.2.1/../../../../arm-none-eabi/lib/armv7e-m/fpu\libc.a(lib_a-wctomb_r.o)
 .debug_frame   0x00015c20       0x2c c:/program files (x86)/gnu tools arm embedded/5.2 2015q4/bin/../lib/gcc/arm-none-eabi/5.2.1/armv7e-m/fpu\libgcc.a(_aeabi_uldivmod.o)
 .debug_frame   0x00015c4c       0x34 c:/program files (x86)/gnu tools arm embedded/5.2 2015q4/bin/../lib/gcc/arm-none-eabi/5.2.1/armv7e-m/fpu\libgcc.a(_udivmoddi4.o)
 .debug_frame   0x00015c80       0x20 c:/program files (x86)/gnu tools arm embedded/5.2 2015q4/bin/../lib/gcc/arm-none-eabi/5.2.1/../../../../arm-none-eabi/lib/armv7e-m/fpu\libnosys.a(close.o)
 .debug_frame   0x00015ca0       0x20 c:/program files (x86)/gnu tools arm embedded/5.2 2015q4/bin/../lib/gcc/arm-none-eabi/5.2.1/../../../../arm-none-eabi/lib/armv7e-m/fpu\libnosys.a(fstat.o)
 .debug_frame   0x00015cc0       0x20 c:/program files (x86)/gnu tools arm embedded/5.2 2015q4/bin/../lib/gcc/arm-none-eabi/5.2.1/../../../../arm-none-eabi/lib/armv7e-m/fpu\libnosys.a(isatty.o)
 .debug_frame   0x00015ce0       0x20 c:/program files (x86)/gnu tools arm embedded/5.2 2015q4/bin/../lib/gcc/arm-none-eabi/5.2.1/../../../../arm-none-eabi/lib/armv7e-m/fpu\libnosys.a(lseek.o)
 .debug_frame   0x00015d00       0x20 c:/program files (x86)/gnu tools arm embedded/5.2 2015q4/bin/../lib/gcc/arm-none-eabi/5.2.1/../../../../arm-none-eabi/lib/armv7e-m/fpu\libnosys.a(open.o)
 .debug_frame   0x00015d20       0x20 c:/program files (x86)/gnu tools arm embedded/5.2 2015q4/bin/../lib/gcc/arm-none-eabi/5.2.1/../../../../arm-none-eabi/lib/armv7e-m/fpu\libnosys.a(read.o)
 .debug_frame   0x00015d40       0x20 c:/program files (x86)/gnu tools arm embedded/5.2 2015q4/bin/../lib/gcc/arm-none-eabi/5.2.1/../../../../arm-none-eabi/lib/armv7e-m/fpu\libnosys.a(write.o)
 .debug_frame   0x00015d60       0x20 c:/program files (x86)/gnu tools arm embedded/5.2 2015q4/bin/../lib/gcc/arm-none-eabi/5.2.1/../../../../arm-none-eabi/lib/armv7e-m/fpu\libnosys.a(_exit.o)

.debug_loc      0x00000000     0x8327
 .debug_loc     0x00000000      0xee3 C:\PROGRA~2\VT3_8920\VT3\RESOUR~1\targets\CANVIEW4\lib\lld\libCANView4.a(Camera.o)
 .debug_loc     0x00000ee3     0x7444 C:\PROGRA~2\VT3_8920\VT3\RESOUR~1\targets\CANVIEW4\lib\lld\libCANView4.a(Display_lib.o)

.stab           0x00000000       0xb4
 .stab          0x00000000       0x24 c:/program files (x86)/gnu tools arm embedded/5.2 2015q4/bin/../lib/gcc/arm-none-eabi/5.2.1/../../../../arm-none-eabi/lib/armv7e-m/fpu\libnosys.a(close.o)
 .stab          0x00000024       0x18 c:/program files (x86)/gnu tools arm embedded/5.2 2015q4/bin/../lib/gcc/arm-none-eabi/5.2.1/../../../../arm-none-eabi/lib/armv7e-m/fpu\libnosys.a(fstat.o)
                                 0x24 (size before relaxing)
 .stab          0x0000003c       0x18 c:/program files (x86)/gnu tools arm embedded/5.2 2015q4/bin/../lib/gcc/arm-none-eabi/5.2.1/../../../../arm-none-eabi/lib/armv7e-m/fpu\libnosys.a(isatty.o)
                                 0x24 (size before relaxing)
 .stab          0x00000054       0x18 c:/program files (x86)/gnu tools arm embedded/5.2 2015q4/bin/../lib/gcc/arm-none-eabi/5.2.1/../../../../arm-none-eabi/lib/armv7e-m/fpu\libnosys.a(lseek.o)
                                 0x24 (size before relaxing)
 .stab          0x0000006c       0x18 c:/program files (x86)/gnu tools arm embedded/5.2 2015q4/bin/../lib/gcc/arm-none-eabi/5.2.1/../../../../arm-none-eabi/lib/armv7e-m/fpu\libnosys.a(open.o)
                                 0x24 (size before relaxing)
 .stab          0x00000084       0x18 c:/program files (x86)/gnu tools arm embedded/5.2 2015q4/bin/../lib/gcc/arm-none-eabi/5.2.1/../../../../arm-none-eabi/lib/armv7e-m/fpu\libnosys.a(read.o)
                                 0x24 (size before relaxing)
 .stab          0x0000009c       0x18 c:/program files (x86)/gnu tools arm embedded/5.2 2015q4/bin/../lib/gcc/arm-none-eabi/5.2.1/../../../../arm-none-eabi/lib/armv7e-m/fpu\libnosys.a(write.o)
                                 0x24 (size before relaxing)

.stabstr        0x00000000      0x181
 .stabstr       0x00000000      0x181 c:/program files (x86)/gnu tools arm embedded/5.2 2015q4/bin/../lib/gcc/arm-none-eabi/5.2.1/../../../../arm-none-eabi/lib/armv7e-m/fpu\libnosys.a(close.o)
