(dp1
VC:\u005cUsers\u005cashlc00\u005cDocuments\u005cHenkel\u005cHenkel_RobotLeveling_v1.0.1\u005ccode\u005cCANVIEW4\u005cvt3_code\u005cvt3_palette.h
p2
S'c55867d1a0cd24c7eb0daa1e0fbe2da9'
p3
sVC:\u005cUsers\u005cashlc00\u005cDocuments\u005cHenkel\u005cHenkel_RobotLeveling_v1.0.1\u005ccode\u005cCANVIEW4\u005cvt3_code\u005cvt3_Event__ScreenFrame.c
p4
S'dc5d53929dde8c5246a2d56264433552'
p5
sVC:\u005cUsers\u005cashlc00\u005cDocuments\u005cHenkel\u005cHenkel_RobotLeveling_v1.0.1\u005ccode\u005cCANVIEW4\u005cvt3_code\u005cvt3_BMP__Green_0_0_argb8888.h
p6
S'00f8bbe6fc6a54171065a908e18f1dee'
p7
sVC:\u005cUsers\u005cashlc00\u005cDocuments\u005cHenkel\u005cHenkel_RobotLeveling_v1.0.1\u005ccode\u005cCANVIEW4\u005cvt3_code\u005cvt3_Event__ScreenFrame.h
p8
S'58f80c773b31508a09fa8040bd564d82'
p9
sVC:\u005cUsers\u005cashlc00\u005cDocuments\u005cHenkel\u005cHenkel_RobotLeveling_v1.0.1\u005ccode\u005cCANVIEW4\u005cvt3_code\u005cvt3_POU__ForceUpdate.h
p10
S'762b469c7d880af3a889f78ccf55bae6'
p11
sVC:\u005cUsers\u005cashlc00\u005cDocuments\u005cHenkel\u005cHenkel_RobotLeveling_v1.0.1\u005ccode\u005cCANVIEW4\u005cvt3_code\u005cvt3_palette.c
p12
S'ba9f66d8febe7598c9cc56166b76101a'
p13
sVC:\u005cUsers\u005cashlc00\u005cDocuments\u005cHenkel\u005cHenkel_RobotLeveling_v1.0.1\u005ccode\u005cCANVIEW4\u005cvt3_code\u005cvt3_disp_common.h
p14
S'e7e88f865e075c009378764196b519a2'
p15
sVC:\u005cUsers\u005cashlc00\u005cDocuments\u005cHenkel\u005cHenkel_RobotLeveling_v1.0.1\u005ccode\u005cCANVIEW4\u005cvt3_code\u005cvt3_Event__Splash.h
p16
S'aeca1dd79439396bc096d8158e3ce4eb'
p17
sVC:\u005cUsers\u005cashlc00\u005cDocuments\u005cHenkel\u005cHenkel_RobotLeveling_v1.0.1\u005ccode\u005cCANVIEW4\u005cvt3_code\u005cvt3_POU__global_data.h
p18
S'2775b8179dcd060a92fbbabc882123de'
p19
sVC:\u005cUsers\u005cashlc00\u005cDocuments\u005cHenkel\u005cHenkel_RobotLeveling_v1.0.1\u005ccode\u005cCANVIEW4\u005cvt3_code\u005cvt3_Event__Splash.c
p20
S'1ff9101bf3c115c6a9ef97c90f58294b'
p21
sVC:\u005cUsers\u005cashlc00\u005cDocuments\u005cHenkel\u005cHenkel_RobotLeveling_v1.0.1\u005ccode\u005cCANVIEW4\u005cvt3_code\u005cvt3_POU__global_data.c
p22
S'3b0c1be613911cf7c48393168a28e50c'
p23
sVC:\u005cUsers\u005cashlc00\u005cDocuments\u005cHenkel\u005cHenkel_RobotLeveling_v1.0.1\u005ccode\u005cCANVIEW4\u005cvt3_code\u005cvt3_POU__ENUM_OPEN_FILE.h
p24
S'd501a2bc5ece99b0fdc11b9fcb418823'
p25
sVC:\u005cUsers\u005cashlc00\u005cDocuments\u005cHenkel\u005cHenkel_RobotLeveling_v1.0.1\u005ccode\u005cCANVIEW4\u005cvt3_code\u005cvt3_POU__ENUM_KEY_MODE.h
p26
S'1d463175b1a053290ec8e810d80c718c'
p27
sVC:\u005cUsers\u005cashlc00\u005cDocuments\u005cHenkel\u005cHenkel_RobotLeveling_v1.0.1\u005ccode\u005cCANVIEW4\u005cvt3_code\u005cvt3_POU__ENUM_UPDATE.h
p28
S'c166b33caf459d81bd65d21bf426c15e'
p29
sVC:\u005cUsers\u005cashlc00\u005cDocuments\u005cHenkel\u005cHenkel_RobotLeveling_v1.0.1\u005ccode\u005cCANVIEW4\u005cvt3_code\u005cvt3_Disp__Main.c
p30
S'ba65ae13a7a1b7601a4ed81abacd85b8'
p31
sVC:\u005cUsers\u005cashlc00\u005cDocuments\u005cHenkel\u005cHenkel_RobotLeveling_v1.0.1\u005ccode\u005cCANVIEW4\u005cvt3_code\u005cvt3_Event__Main.h
p32
S'776d60c62186a2e2d91e906db4b77cdc'
p33
sVC:\u005cUsers\u005cashlc00\u005cDocuments\u005cHenkel\u005cHenkel_RobotLeveling_v1.0.1\u005ccode\u005cCANVIEW4\u005cvt3_code\u005cvt3_Disp__Main.h
p34
S'96ace0e632296643eb1a6ecbe667ed9d'
p35
sVC:\u005cUsers\u005cashlc00\u005cDocuments\u005cHenkel\u005cHenkel_RobotLeveling_v1.0.1\u005ccode\u005cCANVIEW4\u005cvt3_code\u005cvt3_Event__Main.c
p36
S'f5ef7dccea582c5a59177c7b0e224436'
p37
sVC:\u005cUsers\u005cashlc00\u005cDocuments\u005cHenkel\u005cHenkel_RobotLeveling_v1.0.1\u005ccode\u005cCANVIEW4\u005cvt3_code\u005cvt3_POU__umountUSB.h
p38
S'afed4d0f122d5ac098a8c480988c9433'
p39
sVC:\u005cUsers\u005cashlc00\u005cDocuments\u005cHenkel\u005cHenkel_RobotLeveling_v1.0.1\u005ccode\u005cCANVIEW4\u005cvt3_code\u005cvt3_disp_events.c
p40
S'7a46e4572fc79ada2210e68a4284e1dd'
p41
sVC:\u005cUsers\u005cashlc00\u005cDocuments\u005cHenkel\u005cHenkel_RobotLeveling_v1.0.1\u005ccode\u005cCANVIEW4\u005cvt3_code\u005cvt3_init_persistent_p_array.c
p42
S'1b27d612e48d48fe0dd84b63706068fe'
p43
sVC:\u005cUsers\u005cashlc00\u005cDocuments\u005cHenkel\u005cHenkel_RobotLeveling_v1.0.1\u005ccode\u005cCANVIEW4\u005cvt3_code\u005cvt3_init_persistent_p_array.h
p44
S'79597002feb85a132ab4010cbc46b658'
p45
sVC:\u005cUsers\u005cashlc00\u005cDocuments\u005cHenkel\u005cHenkel_RobotLeveling_v1.0.1\u005ccode\u005cCANVIEW4\u005cvt3_code\u005cvt3_BMP__Red_0_0_argb8888.h
p46
S'2f99bb927fa0b05f4df1d8c4d0330e3d'
p47
sVC:\u005cUsers\u005cashlc00\u005cDocuments\u005cHenkel\u005cHenkel_RobotLeveling_v1.0.1\u005ccode\u005cCANVIEW4\u005cvt3_code\u005cvt3_BMP__Henkel460X259_0_0_argb8888.h
p48
S'e8e5fa6171a94f89ecbd7713ee4bafd7'
p49
sVC:\u005cUsers\u005cashlc00\u005cDocuments\u005cHenkel\u005cHenkel_RobotLeveling_v1.0.1\u005ccode\u005cCANVIEW4\u005cvt3_code\u005cvt3_CAN__CanInterface.c
p50
S'8b215df8f14193a9c683828023883c6b'
p51
sVC:\u005cUsers\u005cashlc00\u005cDocuments\u005cHenkel\u005cHenkel_RobotLeveling_v1.0.1\u005ccode\u005cCANVIEW4\u005cvt3_code\u005cvt3_fonts.h
p52
S'a5ddc397f3959f9e6727aad85300a3f3'
p53
sVC:\u005cUsers\u005cashlc00\u005cDocuments\u005cHenkel\u005cHenkel_RobotLeveling_v1.0.1\u005ccode\u005cCANVIEW4\u005cvt3_code\u005cvt3_CAN__CanInterface.h
p54
S'ba835448265c56752130edda462a0bf0'
p55
sVC:\u005cUsers\u005cashlc00\u005cDocuments\u005cHenkel\u005cHenkel_RobotLeveling_v1.0.1\u005ccode\u005cCANVIEW4\u005cvt3_code\u005cvt3_POU__writeStringCOM.h
p56
S'0956de995e1e7e502596111e92f3a993'
p57
sVC:\u005cUsers\u005cashlc00\u005cDocuments\u005cHenkel\u005cHenkel_RobotLeveling_v1.0.1\u005ccode\u005cCANVIEW4\u005cvt3_code\u005cvt3_Disp__Splash.h
p58
S'd49f0135e71389b3c86e19473ed4564d'
p59
sVC:\u005cUsers\u005cashlc00\u005cDocuments\u005cHenkel\u005cHenkel_RobotLeveling_v1.0.1\u005ccode\u005cCANVIEW4\u005cvt3_code\u005cvt3_images.h
p60
S'a0c7e95746565fca644f91ab7296b72b'
p61
sVC:\u005cUsers\u005cashlc00\u005cDocuments\u005cHenkel\u005cHenkel_RobotLeveling_v1.0.1\u005ccode\u005cCANVIEW4\u005cvt3_code\u005cvt3_vars.c
p62
S'245a375ac57678416616a193a1f6c26b'
p63
sVC:\u005cUsers\u005cashlc00\u005cDocuments\u005cHenkel\u005cHenkel_RobotLeveling_v1.0.1\u005ccode\u005cCANVIEW4\u005cvt3_code\u005cvt3_Disp__Splash.c
p64
S'5b6d0b8aedb1f9ba05253b2504321fd1'
p65
sVC:\u005cUsers\u005cashlc00\u005cDocuments\u005cHenkel\u005cHenkel_RobotLeveling_v1.0.1\u005ccode\u005cCANVIEW4\u005cvt3_code\u005cvt3_vars.h
p66
S'68f6598363287c82d167eb4fd7ee4c70'
p67
sVC:\u005cUsers\u005cashlc00\u005cDocuments\u005cHenkel\u005cHenkel_RobotLeveling_v1.0.1\u005ccode\u005cCANVIEW4\u005cvt3_code\u005cvt3_init_persistent_r_array.h
p68
S'a4764eb46232d44ccebcde4db9b1aa0e'
p69
sVC:\u005cUsers\u005cashlc00\u005cDocuments\u005cHenkel\u005cHenkel_RobotLeveling_v1.0.1\u005ccode\u005cCANVIEW4\u005cvt3_code\u005cvt3_BMP__Int0116A0107Hrgb08_0_0_argb8888.h
p70
S'7206bf39182b58a226de24e9ed3409bd'
p71
sVC:\u005cUsers\u005cashlc00\u005cDocuments\u005cHenkel\u005cHenkel_RobotLeveling_v1.0.1\u005ccode\u005cCANVIEW4\u005cvt3_code\u005cvt3_BMP__Blk3_0_0_argb8888.h
p72
S'ef3b448fc19b73a6844ab66c871e935b'
p73
sVC:\u005cUsers\u005cashlc00\u005cDocuments\u005cHenkel\u005cHenkel_RobotLeveling_v1.0.1\u005ccode\u005cCANVIEW4\u005cvt3_code\u005cvt3_init_persistent_f_array.h
p74
S'19efd1f41a64119ed253412c51f61e05'
p75
sVC:\u005cUsers\u005cashlc00\u005cDocuments\u005cHenkel\u005cHenkel_RobotLeveling_v1.0.1\u005ccode\u005cCANVIEW4\u005cvt3_code\u005cvt3_init_persistent_r_array.c
p76
S'606a273f384680498aa90974748e26d5'
p77
sVC:\u005cUsers\u005cashlc00\u005cDocuments\u005cHenkel\u005cHenkel_RobotLeveling_v1.0.1\u005ccode\u005cCANVIEW4\u005cvt3_code\u005cvt3_POU__ENUM_PARITY.h
p78
S'30384f7b5ff6ba58af960c66da5e5a9f'
p79
sVC:\u005cUsers\u005cashlc00\u005cDocuments\u005cHenkel\u005cHenkel_RobotLeveling_v1.0.1\u005ccode\u005cCANVIEW4\u005cvt3_code\u005cvt3_init_persistent_f_array.c
p80
S'e372581338fe2096e2fc700bc77eabc9'
p81
sVC:\u005cUsers\u005cashlc00\u005cDocuments\u005cHenkel\u005cHenkel_RobotLeveling_v1.0.1\u005ccode\u005cCANVIEW4\u005cvt3_code\u005cvt3_POU__key_data.c
p82
S'bff068e446c7882a6d5765bf97106264'
p83
sVC:\u005cUsers\u005cashlc00\u005cDocuments\u005cHenkel\u005cHenkel_RobotLeveling_v1.0.1\u005ccode\u005cCANVIEW4\u005cvt3_code\u005cvt3_POU__key_data.h
p84
S'ef95a127a9e50b094eddf15a063214d6'
p85
sVC:\u005cUsers\u005cashlc00\u005cDocuments\u005cHenkel\u005cHenkel_RobotLeveling_v1.0.1\u005ccode\u005cCANVIEW4\u005cvt3_code\u005cvt3_POU__readByteCOM.h
p86
S'29c1c127be4f10911495e853d79a30f7'
p87
sVC:\u005cUsers\u005cashlc00\u005cDocuments\u005cHenkel\u005cHenkel_RobotLeveling_v1.0.1\u005ccode\u005cCANVIEW4\u005cvt3_code\u005cvt3_POU__SetKeyMode.h
p88
S'4e0a83a2cfd3ae7087eb1f5520b83f06'
p89
sVC:\u005cUsers\u005cashlc00\u005cDocuments\u005cHenkel\u005cHenkel_RobotLeveling_v1.0.1\u005ccode\u005cCANVIEW4\u005cvt3_code\u005cvt3_POU__writeStringUSB.h
p90
S'beaa4f5696be2f6c6bee4a89e7aa57c9'
p91
sVC:\u005cUsers\u005cashlc00\u005cDocuments\u005cHenkel\u005cHenkel_RobotLeveling_v1.0.1\u005ccode\u005cCANVIEW4\u005cvt3_code\u005cvt3_POU__readStringCOM.h
p92
S'ab259c82574eb7d181c361f051c6c0b1'
p93
sVC:\u005cUsers\u005cashlc00\u005cDocuments\u005cHenkel\u005cHenkel_RobotLeveling_v1.0.1\u005ccode\u005cCANVIEW4\u005cvt3_code\u005cvt3_CAN_common.h
p94
S'babc7236ce9d774079d27c233f7e9077'
p95
sVC:\u005cUsers\u005cashlc00\u005cDocuments\u005cHenkel\u005cHenkel_RobotLeveling_v1.0.1\u005ccode\u005cCANVIEW4\u005cvt3_code\u005cvt3_Disp__ScreenFrame.c
p96
S'ac4a00dae1cfd27a422877f0cfb5971f'
p97
sVC:\u005cUsers\u005cashlc00\u005cDocuments\u005cHenkel\u005cHenkel_RobotLeveling_v1.0.1\u005ccode\u005cCANVIEW4\u005cvt3_code\u005cvt3_BMP__Int0116A0107Hrgb03_0_0_argb8888.h
p98
S'75fba6fb9a2ed771fd39327d36b865ea'
p99
sVC:\u005cUsers\u005cashlc00\u005cDocuments\u005cHenkel\u005cHenkel_RobotLeveling_v1.0.1\u005ccode\u005cCANVIEW4\u005cvt3_code\u005cvt3_POU__resetBufferCOM.h
p100
S'b4876ee79f5366bdbd8c639c59693e79'
p101
sVC:\u005cUsers\u005cashlc00\u005cDocuments\u005cHenkel\u005cHenkel_RobotLeveling_v1.0.1\u005ccode\u005cCANVIEW4\u005cvt3_code\u005cvt3_Disp__ScreenFrame.h
p102
S'62ae4319cc89f1818b034d52d03e28c0'
p103
sVC:\u005cUsers\u005cashlc00\u005cDocuments\u005cHenkel\u005cHenkel_RobotLeveling_v1.0.1\u005ccode\u005cCANVIEW4\u005cvt3_code\u005cvt3_alarms.c
p104
S'15d3e4a47967b58d32ee9edc3bc93adc'
p105
sVC:\u005cUsers\u005cashlc00\u005cDocuments\u005cHenkel\u005cHenkel_RobotLeveling_v1.0.1\u005ccode\u005cCANVIEW4\u005cvt3_code\u005cvt3_POU__readStringUSB.h
p106
S'f2ccd75f2345fd6cf1dc0954213bf9d8'
p107
sVC:\u005cUsers\u005cashlc00\u005cDocuments\u005cHenkel\u005cHenkel_RobotLeveling_v1.0.1\u005ccode\u005cCANVIEW4\u005cvt3_code\u005cvt3_disp.h
p108
S'cf6d62e610182e7d4e26cfd19ecd6242'
p109
sVC:\u005cUsers\u005cashlc00\u005cDocuments\u005cHenkel\u005cHenkel_RobotLeveling_v1.0.1\u005ccode\u005cCANVIEW4\u005cvt3_code\u005cvt3_disp.c
p110
S'acbca8c4410488a0bb3c0e4d48d3df0f'
p111
sVC:\u005cUsers\u005cashlc00\u005cDocuments\u005cHenkel\u005cHenkel_RobotLeveling_v1.0.1\u005ccode\u005cCANVIEW4\u005cvt3_code\u005cvt3_POU__closeUSB.h
p112
S'a228dfef379e4ef0cd3e5f781f2aa707'
p113
sVC:\u005cUsers\u005cashlc00\u005cDocuments\u005cHenkel\u005cHenkel_RobotLeveling_v1.0.1\u005ccode\u005cCANVIEW4\u005cvt3_code\u005cvt3_lang.h
p114
S'383800d615e69b1d8d0e12ac37da64fd'
p115
sVC:\u005cUsers\u005cashlc00\u005cDocuments\u005cHenkel\u005cHenkel_RobotLeveling_v1.0.1\u005ccode\u005cCANVIEW4\u005cvt3_code\u005cvt3_POU__DATA_ARRAY_50.h
p116
S'40647117523529d38a1db155ee73b46b'
p117
sVC:\u005cUsers\u005cashlc00\u005cDocuments\u005cHenkel\u005cHenkel_RobotLeveling_v1.0.1\u005ccode\u005cCANVIEW4\u005cvt3_code\u005cvt3_POU__initCOM.h
p118
S'7ef0f89fd7a3959c433e0e6830a9dc33'
p119
sVC:\u005cUsers\u005cashlc00\u005cDocuments\u005cHenkel\u005cHenkel_RobotLeveling_v1.0.1\u005ccode\u005cCANVIEW4\u005cvt3_code\u005cvt3_POU__MAIN.h
p120
S'73f8334065ac3cd56c616105d689c06a'
p121
sVC:\u005cUsers\u005cashlc00\u005cDocuments\u005cHenkel\u005cHenkel_RobotLeveling_v1.0.1\u005ccode\u005cCANVIEW4\u005cvt3_code\u005cvt3_CAN.h
p122
S'545c54ed8419ab8a4d985ddb77999753'
p123
sVC:\u005cUsers\u005cashlc00\u005cDocuments\u005cHenkel\u005cHenkel_RobotLeveling_v1.0.1\u005ccode\u005cCANVIEW4\u005cvt3_code\u005cvt3_POU__ENUM_UART_ERR.h
p124
S'0db90ed4b1b39b1b904c8e9d9ec4f52c'
p125
sVC:\u005cUsers\u005cashlc00\u005cDocuments\u005cHenkel\u005cHenkel_RobotLeveling_v1.0.1\u005ccode\u005cCANVIEW4\u005cvt3_code\u005cvt3_POU__mountUSB.h
p126
S'a9f43947fadada93af787520a1b653d4'
p127
sVC:\u005cUsers\u005cashlc00\u005cDocuments\u005cHenkel\u005cHenkel_RobotLeveling_v1.0.1\u005ccode\u005cCANVIEW4\u005cvt3_code\u005cvt3_CAN.c
p128
S'0d804a18b60186477288c5ea2f8937c3'
p129
sVC:\u005cUsers\u005cashlc00\u005cDocuments\u005cHenkel\u005cHenkel_RobotLeveling_v1.0.1\u005ccode\u005cCANVIEW4\u005cvt3_code\u005cvt3_POU__MAIN.c
p130
S'2543578ff6851ff95a0fcffce4550cd9'
p131
sVC:\u005cUsers\u005cashlc00\u005cDocuments\u005cHenkel\u005cHenkel_RobotLeveling_v1.0.1\u005ccode\u005cCANVIEW4\u005cvt3_code\u005cvt3_Font__RobotoBold49.h
p132
S'44aa6f161f9c61d4190c2304a86d383d'
p133
sVC:\u005cUsers\u005cashlc00\u005cDocuments\u005cHenkel\u005cHenkel_RobotLeveling_v1.0.1\u005ccode\u005cCANVIEW4\u005cvt3_code\u005cvt3_CAN_common.c
p134
S'bcf5e078f1b9e7b62be8267d8702cfa5'
p135
sVC:\u005cUsers\u005cashlc00\u005cDocuments\u005cHenkel\u005cHenkel_RobotLeveling_v1.0.1\u005ccode\u005cCANVIEW4\u005cvt3_code\u005cvt3_var_version.c
p136
S'8436823b848668e1472b9ce70babc46f'
p137
sVC:\u005cUsers\u005cashlc00\u005cDocuments\u005cHenkel\u005cHenkel_RobotLeveling_v1.0.1\u005ccode\u005cCANVIEW4\u005cvt3_code\u005cvt3_POU_common.c
p138
S'16398cec41bdb898bf1f8bea0e9c027d'
p139
sVC:\u005cUsers\u005cashlc00\u005cDocuments\u005cHenkel\u005cHenkel_RobotLeveling_v1.0.1\u005ccode\u005cCANVIEW4\u005cvt3_code\u005cvt3_POU_common.h
p140
S'21660c6708f7bfc161ebc454c3e4f8aa'
p141
sVC:\u005cUsers\u005cashlc00\u005cDocuments\u005cHenkel\u005cHenkel_RobotLeveling_v1.0.1\u005ccode\u005cCANVIEW4\u005cvt3_code\u005cvt3_POU__DATA_ARRAY_255.h
p142
S'2f2d24568e9b57f9c0774761162796e4'
p143
sVC:\u005cUsers\u005cashlc00\u005cDocuments\u005cHenkel\u005cHenkel_RobotLeveling_v1.0.1\u005ccode\u005cCANVIEW4\u005cvt3_code\u005cvt3_BMP__Red1_0_0_argb8888.h
p144
S'd40d40949e15c25034e537ae4d7d206b'
p145
sVC:\u005cUsers\u005cashlc00\u005cDocuments\u005cHenkel\u005cHenkel_RobotLeveling_v1.0.1\u005ccode\u005cCANVIEW4\u005cvt3_code\u005cvt3_POU.h
p146
S'9503eea1e32c5e320751d423684e352a'
p147
sVC:\u005cUsers\u005cashlc00\u005cDocuments\u005cHenkel\u005cHenkel_RobotLeveling_v1.0.1\u005ccode\u005cCANVIEW4\u005cvt3_code\u005cvt3_POU.c
p148
S'cea3cf3e67f8e2f1ece01077e0678082'
p149
sVC:\u005cUsers\u005cashlc00\u005cDocuments\u005cHenkel\u005cHenkel_RobotLeveling_v1.0.1\u005ccode\u005cCANVIEW4\u005cvt3_code\u005cvt3_fonts.c
p150
S'bfaad749932d926b5b01a40f8613a46f'
p151
sVC:\u005cUsers\u005cashlc00\u005cDocuments\u005cHenkel\u005cHenkel_RobotLeveling_v1.0.1\u005ccode\u005cCANVIEW4\u005cvt3_code\u005cvt3_POU__ENUM_USB_ERR.h
p152
S'99521e6140e28495262d08c81a6ffa35'
p153
sVC:\u005cUsers\u005cashlc00\u005cDocuments\u005cHenkel\u005cHenkel_RobotLeveling_v1.0.1\u005ccode\u005cCANVIEW4\u005cvt3_code\u005cvt3_POU__writeElogUSB.h
p154
S'734c3527a360ed15e727de89f8d51cac'
p155
sVC:\u005cUsers\u005cashlc00\u005cDocuments\u005cHenkel\u005cHenkel_RobotLeveling_v1.0.1\u005ccode\u005cCANVIEW4\u005cvt3_code\u005cvt3_Font__RobotoBold36.h
p156
S'0c26395b4f5d1a05ad92038ff68577ea'
p157
sVC:\u005cUsers\u005cashlc00\u005cDocuments\u005cHenkel\u005cHenkel_RobotLeveling_v1.0.1\u005ccode\u005cCANVIEW4\u005cvt3_code\u005cvt3_alarms.h
p158
S'8a1009e258301d8cca5d0ecb69c09969'
p159
sVC:\u005cUsers\u005cashlc00\u005cDocuments\u005cHenkel\u005cHenkel_RobotLeveling_v1.0.1\u005ccode\u005cCANVIEW4\u005cvt3_code\u005cvt3_lang.c
p160
S'3ed8ffc6a102a5df404ea22e0441c9f5'
p161
sVC:\u005cUsers\u005cashlc00\u005cDocuments\u005cHenkel\u005cHenkel_RobotLeveling_v1.0.1\u005ccode\u005cCANVIEW4\u005cvt3_code\u005cvt3_POU_string_typedef.h
p162
S'089a57f636115b335e2fe10a18292639'
p163
sVC:\u005cUsers\u005cashlc00\u005cDocuments\u005cHenkel\u005cHenkel_RobotLeveling_v1.0.1\u005ccode\u005cCANVIEW4\u005cvt3_code\u005cvt3_POU__openUSB.h
p164
S'9c0515a83e8bdd0b23d8f790d37d6934'
p165
sVC:\u005cUsers\u005cashlc00\u005cDocuments\u005cHenkel\u005cHenkel_RobotLeveling_v1.0.1\u005ccode\u005cCANVIEW4\u005cvt3_code\u005cvt3_POU__ENUM_MODE_ERR.h
p166
S'ad4a30ae172d67bb86c400d5644cff30'
p167
sVC:\u005cUsers\u005cashlc00\u005cDocuments\u005cHenkel\u005cHenkel_RobotLeveling_v1.0.1\u005ccode\u005cCANVIEW4\u005cvt3_code\u005cvt3_POU__PowerOff.h
p168
S'dbcfc955e1bd4f5e870f5fc6f84f97e2'
p169
sVC:\u005cUsers\u005cashlc00\u005cDocuments\u005cHenkel\u005cHenkel_RobotLeveling_v1.0.1\u005ccode\u005cCANVIEW4\u005cvt3_code\u005cvt3_disp_common.c
p170
S'ccf97b899f07542fd08be72b7b0f9b16'
p171
sVC:\u005cUsers\u005cashlc00\u005cDocuments\u005cHenkel\u005cHenkel_RobotLeveling_v1.0.1\u005ccode\u005cCANVIEW4\u005cvt3_code\u005cvt3_IO.c
p172
S'11aad9f319611a68ff9774fec05d8d6e'
p173
sVC:\u005cUsers\u005cashlc00\u005cDocuments\u005cHenkel\u005cHenkel_RobotLeveling_v1.0.1\u005ccode\u005cCANVIEW4\u005cvt3_code\u005cvt3_POU__writeByteCOM.h
p174
S'46be1e960abd588d284af97f84969652'
p175
sVC:\u005cUsers\u005cashlc00\u005cDocuments\u005cHenkel\u005cHenkel_RobotLeveling_v1.0.1\u005ccode\u005cCANVIEW4\u005cvt3_code\u005cvt3_IO.h
p176
S'aa42fdf4e42776a820cbc16790a9c35c'
p177
s.