(dp1
VC:\u005cUsers\u005cashlc00\u005cDocuments\u005cHenkel\u005cHenkel_RobotLeveling_V0.1\u005ccode\u005cCANVIEW4\u005cvt3_code\u005cvt3_IO.h
p2
S'aa42fdf4e42776a820cbc16790a9c35c'
p3
sVC:\u005cUsers\u005cashlc00\u005cDocuments\u005cHenkel\u005cHenkel_RobotLeveling_v1.0.0\u005ccode\u005cCANVIEW4\u005cvt3_code\u005cvt3_POU__ENUM_PARITY.h
p4
S'30384f7b5ff6ba58af960c66da5e5a9f'
p5
sVC:\u005cUsers\u005cashlc00\u005cDocuments\u005cHenkel\u005cHenkel_RobotLeveling_V0.1\u005ccode\u005cCANVIEW4\u005cvt3_code\u005cvt3_vars.h
p6
S'0b29a0fc67d8f3782d3b4b64afde9783'
p7
sVC:\u005cUsers\u005cashlc00\u005cDocuments\u005cHenkel\u005cHenkel_RobotLeveling_V0.1\u005ccode\u005cCANVIEW4\u005cvt3_code\u005cvt3_POU__writeElogUSB.h
p8
S'734c3527a360ed15e727de89f8d51cac'
p9
sVC:\u005cUsers\u005cashlc00\u005cDocuments\u005cHenkel\u005cHenkel_RobotLeveling_V0.1\u005ccode\u005cCANVIEW4\u005cvt3_code\u005cvt3_disp_events.c
p10
S'7a46e4572fc79ada2210e68a4284e1dd'
p11
sVC:\u005cUsers\u005cashlc00\u005cDocuments\u005cHenkel\u005cHenkel_RobotLeveling_V0.1\u005ccode\u005cCANVIEW4\u005cvt3_code\u005cvt3_IO.c
p12
S'11aad9f319611a68ff9774fec05d8d6e'
p13
sVC:\u005cUsers\u005cashlc00\u005cDocuments\u005cHenkel\u005cHenkel_RobotLeveling_v1.0.0\u005ccode\u005cCANVIEW4\u005cvt3_code\u005cvt3_POU__closeUSB.h
p14
S'a228dfef379e4ef0cd3e5f781f2aa707'
p15
sVC:\u005cUsers\u005cashlc00\u005cDocuments\u005cHenkel\u005cHenkel_RobotLeveling_v1.0.0\u005ccode\u005cCANVIEW4\u005cvt3_code\u005cvt3_POU__umountUSB.h
p16
S'afed4d0f122d5ac098a8c480988c9433'
p17
sVC:\u005cUsers\u005cashlc00\u005cDocuments\u005cHenkel\u005cHenkel_RobotLeveling_V0.1\u005ccode\u005cCANVIEW4\u005cvt3_code\u005cvt3_POU__DATA_ARRAY_50.h
p18
S'40647117523529d38a1db155ee73b46b'
p19
sVC:\u005cUsers\u005cashlc00\u005cDocuments\u005cHenkel\u005cHenkel_RobotLeveling_V0.1\u005ccode\u005cCANVIEW4\u005cvt3_code\u005cvt3_POU__ENUM_OPEN_FILE.h
p20
S'd501a2bc5ece99b0fdc11b9fcb418823'
p21
sVC:\u005cUsers\u005cashlc00\u005cDocuments\u005cHenkel\u005cHenkel_RobotLeveling_V0.1\u005ccode\u005cCANVIEW4\u005cvt3_code\u005cvt3_CAN_common.c
p22
S'bcf5e078f1b9e7b62be8267d8702cfa5'
p23
sVC:\u005cUsers\u005cashlc00\u005cDocuments\u005cHenkel\u005cHenkel_RobotLeveling_v1.0.0\u005ccode\u005cCANVIEW4\u005cvt3_code\u005cvt3_POU__MAIN.c
p24
S'3d3f0800ce70a19c3e3a261bc43b4ea2'
p25
sVC:\u005cUsers\u005cashlc00\u005cDocuments\u005cHenkel\u005cHenkel_RobotLeveling_V0.1\u005ccode\u005cCANVIEW4\u005cvt3_code\u005cvt3_Disp__Main.h
p26
S'9530a934e0709da02974a41cf89caa27'
p27
sVC:\u005cUsers\u005cashlc00\u005cDocuments\u005cHenkel\u005cHenkel_RobotLeveling_V0.1\u005ccode\u005cCANVIEW4\u005cvt3_code\u005cvt3_Font__RobotoBold36.h
p28
S'0c26395b4f5d1a05ad92038ff68577ea'
p29
sVC:\u005cUsers\u005cashlc00\u005cDocuments\u005cHenkel\u005cHenkel_RobotLeveling_v1.0.0\u005ccode\u005cCANVIEW4\u005cvt3_code\u005cvt3_Disp__Main.c
p30
S'd15a029131ced35ad0e254fffc151af0'
p31
sVC:\u005cUsers\u005cashlc00\u005cDocuments\u005cHenkel\u005cHenkel_RobotLeveling_V0.1\u005ccode\u005cCANVIEW4\u005cvt3_code\u005cvt3_init_persistent_r_array.h
p32
S'a4764eb46232d44ccebcde4db9b1aa0e'
p33
sVC:\u005cUsers\u005cashlc00\u005cDocuments\u005cHenkel\u005cHenkel_RobotLeveling_v1.0.0\u005ccode\u005cCANVIEW4\u005cvt3_code\u005cvt3_POU__writeElogUSB.h
p34
S'734c3527a360ed15e727de89f8d51cac'
p35
sVC:\u005cUsers\u005cashlc00\u005cDocuments\u005cHenkel\u005cHenkel_RobotLeveling_V0.1\u005ccode\u005cCANVIEW4\u005cvt3_code\u005cvt3_Disp__Main.c
p36
S'd15a029131ced35ad0e254fffc151af0'
p37
sVC:\u005cUsers\u005cashlc00\u005cDocuments\u005cHenkel\u005cHenkel_RobotLeveling_V0.1\u005ccode\u005cCANVIEW4\u005cvt3_code\u005cvt3_init_persistent_r_array.c
p38
S'606a273f384680498aa90974748e26d5'
p39
sVC:\u005cUsers\u005cashlc00\u005cDocuments\u005cHenkel\u005cHenkel_RobotLeveling_V0.1\u005ccode\u005cCANVIEW4\u005cvt3_code\u005cvt3_POU__writeStringCOM.h
p40
S'0956de995e1e7e502596111e92f3a993'
p41
sVC:\u005cUsers\u005cashlc00\u005cDocuments\u005cHenkel\u005cHenkel_RobotLeveling_v1.0.0\u005ccode\u005cCANVIEW4\u005cvt3_code\u005cvt3_POU__ENUM_UART_ERR.h
p42
S'0db90ed4b1b39b1b904c8e9d9ec4f52c'
p43
sVC:\u005cUsers\u005cashlc00\u005cDocuments\u005cHenkel\u005cHenkel_RobotLeveling_v1.0.0\u005ccode\u005cCANVIEW4\u005cvt3_code\u005cvt3_POU__initCOM.h
p44
S'7ef0f89fd7a3959c433e0e6830a9dc33'
p45
sVC:\u005cUsers\u005cashlc00\u005cDocuments\u005cHenkel\u005cHenkel_RobotLeveling_V0.1\u005ccode\u005cCANVIEW4\u005cvt3_code\u005cvt3_POU__writeByteCOM.h
p46
S'46be1e960abd588d284af97f84969652'
p47
sVC:\u005cUsers\u005cashlc00\u005cDocuments\u005cHenkel\u005cHenkel_RobotLeveling_V0.1\u005ccode\u005cCANVIEW4\u005cvt3_code\u005cvt3_Font__RobotoBold49.h
p48
S'44aa6f161f9c61d4190c2304a86d383d'
p49
sVC:\u005cUsers\u005cashlc00\u005cDocuments\u005cHenkel\u005cHenkel_RobotLeveling_V0.1\u005ccode\u005cCANVIEW4\u005cvt3_code\u005cvt3_POU__readByteCOM.h
p50
S'29c1c127be4f10911495e853d79a30f7'
p51
sVC:\u005cUsers\u005cashlc00\u005cDocuments\u005cHenkel\u005cHenkel_RobotLeveling_v1.0.0\u005ccode\u005cCANVIEW4\u005cvt3_code\u005cvt3_POU__ENUM_OPEN_FILE.h
p52
S'd501a2bc5ece99b0fdc11b9fcb418823'
p53
sVC:\u005cUsers\u005cashlc00\u005cDocuments\u005cHenkel\u005cHenkel_RobotLeveling_v1.0.0\u005ccode\u005cCANVIEW4\u005cvt3_code\u005cvt3_fonts.h
p54
S'a5ddc397f3959f9e6727aad85300a3f3'
p55
sVC:\u005cUsers\u005cashlc00\u005cDocuments\u005cHenkel\u005cHenkel_RobotLeveling_v1.0.0\u005ccode\u005cCANVIEW4\u005cvt3_code\u005cvt3_POU__writeStringUSB.h
p56
S'beaa4f5696be2f6c6bee4a89e7aa57c9'
p57
sVC:\u005cUsers\u005cashlc00\u005cDocuments\u005cHenkel\u005cHenkel_RobotLeveling_V0.1\u005ccode\u005cCANVIEW4\u005cvt3_code\u005cvt3_CAN.h
p58
S'545c54ed8419ab8a4d985ddb77999753'
p59
sVC:\u005cUsers\u005cashlc00\u005cDocuments\u005cHenkel\u005cHenkel_RobotLeveling_v1.0.0\u005ccode\u005cCANVIEW4\u005cvt3_code\u005cvt3_fonts.c
p60
S'bfaad749932d926b5b01a40f8613a46f'
p61
sVC:\u005cUsers\u005cashlc00\u005cDocuments\u005cHenkel\u005cHenkel_RobotLeveling_V0.1\u005ccode\u005cCANVIEW4\u005cvt3_code\u005cvt3_POU.c
p62
S'cea3cf3e67f8e2f1ece01077e0678082'
p63
sVC:\u005cUsers\u005cashlc00\u005cDocuments\u005cHenkel\u005cHenkel_RobotLeveling_V0.1\u005ccode\u005cCANVIEW4\u005cvt3_code\u005cvt3_init_persistent_f_array.c
p64
S'e372581338fe2096e2fc700bc77eabc9'
p65
sVC:\u005cUsers\u005cashlc00\u005cDocuments\u005cHenkel\u005cHenkel_RobotLeveling_v1.0.0\u005ccode\u005cCANVIEW4\u005cvt3_code\u005cvt3_Event__ScreenFrame.c
p66
S'dc5d53929dde8c5246a2d56264433552'
p67
sVC:\u005cUsers\u005cashlc00\u005cDocuments\u005cHenkel\u005cHenkel_RobotLeveling_V0.1\u005ccode\u005cCANVIEW4\u005cvt3_code\u005cvt3_Disp__ScreenFrame.h
p68
S'62ae4319cc89f1818b034d52d03e28c0'
p69
sVC:\u005cUsers\u005cashlc00\u005cDocuments\u005cHenkel\u005cHenkel_RobotLeveling_V0.1\u005ccode\u005cCANVIEW4\u005cvt3_code\u005cvt3_alarms.h
p70
S'8a1009e258301d8cca5d0ecb69c09969'
p71
sVC:\u005cUsers\u005cashlc00\u005cDocuments\u005cHenkel\u005cHenkel_RobotLeveling_v1.0.0\u005ccode\u005cCANVIEW4\u005cvt3_code\u005cvt3_alarms.c
p72
S'15d3e4a47967b58d32ee9edc3bc93adc'
p73
sVC:\u005cUsers\u005cashlc00\u005cDocuments\u005cHenkel\u005cHenkel_RobotLeveling_V0.1\u005ccode\u005cCANVIEW4\u005cvt3_code\u005cvt3_init_persistent_f_array.h
p74
S'19efd1f41a64119ed253412c51f61e05'
p75
sVC:\u005cUsers\u005cashlc00\u005cDocuments\u005cHenkel\u005cHenkel_RobotLeveling_V0.1\u005ccode\u005cCANVIEW4\u005cvt3_code\u005cvt3_POU.h
p76
S'9503eea1e32c5e320751d423684e352a'
p77
sVC:\u005cUsers\u005cashlc00\u005cDocuments\u005cHenkel\u005cHenkel_RobotLeveling_V0.1\u005ccode\u005cCANVIEW4\u005cvt3_code\u005cvt3_alarms.c
p78
S'15d3e4a47967b58d32ee9edc3bc93adc'
p79
sVC:\u005cUsers\u005cashlc00\u005cDocuments\u005cHenkel\u005cHenkel_RobotLeveling_v1.0.0\u005ccode\u005cCANVIEW4\u005cvt3_code\u005cvt3_POU__writeStringCOM.h
p80
S'0956de995e1e7e502596111e92f3a993'
p81
sVC:\u005cUsers\u005cashlc00\u005cDocuments\u005cHenkel\u005cHenkel_RobotLeveling_V0.1\u005ccode\u005cCANVIEW4\u005cvt3_code\u005cvt3_Disp__ScreenFrame.c
p82
S'ac4a00dae1cfd27a422877f0cfb5971f'
p83
sVC:\u005cUsers\u005cashlc00\u005cDocuments\u005cHenkel\u005cHenkel_RobotLeveling_V0.1\u005ccode\u005cCANVIEW4\u005cvt3_code\u005cvt3_POU__mountUSB.h
p84
S'a9f43947fadada93af787520a1b653d4'
p85
sVC:\u005cUsers\u005cashlc00\u005cDocuments\u005cHenkel\u005cHenkel_RobotLeveling_v1.0.0\u005ccode\u005cCANVIEW4\u005cvt3_code\u005cvt3_POU__DATA_ARRAY_50.h
p86
S'40647117523529d38a1db155ee73b46b'
p87
sVC:\u005cUsers\u005cashlc00\u005cDocuments\u005cHenkel\u005cHenkel_RobotLeveling_V0.1\u005ccode\u005cCANVIEW4\u005cvt3_code\u005cvt3_POU__ENUM_UPDATE.h
p88
S'c166b33caf459d81bd65d21bf426c15e'
p89
sVC:\u005cUsers\u005cashlc00\u005cDocuments\u005cHenkel\u005cHenkel_RobotLeveling_v1.0.0\u005ccode\u005cCANVIEW4\u005cvt3_code\u005cvt3_POU__mountUSB.h
p90
S'a9f43947fadada93af787520a1b653d4'
p91
sVC:\u005cUsers\u005cashlc00\u005cDocuments\u005cHenkel\u005cHenkel_RobotLeveling_v1.0.0\u005ccode\u005cCANVIEW4\u005cvt3_code\u005cvt3_POU__readByteCOM.h
p92
S'29c1c127be4f10911495e853d79a30f7'
p93
sVC:\u005cUsers\u005cashlc00\u005cDocuments\u005cHenkel\u005cHenkel_RobotLeveling_V0.1\u005ccode\u005cCANVIEW4\u005cvt3_code\u005cvt3_BMP__Henkel460X259_0_0_argb8888.h
p94
S'e8e5fa6171a94f89ecbd7713ee4bafd7'
p95
sVC:\u005cUsers\u005cashlc00\u005cDocuments\u005cHenkel\u005cHenkel_RobotLeveling_v1.0.0\u005ccode\u005cCANVIEW4\u005cvt3_code\u005cvt3_CAN__CanInterface.h
p96
S'ba835448265c56752130edda462a0bf0'
p97
sVC:\u005cUsers\u005cashlc00\u005cDocuments\u005cHenkel\u005cHenkel_RobotLeveling_v1.0.0\u005ccode\u005cCANVIEW4\u005cvt3_code\u005cvt3_Event__ScreenFrame.h
p98
S'58f80c773b31508a09fa8040bd564d82'
p99
sVC:\u005cUsers\u005cashlc00\u005cDocuments\u005cHenkel\u005cHenkel_RobotLeveling_v1.0.0\u005ccode\u005cCANVIEW4\u005cvt3_code\u005cvt3_images.h
p100
S'c8e33486be588241cf9d7441fa290391'
p101
sVC:\u005cUsers\u005cashlc00\u005cDocuments\u005cHenkel\u005cHenkel_RobotLeveling_V0.1\u005ccode\u005cCANVIEW4\u005cvt3_code\u005cvt3_palette.c
p102
S'ba9f66d8febe7598c9cc56166b76101a'
p103
sVC:\u005cUsers\u005cashlc00\u005cDocuments\u005cHenkel\u005cHenkel_RobotLeveling_V0.1\u005ccode\u005cCANVIEW4\u005cvt3_code\u005cvt3_Event__Splash.c
p104
S'1ff9101bf3c115c6a9ef97c90f58294b'
p105
sVC:\u005cUsers\u005cashlc00\u005cDocuments\u005cHenkel\u005cHenkel_RobotLeveling_V0.1\u005ccode\u005cCANVIEW4\u005cvt3_code\u005cvt3_palette.h
p106
S'c55867d1a0cd24c7eb0daa1e0fbe2da9'
p107
sVC:\u005cUsers\u005cashlc00\u005cDocuments\u005cHenkel\u005cHenkel_RobotLeveling_v1.0.0\u005ccode\u005cCANVIEW4\u005cvt3_code\u005cvt3_POU_string_typedef.h
p108
S'089a57f636115b335e2fe10a18292639'
p109
sVC:\u005cUsers\u005cashlc00\u005cDocuments\u005cHenkel\u005cHenkel_RobotLeveling_V0.1\u005ccode\u005cCANVIEW4\u005cvt3_code\u005cvt3_Disp__Splash.h
p110
S'd49f0135e71389b3c86e19473ed4564d'
p111
sVC:\u005cUsers\u005cashlc00\u005cDocuments\u005cHenkel\u005cHenkel_RobotLeveling_v1.0.0\u005ccode\u005cCANVIEW4\u005cvt3_code\u005cvt3_Disp__ScreenFrame.h
p112
S'62ae4319cc89f1818b034d52d03e28c0'
p113
sVC:\u005cUsers\u005cashlc00\u005cDocuments\u005cHenkel\u005cHenkel_RobotLeveling_V0.1\u005ccode\u005cCANVIEW4\u005cvt3_code\u005cvt3_POU__readStringUSB.h
p114
S'f2ccd75f2345fd6cf1dc0954213bf9d8'
p115
sVC:\u005cUsers\u005cashlc00\u005cDocuments\u005cHenkel\u005cHenkel_RobotLeveling_v1.0.0\u005ccode\u005cCANVIEW4\u005cvt3_code\u005cvt3_POU__resetBufferCOM.h
p116
S'b4876ee79f5366bdbd8c639c59693e79'
p117
sVC:\u005cUsers\u005cashlc00\u005cDocuments\u005cHenkel\u005cHenkel_RobotLeveling_V0.1\u005ccode\u005cCANVIEW4\u005cvt3_code\u005cvt3_CAN_common.h
p118
S'babc7236ce9d774079d27c233f7e9077'
p119
sVC:\u005cUsers\u005cashlc00\u005cDocuments\u005cHenkel\u005cHenkel_RobotLeveling_v1.0.0\u005ccode\u005cCANVIEW4\u005cvt3_code\u005cvt3_POU__ENUM_MODE_ERR.h
p120
S'ad4a30ae172d67bb86c400d5644cff30'
p121
sVC:\u005cUsers\u005cashlc00\u005cDocuments\u005cHenkel\u005cHenkel_RobotLeveling_v1.0.0\u005ccode\u005cCANVIEW4\u005cvt3_code\u005cvt3_Disp__ScreenFrame.c
p122
S'ac4a00dae1cfd27a422877f0cfb5971f'
p123
sVC:\u005cUsers\u005cashlc00\u005cDocuments\u005cHenkel\u005cHenkel_RobotLeveling_V0.1\u005ccode\u005cCANVIEW4\u005cvt3_code\u005cvt3_Disp__Splash.c
p124
S'5b6d0b8aedb1f9ba05253b2504321fd1'
p125
sVC:\u005cUsers\u005cashlc00\u005cDocuments\u005cHenkel\u005cHenkel_RobotLeveling_v1.0.0\u005ccode\u005cCANVIEW4\u005cvt3_code\u005cvt3_Event__Splash.h
p126
S'aeca1dd79439396bc096d8158e3ce4eb'
p127
sVC:\u005cUsers\u005cashlc00\u005cDocuments\u005cHenkel\u005cHenkel_RobotLeveling_v1.0.0\u005ccode\u005cCANVIEW4\u005cvt3_code\u005cvt3_Event__Splash.c
p128
S'1ff9101bf3c115c6a9ef97c90f58294b'
p129
sVC:\u005cUsers\u005cashlc00\u005cDocuments\u005cHenkel\u005cHenkel_RobotLeveling_v1.0.0\u005ccode\u005cCANVIEW4\u005cvt3_code\u005cvt3_var_version.c
p130
S'8436823b848668e1472b9ce70babc46f'
p131
sVC:\u005cUsers\u005cashlc00\u005cDocuments\u005cHenkel\u005cHenkel_RobotLeveling_V0.1\u005ccode\u005cCANVIEW4\u005cvt3_code\u005cvt3_POU_common.c
p132
S'16398cec41bdb898bf1f8bea0e9c027d'
p133
sVC:\u005cUsers\u005cashlc00\u005cDocuments\u005cHenkel\u005cHenkel_RobotLeveling_V0.1\u005ccode\u005cCANVIEW4\u005cvt3_code\u005cvt3_POU_common.h
p134
S'21660c6708f7bfc161ebc454c3e4f8aa'
p135
sVC:\u005cUsers\u005cashlc00\u005cDocuments\u005cHenkel\u005cHenkel_RobotLeveling_v1.0.0\u005ccode\u005cCANVIEW4\u005cvt3_code\u005cvt3_POU_common.c
p136
S'16398cec41bdb898bf1f8bea0e9c027d'
p137
sVC:\u005cUsers\u005cashlc00\u005cDocuments\u005cHenkel\u005cHenkel_RobotLeveling_v1.0.0\u005ccode\u005cCANVIEW4\u005cvt3_code\u005cvt3_POU_common.h
p138
S'21660c6708f7bfc161ebc454c3e4f8aa'
p139
sVC:\u005cUsers\u005cashlc00\u005cDocuments\u005cHenkel\u005cHenkel_RobotLeveling_V0.1\u005ccode\u005cCANVIEW4\u005cvt3_code\u005cvt3_POU__resetBufferCOM.h
p140
S'b4876ee79f5366bdbd8c639c59693e79'
p141
sVC:\u005cUsers\u005cashlc00\u005cDocuments\u005cHenkel\u005cHenkel_RobotLeveling_V0.1\u005ccode\u005cCANVIEW4\u005cvt3_code\u005cvt3_disp_common.h
p142
S'e7e88f865e075c009378764196b519a2'
p143
sVC:\u005cUsers\u005cashlc00\u005cDocuments\u005cHenkel\u005cHenkel_RobotLeveling_v1.0.0\u005ccode\u005cCANVIEW4\u005cvt3_code\u005cvt3_disp.c
p144
S'acbca8c4410488a0bb3c0e4d48d3df0f'
p145
sVC:\u005cUsers\u005cashlc00\u005cDocuments\u005cHenkel\u005cHenkel_RobotLeveling_V0.1\u005ccode\u005cCANVIEW4\u005cvt3_code\u005cvt3_disp_common.c
p146
S'ccf97b899f07542fd08be72b7b0f9b16'
p147
sVC:\u005cUsers\u005cashlc00\u005cDocuments\u005cHenkel\u005cHenkel_RobotLeveling_v1.0.0\u005ccode\u005cCANVIEW4\u005cvt3_code\u005cvt3_disp.h
p148
S'cf6d62e610182e7d4e26cfd19ecd6242'
p149
sVC:\u005cUsers\u005cashlc00\u005cDocuments\u005cHenkel\u005cHenkel_RobotLeveling_v1.0.0\u005ccode\u005cCANVIEW4\u005cvt3_code\u005cvt3_disp_common.h
p150
S'e7e88f865e075c009378764196b519a2'
p151
sVC:\u005cUsers\u005cashlc00\u005cDocuments\u005cHenkel\u005cHenkel_RobotLeveling_v1.0.0\u005ccode\u005cCANVIEW4\u005cvt3_code\u005cvt3_disp_common.c
p152
S'ccf97b899f07542fd08be72b7b0f9b16'
p153
sVC:\u005cUsers\u005cashlc00\u005cDocuments\u005cHenkel\u005cHenkel_RobotLeveling_v1.0.0\u005ccode\u005cCANVIEW4\u005cvt3_code\u005cvt3_IO.h
p154
S'aa42fdf4e42776a820cbc16790a9c35c'
p155
sVC:\u005cUsers\u005cashlc00\u005cDocuments\u005cHenkel\u005cHenkel_RobotLeveling_v1.0.0\u005ccode\u005cCANVIEW4\u005cvt3_code\u005cvt3_Disp__Splash.c
p156
S'5b6d0b8aedb1f9ba05253b2504321fd1'
p157
sVC:\u005cUsers\u005cashlc00\u005cDocuments\u005cHenkel\u005cHenkel_RobotLeveling_V0.1\u005ccode\u005cCANVIEW4\u005cvt3_code\u005cvt3_POU__MAIN.c
p158
S'3d3f0800ce70a19c3e3a261bc43b4ea2'
p159
sVC:\u005cUsers\u005cashlc00\u005cDocuments\u005cHenkel\u005cHenkel_RobotLeveling_V0.1\u005ccode\u005cCANVIEW4\u005cvt3_code\u005cvt3_POU__openUSB.h
p160
S'9c0515a83e8bdd0b23d8f790d37d6934'
p161
sVC:\u005cUsers\u005cashlc00\u005cDocuments\u005cHenkel\u005cHenkel_RobotLeveling_v1.0.0\u005ccode\u005cCANVIEW4\u005cvt3_code\u005cvt3_Disp__Splash.h
p162
S'd49f0135e71389b3c86e19473ed4564d'
p163
sVC:\u005cUsers\u005cashlc00\u005cDocuments\u005cHenkel\u005cHenkel_RobotLeveling_V0.1\u005ccode\u005cCANVIEW4\u005cvt3_code\u005cvt3_POU__ENUM_USB_ERR.h
p164
S'99521e6140e28495262d08c81a6ffa35'
p165
sVC:\u005cUsers\u005cashlc00\u005cDocuments\u005cHenkel\u005cHenkel_RobotLeveling_V0.1\u005ccode\u005cCANVIEW4\u005cvt3_code\u005cvt3_disp.h
p166
S'cf6d62e610182e7d4e26cfd19ecd6242'
p167
sVC:\u005cUsers\u005cashlc00\u005cDocuments\u005cHenkel\u005cHenkel_RobotLeveling_v1.0.0\u005ccode\u005cCANVIEW4\u005cvt3_code\u005cvt3_POU__SetKeyMode.h
p168
S'4e0a83a2cfd3ae7087eb1f5520b83f06'
p169
sVC:\u005cUsers\u005cashlc00\u005cDocuments\u005cHenkel\u005cHenkel_RobotLeveling_V0.1\u005ccode\u005cCANVIEW4\u005cvt3_code\u005cvt3_POU__MAIN.h
p170
S'73f8334065ac3cd56c616105d689c06a'
p171
sVC:\u005cUsers\u005cashlc00\u005cDocuments\u005cHenkel\u005cHenkel_RobotLeveling_v1.0.0\u005ccode\u005cCANVIEW4\u005cvt3_code\u005cvt3_Disp__Main.h
p172
S'9530a934e0709da02974a41cf89caa27'
p173
sVC:\u005cUsers\u005cashlc00\u005cDocuments\u005cHenkel\u005cHenkel_RobotLeveling_V0.1\u005ccode\u005cCANVIEW4\u005cvt3_code\u005cvt3_POU__key_data.h
p174
S'ef95a127a9e50b094eddf15a063214d6'
p175
sVC:\u005cUsers\u005cashlc00\u005cDocuments\u005cHenkel\u005cHenkel_RobotLeveling_v1.0.0\u005ccode\u005cCANVIEW4\u005cvt3_code\u005cvt3_init_persistent_p_array.c
p176
S'1b27d612e48d48fe0dd84b63706068fe'
p177
sVC:\u005cUsers\u005cashlc00\u005cDocuments\u005cHenkel\u005cHenkel_RobotLeveling_V0.1\u005ccode\u005cCANVIEW4\u005cvt3_code\u005cvt3_POU__key_data.c
p178
S'bff068e446c7882a6d5765bf97106264'
p179
sVC:\u005cUsers\u005cashlc00\u005cDocuments\u005cHenkel\u005cHenkel_RobotLeveling_v1.0.0\u005ccode\u005cCANVIEW4\u005cvt3_code\u005cvt3_init_persistent_p_array.h
p180
S'79597002feb85a132ab4010cbc46b658'
p181
sVC:\u005cUsers\u005cashlc00\u005cDocuments\u005cHenkel\u005cHenkel_RobotLeveling_V0.1\u005ccode\u005cCANVIEW4\u005cvt3_code\u005cvt3_POU__readStringCOM.h
p182
S'ab259c82574eb7d181c361f051c6c0b1'
p183
sVC:\u005cUsers\u005cashlc00\u005cDocuments\u005cHenkel\u005cHenkel_RobotLeveling_V0.1\u005ccode\u005cCANVIEW4\u005cvt3_code\u005cvt3_BMP__Blk3_0_0_argb8888.h
p184
S'ef3b448fc19b73a6844ab66c871e935b'
p185
sVC:\u005cUsers\u005cashlc00\u005cDocuments\u005cHenkel\u005cHenkel_RobotLeveling_v1.0.0\u005ccode\u005cCANVIEW4\u005cvt3_code\u005cvt3_init_persistent_r_array.c
p186
S'606a273f384680498aa90974748e26d5'
p187
sVC:\u005cUsers\u005cashlc00\u005cDocuments\u005cHenkel\u005cHenkel_RobotLeveling_V0.1\u005ccode\u005cCANVIEW4\u005cvt3_code\u005cvt3_CAN.c
p188
S'0d804a18b60186477288c5ea2f8937c3'
p189
sVC:\u005cUsers\u005cashlc00\u005cDocuments\u005cHenkel\u005cHenkel_RobotLeveling_V0.1\u005ccode\u005cCANVIEW4\u005cvt3_code\u005cvt3_lang.c
p190
S'3ed8ffc6a102a5df404ea22e0441c9f5'
p191
sVC:\u005cUsers\u005cashlc00\u005cDocuments\u005cHenkel\u005cHenkel_RobotLeveling_V0.1\u005ccode\u005cCANVIEW4\u005cvt3_code\u005cvt3_vars.c
p192
S'245a375ac57678416616a193a1f6c26b'
p193
sVC:\u005cUsers\u005cashlc00\u005cDocuments\u005cHenkel\u005cHenkel_RobotLeveling_V0.1\u005ccode\u005cCANVIEW4\u005cvt3_code\u005cvt3_POU__PowerOff.h
p194
S'dbcfc955e1bd4f5e870f5fc6f84f97e2'
p195
sVC:\u005cUsers\u005cashlc00\u005cDocuments\u005cHenkel\u005cHenkel_RobotLeveling_v1.0.0\u005ccode\u005cCANVIEW4\u005cvt3_code\u005cvt3_init_persistent_r_array.h
p196
S'a4764eb46232d44ccebcde4db9b1aa0e'
p197
sVC:\u005cUsers\u005cashlc00\u005cDocuments\u005cHenkel\u005cHenkel_RobotLeveling_V0.1\u005ccode\u005cCANVIEW4\u005cvt3_code\u005cvt3_Event__ScreenFrame.h
p198
S'58f80c773b31508a09fa8040bd564d82'
p199
sVC:\u005cUsers\u005cashlc00\u005cDocuments\u005cHenkel\u005cHenkel_RobotLeveling_v1.0.0\u005ccode\u005cCANVIEW4\u005cvt3_code\u005cvt3_lang.h
p200
S'383800d615e69b1d8d0e12ac37da64fd'
p201
sVC:\u005cUsers\u005cashlc00\u005cDocuments\u005cHenkel\u005cHenkel_RobotLeveling_v1.0.0\u005ccode\u005cCANVIEW4\u005cvt3_code\u005cvt3_IO.c
p202
S'11aad9f319611a68ff9774fec05d8d6e'
p203
sVC:\u005cUsers\u005cashlc00\u005cDocuments\u005cHenkel\u005cHenkel_RobotLeveling_V0.1\u005ccode\u005cCANVIEW4\u005cvt3_code\u005cvt3_Event__ScreenFrame.c
p204
S'dc5d53929dde8c5246a2d56264433552'
p205
sVC:\u005cUsers\u005cashlc00\u005cDocuments\u005cHenkel\u005cHenkel_RobotLeveling_v1.0.0\u005ccode\u005cCANVIEW4\u005cvt3_code\u005cvt3_vars.h
p206
S'0b29a0fc67d8f3782d3b4b64afde9783'
p207
sVC:\u005cUsers\u005cashlc00\u005cDocuments\u005cHenkel\u005cHenkel_RobotLeveling_v1.0.0\u005ccode\u005cCANVIEW4\u005cvt3_code\u005cvt3_init_persistent_f_array.h
p208
S'19efd1f41a64119ed253412c51f61e05'
p209
sVC:\u005cUsers\u005cashlc00\u005cDocuments\u005cHenkel\u005cHenkel_RobotLeveling_V0.1\u005ccode\u005cCANVIEW4\u005cvt3_code\u005cvt3_POU__initCOM.h
p210
S'7ef0f89fd7a3959c433e0e6830a9dc33'
p211
sVC:\u005cUsers\u005cashlc00\u005cDocuments\u005cHenkel\u005cHenkel_RobotLeveling_v1.0.0\u005ccode\u005cCANVIEW4\u005cvt3_code\u005cvt3_disp_events.c
p212
S'7a46e4572fc79ada2210e68a4284e1dd'
p213
sVC:\u005cUsers\u005cashlc00\u005cDocuments\u005cHenkel\u005cHenkel_RobotLeveling_V0.1\u005ccode\u005cCANVIEW4\u005cvt3_code\u005cvt3_lang.h
p214
S'383800d615e69b1d8d0e12ac37da64fd'
p215
sVC:\u005cUsers\u005cashlc00\u005cDocuments\u005cHenkel\u005cHenkel_RobotLeveling_v1.0.0\u005ccode\u005cCANVIEW4\u005cvt3_code\u005cvt3_init_persistent_f_array.c
p216
S'e372581338fe2096e2fc700bc77eabc9'
p217
sVC:\u005cUsers\u005cashlc00\u005cDocuments\u005cHenkel\u005cHenkel_RobotLeveling_V0.1\u005ccode\u005cCANVIEW4\u005cvt3_code\u005cvt3_disp.c
p218
S'acbca8c4410488a0bb3c0e4d48d3df0f'
p219
sVC:\u005cUsers\u005cashlc00\u005cDocuments\u005cHenkel\u005cHenkel_RobotLeveling_v1.0.0\u005ccode\u005cCANVIEW4\u005cvt3_code\u005cvt3_POU__key_data.c
p220
S'bff068e446c7882a6d5765bf97106264'
p221
sVC:\u005cUsers\u005cashlc00\u005cDocuments\u005cHenkel\u005cHenkel_RobotLeveling_v1.0.0\u005ccode\u005cCANVIEW4\u005cvt3_code\u005cvt3_BMP__Blk3_0_0_argb8888.h
p222
S'ef3b448fc19b73a6844ab66c871e935b'
p223
sVC:\u005cUsers\u005cashlc00\u005cDocuments\u005cHenkel\u005cHenkel_RobotLeveling_v1.0.0\u005ccode\u005cCANVIEW4\u005cvt3_code\u005cvt3_POU__global_data.c
p224
S'3b0c1be613911cf7c48393168a28e50c'
p225
sVC:\u005cUsers\u005cashlc00\u005cDocuments\u005cHenkel\u005cHenkel_RobotLeveling_V0.1\u005ccode\u005cCANVIEW4\u005cvt3_code\u005cvt3_POU__DATA_ARRAY_255.h
p226
S'2f2d24568e9b57f9c0774761162796e4'
p227
sVC:\u005cUsers\u005cashlc00\u005cDocuments\u005cHenkel\u005cHenkel_RobotLeveling_v1.0.0\u005ccode\u005cCANVIEW4\u005cvt3_code\u005cvt3_POU__global_data.h
p228
S'2775b8179dcd060a92fbbabc882123de'
p229
sVC:\u005cUsers\u005cashlc00\u005cDocuments\u005cHenkel\u005cHenkel_RobotLeveling_V0.1\u005ccode\u005cCANVIEW4\u005cvt3_code\u005cvt3_POU__global_data.h
p230
S'2775b8179dcd060a92fbbabc882123de'
p231
sVC:\u005cUsers\u005cashlc00\u005cDocuments\u005cHenkel\u005cHenkel_RobotLeveling_v1.0.0\u005ccode\u005cCANVIEW4\u005cvt3_code\u005cvt3_POU__ForceUpdate.h
p232
S'762b469c7d880af3a889f78ccf55bae6'
p233
sVC:\u005cUsers\u005cashlc00\u005cDocuments\u005cHenkel\u005cHenkel_RobotLeveling_v1.0.0\u005ccode\u005cCANVIEW4\u005cvt3_code\u005cvt3_POU__ENUM_UPDATE.h
p234
S'c166b33caf459d81bd65d21bf426c15e'
p235
sVC:\u005cUsers\u005cashlc00\u005cDocuments\u005cHenkel\u005cHenkel_RobotLeveling_V0.1\u005ccode\u005cCANVIEW4\u005cvt3_code\u005cvt3_fonts.c
p236
S'bfaad749932d926b5b01a40f8613a46f'
p237
sVC:\u005cUsers\u005cashlc00\u005cDocuments\u005cHenkel\u005cHenkel_RobotLeveling_V0.1\u005ccode\u005cCANVIEW4\u005cvt3_code\u005cvt3_POU__writeStringUSB.h
p238
S'beaa4f5696be2f6c6bee4a89e7aa57c9'
p239
sVC:\u005cUsers\u005cashlc00\u005cDocuments\u005cHenkel\u005cHenkel_RobotLeveling_v1.0.0\u005ccode\u005cCANVIEW4\u005cvt3_code\u005cvt3_Font__RobotoBold36.h
p240
S'0c26395b4f5d1a05ad92038ff68577ea'
p241
sVC:\u005cUsers\u005cashlc00\u005cDocuments\u005cHenkel\u005cHenkel_RobotLeveling_V0.1\u005ccode\u005cCANVIEW4\u005cvt3_code\u005cvt3_POU__global_data.c
p242
S'3b0c1be613911cf7c48393168a28e50c'
p243
sVC:\u005cUsers\u005cashlc00\u005cDocuments\u005cHenkel\u005cHenkel_RobotLeveling_v1.0.0\u005ccode\u005cCANVIEW4\u005cvt3_code\u005cvt3_Event__Main.h
p244
S'eddfc991220d0898a8c054cb4deb4f14'
p245
sVC:\u005cUsers\u005cashlc00\u005cDocuments\u005cHenkel\u005cHenkel_RobotLeveling_V0.1\u005ccode\u005cCANVIEW4\u005cvt3_code\u005cvt3_fonts.h
p246
S'a5ddc397f3959f9e6727aad85300a3f3'
p247
sVC:\u005cUsers\u005cashlc00\u005cDocuments\u005cHenkel\u005cHenkel_RobotLeveling_V0.1\u005ccode\u005cCANVIEW4\u005cvt3_code\u005cvt3_POU__SetKeyMode.h
p248
S'4e0a83a2cfd3ae7087eb1f5520b83f06'
p249
sVC:\u005cUsers\u005cashlc00\u005cDocuments\u005cHenkel\u005cHenkel_RobotLeveling_v1.0.0\u005ccode\u005cCANVIEW4\u005cvt3_code\u005cvt3_alarms.h
p250
S'8a1009e258301d8cca5d0ecb69c09969'
p251
sVC:\u005cUsers\u005cashlc00\u005cDocuments\u005cHenkel\u005cHenkel_RobotLeveling_v1.0.0\u005ccode\u005cCANVIEW4\u005cvt3_code\u005cvt3_Font__RobotoBold49.h
p252
S'44aa6f161f9c61d4190c2304a86d383d'
p253
sVC:\u005cUsers\u005cashlc00\u005cDocuments\u005cHenkel\u005cHenkel_RobotLeveling_v1.0.0\u005ccode\u005cCANVIEW4\u005cvt3_code\u005cvt3_palette.c
p254
S'ba9f66d8febe7598c9cc56166b76101a'
p255
sVC:\u005cUsers\u005cashlc00\u005cDocuments\u005cHenkel\u005cHenkel_RobotLeveling_v1.0.0\u005ccode\u005cCANVIEW4\u005cvt3_code\u005cvt3_BMP__Henkel460X259_0_0_argb8888.h
p256
S'e8e5fa6171a94f89ecbd7713ee4bafd7'
p257
sVC:\u005cUsers\u005cashlc00\u005cDocuments\u005cHenkel\u005cHenkel_RobotLeveling_v1.0.0\u005ccode\u005cCANVIEW4\u005cvt3_code\u005cvt3_POU__openUSB.h
p258
S'9c0515a83e8bdd0b23d8f790d37d6934'
p259
sVC:\u005cUsers\u005cashlc00\u005cDocuments\u005cHenkel\u005cHenkel_RobotLeveling_v1.0.0\u005ccode\u005cCANVIEW4\u005cvt3_code\u005cvt3_vars.c
p260
S'245a375ac57678416616a193a1f6c26b'
p261
sVC:\u005cUsers\u005cashlc00\u005cDocuments\u005cHenkel\u005cHenkel_RobotLeveling_v1.0.0\u005ccode\u005cCANVIEW4\u005cvt3_code\u005cvt3_palette.h
p262
S'c55867d1a0cd24c7eb0daa1e0fbe2da9'
p263
sVC:\u005cUsers\u005cashlc00\u005cDocuments\u005cHenkel\u005cHenkel_RobotLeveling_v1.0.0\u005ccode\u005cCANVIEW4\u005cvt3_code\u005cvt3_POU__writeByteCOM.h
p264
S'46be1e960abd588d284af97f84969652'
p265
sVC:\u005cUsers\u005cashlc00\u005cDocuments\u005cHenkel\u005cHenkel_RobotLeveling_V0.1\u005ccode\u005cCANVIEW4\u005cvt3_code\u005cvt3_Event__Main.h
p266
S'eddfc991220d0898a8c054cb4deb4f14'
p267
sVC:\u005cUsers\u005cashlc00\u005cDocuments\u005cHenkel\u005cHenkel_RobotLeveling_v1.0.0\u005ccode\u005cCANVIEW4\u005cvt3_code\u005cvt3_POU__PowerOff.h
p268
S'dbcfc955e1bd4f5e870f5fc6f84f97e2'
p269
sVC:\u005cUsers\u005cashlc00\u005cDocuments\u005cHenkel\u005cHenkel_RobotLeveling_V0.1\u005ccode\u005cCANVIEW4\u005cvt3_code\u005cvt3_Event__Main.c
p270
S'4a2e9d5921a23aa1f8ba4072566d400d'
p271
sVC:\u005cUsers\u005cashlc00\u005cDocuments\u005cHenkel\u005cHenkel_RobotLeveling_v1.0.0\u005ccode\u005cCANVIEW4\u005cvt3_code\u005cvt3_Event__Main.c
p272
S'4a2e9d5921a23aa1f8ba4072566d400d'
p273
sVC:\u005cUsers\u005cashlc00\u005cDocuments\u005cHenkel\u005cHenkel_RobotLeveling_V0.1\u005ccode\u005cCANVIEW4\u005cvt3_code\u005cvt3_POU__umountUSB.h
p274
S'afed4d0f122d5ac098a8c480988c9433'
p275
sVC:\u005cUsers\u005cashlc00\u005cDocuments\u005cHenkel\u005cHenkel_RobotLeveling_v1.0.0\u005ccode\u005cCANVIEW4\u005cvt3_code\u005cvt3_POU.h
p276
S'9503eea1e32c5e320751d423684e352a'
p277
sVC:\u005cUsers\u005cashlc00\u005cDocuments\u005cHenkel\u005cHenkel_RobotLeveling_v1.0.0\u005ccode\u005cCANVIEW4\u005cvt3_code\u005cvt3_POU.c
p278
S'cea3cf3e67f8e2f1ece01077e0678082'
p279
sVC:\u005cUsers\u005cashlc00\u005cDocuments\u005cHenkel\u005cHenkel_RobotLeveling_V0.1\u005ccode\u005cCANVIEW4\u005cvt3_code\u005cvt3_POU__ENUM_KEY_MODE.h
p280
S'1d463175b1a053290ec8e810d80c718c'
p281
sVC:\u005cUsers\u005cashlc00\u005cDocuments\u005cHenkel\u005cHenkel_RobotLeveling_v1.0.0\u005ccode\u005cCANVIEW4\u005cvt3_code\u005cvt3_POU__DATA_ARRAY_255.h
p282
S'2f2d24568e9b57f9c0774761162796e4'
p283
sVC:\u005cUsers\u005cashlc00\u005cDocuments\u005cHenkel\u005cHenkel_RobotLeveling_v1.0.0\u005ccode\u005cCANVIEW4\u005cvt3_code\u005cvt3_lang.c
p284
S'3ed8ffc6a102a5df404ea22e0441c9f5'
p285
sVC:\u005cUsers\u005cashlc00\u005cDocuments\u005cHenkel\u005cHenkel_RobotLeveling_V0.1\u005ccode\u005cCANVIEW4\u005cvt3_code\u005cvt3_Event__Splash.h
p286
S'aeca1dd79439396bc096d8158e3ce4eb'
p287
sVC:\u005cUsers\u005cashlc00\u005cDocuments\u005cHenkel\u005cHenkel_RobotLeveling_v1.0.0\u005ccode\u005cCANVIEW4\u005cvt3_code\u005cvt3_POU__readStringCOM.h
p288
S'ab259c82574eb7d181c361f051c6c0b1'
p289
sVC:\u005cUsers\u005cashlc00\u005cDocuments\u005cHenkel\u005cHenkel_RobotLeveling_V0.1\u005ccode\u005cCANVIEW4\u005cvt3_code\u005cvt3_init_persistent_p_array.h
p290
S'79597002feb85a132ab4010cbc46b658'
p291
sVC:\u005cUsers\u005cashlc00\u005cDocuments\u005cHenkel\u005cHenkel_RobotLeveling_V0.1\u005ccode\u005cCANVIEW4\u005cvt3_code\u005cvt3_POU__ForceUpdate.h
p292
S'762b469c7d880af3a889f78ccf55bae6'
p293
sVC:\u005cUsers\u005cashlc00\u005cDocuments\u005cHenkel\u005cHenkel_RobotLeveling_V0.1\u005ccode\u005cCANVIEW4\u005cvt3_code\u005cvt3_init_persistent_p_array.c
p294
S'1b27d612e48d48fe0dd84b63706068fe'
p295
sVC:\u005cUsers\u005cashlc00\u005cDocuments\u005cHenkel\u005cHenkel_RobotLeveling_v1.0.0\u005ccode\u005cCANVIEW4\u005cvt3_code\u005cvt3_CAN.c
p296
S'0d804a18b60186477288c5ea2f8937c3'
p297
sVC:\u005cUsers\u005cashlc00\u005cDocuments\u005cHenkel\u005cHenkel_RobotLeveling_v1.0.0\u005ccode\u005cCANVIEW4\u005cvt3_code\u005cvt3_CAN__CanInterface.c
p298
S'8b215df8f14193a9c683828023883c6b'
p299
sVC:\u005cUsers\u005cashlc00\u005cDocuments\u005cHenkel\u005cHenkel_RobotLeveling_v1.0.0\u005ccode\u005cCANVIEW4\u005cvt3_code\u005cvt3_CAN.h
p300
S'545c54ed8419ab8a4d985ddb77999753'
p301
sVC:\u005cUsers\u005cashlc00\u005cDocuments\u005cHenkel\u005cHenkel_RobotLeveling_v1.0.0\u005ccode\u005cCANVIEW4\u005cvt3_code\u005cvt3_POU__readStringUSB.h
p302
S'f2ccd75f2345fd6cf1dc0954213bf9d8'
p303
sVC:\u005cUsers\u005cashlc00\u005cDocuments\u005cHenkel\u005cHenkel_RobotLeveling_V0.1\u005ccode\u005cCANVIEW4\u005cvt3_code\u005cvt3_var_version.c
p304
S'8436823b848668e1472b9ce70babc46f'
p305
sVC:\u005cUsers\u005cashlc00\u005cDocuments\u005cHenkel\u005cHenkel_RobotLeveling_V0.1\u005ccode\u005cCANVIEW4\u005cvt3_code\u005cvt3_POU__ENUM_PARITY.h
p306
S'30384f7b5ff6ba58af960c66da5e5a9f'
p307
sVC:\u005cUsers\u005cashlc00\u005cDocuments\u005cHenkel\u005cHenkel_RobotLeveling_v1.0.0\u005ccode\u005cCANVIEW4\u005cvt3_code\u005cvt3_POU__ENUM_KEY_MODE.h
p308
S'1d463175b1a053290ec8e810d80c718c'
p309
sVC:\u005cUsers\u005cashlc00\u005cDocuments\u005cHenkel\u005cHenkel_RobotLeveling_V0.1\u005ccode\u005cCANVIEW4\u005cvt3_code\u005cvt3_POU__ENUM_MODE_ERR.h
p310
S'ad4a30ae172d67bb86c400d5644cff30'
p311
sVC:\u005cUsers\u005cashlc00\u005cDocuments\u005cHenkel\u005cHenkel_RobotLeveling_V0.1\u005ccode\u005cCANVIEW4\u005cvt3_code\u005cvt3_POU_string_typedef.h
p312
S'089a57f636115b335e2fe10a18292639'
p313
sVC:\u005cUsers\u005cashlc00\u005cDocuments\u005cHenkel\u005cHenkel_RobotLeveling_v1.0.0\u005ccode\u005cCANVIEW4\u005cvt3_code\u005cvt3_CAN_common.c
p314
S'bcf5e078f1b9e7b62be8267d8702cfa5'
p315
sVC:\u005cUsers\u005cashlc00\u005cDocuments\u005cHenkel\u005cHenkel_RobotLeveling_v1.0.0\u005ccode\u005cCANVIEW4\u005cvt3_code\u005cvt3_POU__key_data.h
p316
S'ef95a127a9e50b094eddf15a063214d6'
p317
sVC:\u005cUsers\u005cashlc00\u005cDocuments\u005cHenkel\u005cHenkel_RobotLeveling_V0.1\u005ccode\u005cCANVIEW4\u005cvt3_code\u005cvt3_POU__ENUM_UART_ERR.h
p318
S'0db90ed4b1b39b1b904c8e9d9ec4f52c'
p319
sVC:\u005cUsers\u005cashlc00\u005cDocuments\u005cHenkel\u005cHenkel_RobotLeveling_v1.0.0\u005ccode\u005cCANVIEW4\u005cvt3_code\u005cvt3_CAN_common.h
p320
S'babc7236ce9d774079d27c233f7e9077'
p321
sVC:\u005cUsers\u005cashlc00\u005cDocuments\u005cHenkel\u005cHenkel_RobotLeveling_v1.0.0\u005ccode\u005cCANVIEW4\u005cvt3_code\u005cvt3_POU__MAIN.h
p322
S'73f8334065ac3cd56c616105d689c06a'
p323
sVC:\u005cUsers\u005cashlc00\u005cDocuments\u005cHenkel\u005cHenkel_RobotLeveling_V0.1\u005ccode\u005cCANVIEW4\u005cvt3_code\u005cvt3_images.h
p324
S'c8e33486be588241cf9d7441fa290391'
p325
sVC:\u005cUsers\u005cashlc00\u005cDocuments\u005cHenkel\u005cHenkel_RobotLeveling_V0.1\u005ccode\u005cCANVIEW4\u005cvt3_code\u005cvt3_POU__closeUSB.h
p326
S'a228dfef379e4ef0cd3e5f781f2aa707'
p327
sVC:\u005cUsers\u005cashlc00\u005cDocuments\u005cHenkel\u005cHenkel_RobotLeveling_v1.0.0\u005ccode\u005cCANVIEW4\u005cvt3_code\u005cvt3_POU__ENUM_USB_ERR.h
p328
S'99521e6140e28495262d08c81a6ffa35'
p329
sVC:\u005cUsers\u005cashlc00\u005cDocuments\u005cHenkel\u005cHenkel_RobotLeveling_V0.1\u005ccode\u005cCANVIEW4\u005cvt3_code\u005cvt3_CAN__CanInterface.h
p330
S'ba835448265c56752130edda462a0bf0'
p331
sVC:\u005cUsers\u005cashlc00\u005cDocuments\u005cHenkel\u005cHenkel_RobotLeveling_V0.1\u005ccode\u005cCANVIEW4\u005cvt3_code\u005cvt3_CAN__CanInterface.c
p332
S'8b215df8f14193a9c683828023883c6b'
p333
s.